TN:
SF:/usr/include/c++/9/bits/shared_ptr_base.h
FN:148,_ZNSt16_Sp_counted_baseILN9__gnu_cxx12_Lock_policyE2EE10_M_releaseEv
FNDA:2873,_ZNSt16_Sp_counted_baseILN9__gnu_cxx12_Lock_policyE2EE10_M_releaseEv
FN:616,_ZNSt14__shared_countILN9__gnu_cxx12_Lock_policyE2EEC2Ev
FNDA:42,_ZNSt14__shared_countILN9__gnu_cxx12_Lock_policyE2EEC2Ev
FN:727,_ZNSt14__shared_countILN9__gnu_cxx12_Lock_policyE2EED2Ev
FNDA:181,_ZNSt14__shared_countILN9__gnu_cxx12_Lock_policyE2EED2Ev
FN:1118,_ZNSt12__shared_ptrIN6rclcpp7ContextELN9__gnu_cxx12_Lock_policyE2EEC2Ev
FNDA:1,_ZNSt12__shared_ptrIN6rclcpp7ContextELN9__gnu_cxx12_Lock_policyE2EEC2Ev
FN:1169,_ZNSt12__shared_ptrIN6rclcpp7ContextELN9__gnu_cxx12_Lock_policyE2EED2Ev
FNDA:10,_ZNSt12__shared_ptrIN6rclcpp7ContextELN9__gnu_cxx12_Lock_policyE2EED2Ev
DA:148,2873
DA:152,2873
DA:155,1031
DA:167,1031
DA:168,1030
DA:171,1021
DA:174,2874
DA:616,42
DA:617,42
DA:727,181
DA:729,181
DA:730,66
DA:731,181
DA:1118,1
DA:1119,1
DA:1120,1
DA:1169,10
end_of_record
SF:/usr/include/c++/9/ext/type_traits.h
FN:152,_ZN9__gnu_cxx17__is_null_pointerIKcEEbPT_
FNDA:2736,_ZN9__gnu_cxx17__is_null_pointerIKcEEbPT_
DA:152,2736
DA:153,2736
end_of_record
SF:/usr/include/c++/9/ext/new_allocator.h
FN:80,_ZN9__gnu_cxx13new_allocatorIcEC2Ev
FNDA:0,_ZN9__gnu_cxx13new_allocatorIcEC2Ev
FN:89,_ZN9__gnu_cxx13new_allocatorIcED2Ev
FNDA:0,_ZN9__gnu_cxx13new_allocatorIcED2Ev
DA:80,0
DA:89,0
end_of_record
SF:/usr/include/c++/9/bits/stl_iterator_base_funcs.h
FN:98,_ZSt10__distanceIPKcENSt15iterator_traitsIT_E15difference_typeES3_S3_St26random_access_iterator_tag
FNDA:2736,_ZSt10__distanceIPKcENSt15iterator_traitsIT_E15difference_typeES3_S3_St26random_access_iterator_tag
FN:138,_ZSt8distanceIPKcENSt15iterator_traitsIT_E15difference_typeES3_S3_
FNDA:2736,_ZSt8distanceIPKcENSt15iterator_traitsIT_E15difference_typeES3_S3_
DA:98,2736
DA:104,2736
DA:138,2736
DA:141,2736
DA:142,5472
end_of_record
SF:/usr/include/c++/9/bits/stl_iterator_base_types.h
FN:205,_ZSt19__iterator_categoryIPKcENSt15iterator_traitsIT_E17iterator_categoryERKS3_
FNDA:2736,_ZSt19__iterator_categoryIPKcENSt15iterator_traitsIT_E17iterator_categoryERKS3_
DA:205,2736
DA:206,2736
end_of_record
SF:/media/okritvik/NSSD/foxy_ws/src/MARIO-COM/mario_com/test/main.cpp
FN:28,main
FNDA:1,main
DA:28,1
DA:29,1
DA:30,1
DA:31,1
DA:32,1
DA:33,1
end_of_record
SF:/usr/include/c++/9/bits/basic_string.h
FN:247,_ZNSt7__cxx1112basic_stringIcSt11char_traitsIcESaIcEE16_M_construct_auxIPKcEEvT_S8_St12__false_type
FNDA:384,_ZNSt7__cxx1112basic_stringIcSt11char_traitsIcESaIcEE16_M_construct_auxIPKcEEvT_S8_St12__false_type
FN:267,_ZNSt7__cxx1112basic_stringIcSt11char_traitsIcESaIcEE12_M_constructIPKcEEvT_S8_
FNDA:384,_ZNSt7__cxx1112basic_stringIcSt11char_traitsIcESaIcEE12_M_constructIPKcEEvT_S8_
FN:529,_ZNSt7__cxx1112basic_stringIcSt11char_traitsIcESaIcEEC2IS3_EEPKcRKS3_
FNDA:384,_ZNSt7__cxx1112basic_stringIcSt11char_traitsIcESaIcEEC2IS3_EEPKcRKS3_
DA:247,384
DA:251,384
DA:252,384
DA:267,384
DA:270,384
DA:271,384
DA:529,384
DA:530,384
DA:531,384
end_of_record
SF:/usr/include/c++/9/iostream
end_of_record
SF:/usr/include/c++/9/bits/shared_ptr.h
FN:127,_ZNSt10shared_ptrIN6rclcpp7ContextEEC2Ev
FNDA:1,_ZNSt10shared_ptrIN6rclcpp7ContextEEC2Ev
FN:307,_ZNSt10shared_ptrIN6rclcpp7ContextEEC2EDn
FNDA:1,_ZNSt10shared_ptrIN6rclcpp7ContextEEC2EDn
DA:127,1
DA:307,1
end_of_record
SF:/usr/include/c++/9/bits/char_traits.h
FN:100,_ZN9__gnu_cxx11char_traitsIcE2eqERKcS3_
FNDA:0,_ZN9__gnu_cxx11char_traitsIcE2eqERKcS3_
FN:161,_ZN9__gnu_cxx11char_traitsIcE6lengthEPKc
FNDA:0,_ZN9__gnu_cxx11char_traitsIcE6lengthEPKc
FN:336,_ZNSt11char_traitsIcE6lengthEPKc
FNDA:476,_ZNSt11char_traitsIcE6lengthEPKc
DA:100,0
DA:101,0
DA:161,0
DA:164,0
DA:165,0
DA:166,0
DA:167,0
DA:236,476
DA:336,476
DA:339,476
DA:340,0
DA:342,476
end_of_record
SF:/usr/include/x86_64-linux-gnu/c++/9/bits/gthr-default.h
FN:248,_ZL18__gthread_active_pv
FNDA:3901,_ZL18__gthread_active_pv
DA:248,3901
DA:252,3901
end_of_record
SF:/usr/include/c++/9/ext/atomicity.h
FN:48,_ZN9__gnu_cxxL18__exchange_and_addEPVii
FNDA:3898,_ZN9__gnu_cxxL18__exchange_and_addEPVii
FN:65,_ZN9__gnu_cxxL25__exchange_and_add_singleEPii
FNDA:0,_ZN9__gnu_cxxL25__exchange_and_add_singleEPii
FN:78,_ZN9__gnu_cxxL27__exchange_and_add_dispatchEPii
FNDA:3901,_ZN9__gnu_cxxL27__exchange_and_add_dispatchEPii
DA:48,3898
DA:49,3898
DA:65,0
DA:67,0
DA:68,0
DA:69,0
DA:78,3901
DA:81,3901
DA:82,3899
DA:84,2
end_of_record
SF:/opt/ros/foxy/src/gtest_vendor/include/gtest/gtest.h
FN:2369,_Z13RUN_ALL_TESTSv
FNDA:1,_Z13RUN_ALL_TESTSv
DA:2369,1
DA:2370,1
end_of_record
SF:/usr/include/c++/9/bits/basic_string.tcc
FN:206,_ZNSt7__cxx1112basic_stringIcSt11char_traitsIcESaIcEE12_M_constructIPKcEEvT_S8_St20forward_iterator_tag
FNDA:2736,_ZNSt7__cxx1112basic_stringIcSt11char_traitsIcESaIcEE12_M_constructIPKcEEvT_S8_St20forward_iterator_tag
DA:206,2736
DA:211,2736
DA:212,0
DA:215,2736
DA:217,2736
DA:219,365
DA:220,365
DA:225,2736
DA:226,0
DA:228,0
DA:229,0
DA:232,2735
DA:233,2736
end_of_record
TN:
SF:/usr/include/c++/9/bits/allocated_ptr.h
FN:52,_ZNSt15__allocated_ptrISaISt19_Sp_counted_deleterIPN8std_msgs3msg7String_ISaIvEEESt14default_deleteIS5_ES4_LN9__gnu_cxx12_Lock_policyE2EEEEC2ERSC_PSB_
FNDA:0,_ZNSt15__allocated_ptrISaISt19_Sp_counted_deleterIPN8std_msgs3msg7String_ISaIvEEESt14default_deleteIS5_ES4_LN9__gnu_cxx12_Lock_policyE2EEEEC2ERSC_PSB_
FN:52,_ZNSt15__allocated_ptrISaISt23_Sp_counted_ptr_inplaceIN6rclcpp4NodeESaIS2_ELN9__gnu_cxx12_Lock_policyE2EEEEC2ERS7_PS6_
FNDA:8,_ZNSt15__allocated_ptrISaISt23_Sp_counted_ptr_inplaceIN6rclcpp4NodeESaIS2_ELN9__gnu_cxx12_Lock_policyE2EEEEC2ERS7_PS6_
FN:52,_ZNSt15__allocated_ptrISaISt23_Sp_counted_ptr_inplaceIN6rclcpp9PublisherIN8std_msgs3msg7String_ISaIvEEES6_EESaIS8_ELN9__gnu_cxx12_Lock_policyE2EEEEC2ERSD_PSC_
FNDA:4,_ZNSt15__allocated_ptrISaISt23_Sp_counted_ptr_inplaceIN6rclcpp9PublisherIN8std_msgs3msg7String_ISaIvEEES6_EESaIS8_ELN9__gnu_cxx12_Lock_policyE2EEEEC2ERSD_PSC_
FN:52,_ZNSt15__allocated_ptrISaISt23_Sp_counted_ptr_inplaceISaIN8std_msgs3msg7String_ISaIvEEEESaIS6_ELN9__gnu_cxx12_Lock_policyE2EEEEC2ERSB_PSA_
FNDA:4,_ZNSt15__allocated_ptrISaISt23_Sp_counted_ptr_inplaceISaIN8std_msgs3msg7String_ISaIvEEEESaIS6_ELN9__gnu_cxx12_Lock_policyE2EEEEC2ERSB_PSA_
FN:52,_ZNSt15__allocated_ptrISaISt23_Sp_counted_ptr_inplaceISaIvESaIS1_ELN9__gnu_cxx12_Lock_policyE2EEEEC2ERS6_PS5_
FNDA:36,_ZNSt15__allocated_ptrISaISt23_Sp_counted_ptr_inplaceISaIvESaIS1_ELN9__gnu_cxx12_Lock_policyE2EEEEC2ERS6_PS5_
FN:52,_ZNSt15__allocated_ptrISaISt23_Sp_counted_ptr_inplaceIN6rclcpp15QOSEventHandlerISt8functionIFvR36rmw_offered_deadline_missed_status_tEESt10shared_ptrI15rcl_publisher_tEEESaISB_ELN9__gnu_cxx12_Lock_policyE2EEEEC2ERSG_PSF_
FNDA:0,_ZNSt15__allocated_ptrISaISt23_Sp_counted_ptr_inplaceIN6rclcpp15QOSEventHandlerISt8functionIFvR36rmw_offered_deadline_missed_status_tEESt10shared_ptrI15rcl_publisher_tEEESaISB_ELN9__gnu_cxx12_Lock_policyE2EEEEC2ERSG_PSF_
FN:52,_ZNSt15__allocated_ptrISaISt23_Sp_counted_ptr_inplaceIN6rclcpp15QOSEventHandlerISt8functionIFvR28rmw_liveliness_lost_status_tEESt10shared_ptrI15rcl_publisher_tEEESaISB_ELN9__gnu_cxx12_Lock_policyE2EEEEC2ERSG_PSF_
FNDA:0,_ZNSt15__allocated_ptrISaISt23_Sp_counted_ptr_inplaceIN6rclcpp15QOSEventHandlerISt8functionIFvR28rmw_liveliness_lost_status_tEESt10shared_ptrI15rcl_publisher_tEEESaISB_ELN9__gnu_cxx12_Lock_policyE2EEEEC2ERSG_PSF_
FN:52,_ZNSt15__allocated_ptrISaISt23_Sp_counted_ptr_inplaceIN6rclcpp15QOSEventHandlerISt8functionIFvR35rmw_qos_incompatible_event_status_tEESt10shared_ptrI15rcl_publisher_tEEESaISB_ELN9__gnu_cxx12_Lock_policyE2EEEEC2ERSG_PSF_
FNDA:0,_ZNSt15__allocated_ptrISaISt23_Sp_counted_ptr_inplaceIN6rclcpp15QOSEventHandlerISt8functionIFvR35rmw_qos_incompatible_event_status_tEESt10shared_ptrI15rcl_publisher_tEEESaISB_ELN9__gnu_cxx12_Lock_policyE2EEEEC2ERSG_PSF_
FN:52,_ZNSt15__allocated_ptrISaISt23_Sp_counted_ptr_inplaceIN6rclcpp15QOSEventHandlerIZNS1_9PublisherIN8std_msgs3msg7String_ISaIvEEES7_EC4EPNS1_15node_interfaces17NodeBaseInterfaceERKNSt7__cxx1112basic_stringIcSt11char_traitsIcESaIcEEERKNS1_3QoSERKNS1_29PublisherOptionsWithAllocatorIS7_EEEUlR35rmw_qos_incompatible_event_status_tE_St10shared_ptrI15rcl_publisher_tEEESaISY_ELN9__gnu_cxx12_Lock_policyE2EEEEC2ERS13_PS12_
FNDA:2,_ZNSt15__allocated_ptrISaISt23_Sp_counted_ptr_inplaceIN6rclcpp15QOSEventHandlerIZNS1_9PublisherIN8std_msgs3msg7String_ISaIvEEES7_EC4EPNS1_15node_interfaces17NodeBaseInterfaceERKNSt7__cxx1112basic_stringIcSt11char_traitsIcESaIcEEERKNS1_3QoSERKNS1_29PublisherOptionsWithAllocatorIS7_EEEUlR35rmw_qos_incompatible_event_status_tE_St10shared_ptrI15rcl_publisher_tEEESaISY_ELN9__gnu_cxx12_Lock_policyE2EEEEC2ERS13_PS12_
FN:52,_ZNSt15__allocated_ptrISaISt19_Sp_counted_deleterIPN6rclcpp12experimental19IntraProcessManagerEZNS1_7Context15get_sub_contextIS3_JEEESt10shared_ptrIT_EDpOT0_EUlS4_E_SaIvELN9__gnu_cxx12_Lock_policyE2EEEEC2ERSI_PSH_
FNDA:0,_ZNSt15__allocated_ptrISaISt19_Sp_counted_deleterIPN6rclcpp12experimental19IntraProcessManagerEZNS1_7Context15get_sub_contextIS3_JEEESt10shared_ptrIT_EDpOT0_EUlS4_E_SaIvELN9__gnu_cxx12_Lock_policyE2EEEEC2ERSI_PSH_
FN:52,_ZNSt15__allocated_ptrISaISt23_Sp_counted_ptr_inplaceIN8std_msgs3msg7String_ISaIvEEESaIS5_ELN9__gnu_cxx12_Lock_policyE2EEEEC2ERSA_PS9_
FNDA:0,_ZNSt15__allocated_ptrISaISt23_Sp_counted_ptr_inplaceIN8std_msgs3msg7String_ISaIvEEESaIS5_ELN9__gnu_cxx12_Lock_policyE2EEEEC2ERSA_PS9_
FN:70,_ZNSt15__allocated_ptrISaISt23_Sp_counted_ptr_inplaceIN6rclcpp15QOSEventHandlerISt8functionIFvR36rmw_offered_deadline_missed_status_tEESt10shared_ptrI15rcl_publisher_tEEESaISB_ELN9__gnu_cxx12_Lock_policyE2EEEED2Ev
FNDA:0,_ZNSt15__allocated_ptrISaISt23_Sp_counted_ptr_inplaceIN6rclcpp15QOSEventHandlerISt8functionIFvR36rmw_offered_deadline_missed_status_tEESt10shared_ptrI15rcl_publisher_tEEESaISB_ELN9__gnu_cxx12_Lock_policyE2EEEED2Ev
FN:70,_ZNSt15__allocated_ptrISaISt19_Sp_counted_deleterIPN6rclcpp12experimental19IntraProcessManagerEZNS1_7Context15get_sub_contextIS3_JEEESt10shared_ptrIT_EDpOT0_EUlS4_E_SaIvELN9__gnu_cxx12_Lock_policyE2EEEED2Ev
FNDA:0,_ZNSt15__allocated_ptrISaISt19_Sp_counted_deleterIPN6rclcpp12experimental19IntraProcessManagerEZNS1_7Context15get_sub_contextIS3_JEEESt10shared_ptrIT_EDpOT0_EUlS4_E_SaIvELN9__gnu_cxx12_Lock_policyE2EEEED2Ev
FN:70,_ZNSt15__allocated_ptrISaISt23_Sp_counted_ptr_inplaceISaIvESaIS1_ELN9__gnu_cxx12_Lock_policyE2EEEED2Ev
FNDA:36,_ZNSt15__allocated_ptrISaISt23_Sp_counted_ptr_inplaceISaIvESaIS1_ELN9__gnu_cxx12_Lock_policyE2EEEED2Ev
FN:70,_ZNSt15__allocated_ptrISaISt19_Sp_counted_deleterIPN8std_msgs3msg7String_ISaIvEEESt14default_deleteIS5_ES4_LN9__gnu_cxx12_Lock_policyE2EEEED2Ev
FNDA:0,_ZNSt15__allocated_ptrISaISt19_Sp_counted_deleterIPN8std_msgs3msg7String_ISaIvEEESt14default_deleteIS5_ES4_LN9__gnu_cxx12_Lock_policyE2EEEED2Ev
FN:70,_ZNSt15__allocated_ptrISaISt23_Sp_counted_ptr_inplaceIN6rclcpp15QOSEventHandlerISt8functionIFvR28rmw_liveliness_lost_status_tEESt10shared_ptrI15rcl_publisher_tEEESaISB_ELN9__gnu_cxx12_Lock_policyE2EEEED2Ev
FNDA:0,_ZNSt15__allocated_ptrISaISt23_Sp_counted_ptr_inplaceIN6rclcpp15QOSEventHandlerISt8functionIFvR28rmw_liveliness_lost_status_tEESt10shared_ptrI15rcl_publisher_tEEESaISB_ELN9__gnu_cxx12_Lock_policyE2EEEED2Ev
FN:70,_ZNSt15__allocated_ptrISaISt23_Sp_counted_ptr_inplaceISaIN8std_msgs3msg7String_ISaIvEEEESaIS6_ELN9__gnu_cxx12_Lock_policyE2EEEED2Ev
FNDA:4,_ZNSt15__allocated_ptrISaISt23_Sp_counted_ptr_inplaceISaIN8std_msgs3msg7String_ISaIvEEEESaIS6_ELN9__gnu_cxx12_Lock_policyE2EEEED2Ev
FN:70,_ZNSt15__allocated_ptrISaISt23_Sp_counted_ptr_inplaceIN6rclcpp15QOSEventHandlerISt8functionIFvR35rmw_qos_incompatible_event_status_tEESt10shared_ptrI15rcl_publisher_tEEESaISB_ELN9__gnu_cxx12_Lock_policyE2EEEED2Ev
FNDA:0,_ZNSt15__allocated_ptrISaISt23_Sp_counted_ptr_inplaceIN6rclcpp15QOSEventHandlerISt8functionIFvR35rmw_qos_incompatible_event_status_tEESt10shared_ptrI15rcl_publisher_tEEESaISB_ELN9__gnu_cxx12_Lock_policyE2EEEED2Ev
FN:70,_ZNSt15__allocated_ptrISaISt23_Sp_counted_ptr_inplaceIN6rclcpp9PublisherIN8std_msgs3msg7String_ISaIvEEES6_EESaIS8_ELN9__gnu_cxx12_Lock_policyE2EEEED2Ev
FNDA:4,_ZNSt15__allocated_ptrISaISt23_Sp_counted_ptr_inplaceIN6rclcpp9PublisherIN8std_msgs3msg7String_ISaIvEEES6_EESaIS8_ELN9__gnu_cxx12_Lock_policyE2EEEED2Ev
FN:70,_ZNSt15__allocated_ptrISaISt23_Sp_counted_ptr_inplaceIN6rclcpp15QOSEventHandlerIZNS1_9PublisherIN8std_msgs3msg7String_ISaIvEEES7_EC4EPNS1_15node_interfaces17NodeBaseInterfaceERKNSt7__cxx1112basic_stringIcSt11char_traitsIcESaIcEEERKNS1_3QoSERKNS1_29PublisherOptionsWithAllocatorIS7_EEEUlR35rmw_qos_incompatible_event_status_tE_St10shared_ptrI15rcl_publisher_tEEESaISY_ELN9__gnu_cxx12_Lock_policyE2EEEED2Ev
FNDA:2,_ZNSt15__allocated_ptrISaISt23_Sp_counted_ptr_inplaceIN6rclcpp15QOSEventHandlerIZNS1_9PublisherIN8std_msgs3msg7String_ISaIvEEES7_EC4EPNS1_15node_interfaces17NodeBaseInterfaceERKNSt7__cxx1112basic_stringIcSt11char_traitsIcESaIcEEERKNS1_3QoSERKNS1_29PublisherOptionsWithAllocatorIS7_EEEUlR35rmw_qos_incompatible_event_status_tE_St10shared_ptrI15rcl_publisher_tEEESaISY_ELN9__gnu_cxx12_Lock_policyE2EEEED2Ev
FN:70,_ZNSt15__allocated_ptrISaISt23_Sp_counted_ptr_inplaceIN8std_msgs3msg7String_ISaIvEEESaIS5_ELN9__gnu_cxx12_Lock_policyE2EEEED2Ev
FNDA:0,_ZNSt15__allocated_ptrISaISt23_Sp_counted_ptr_inplaceIN8std_msgs3msg7String_ISaIvEEESaIS5_ELN9__gnu_cxx12_Lock_policyE2EEEED2Ev
FN:70,_ZNSt15__allocated_ptrISaISt23_Sp_counted_ptr_inplaceIN6rclcpp4NodeESaIS2_ELN9__gnu_cxx12_Lock_policyE2EEEED2Ev
FNDA:8,_ZNSt15__allocated_ptrISaISt23_Sp_counted_ptr_inplaceIN6rclcpp4NodeESaIS2_ELN9__gnu_cxx12_Lock_policyE2EEEED2Ev
FN:78,_ZNSt15__allocated_ptrISaISt23_Sp_counted_ptr_inplaceIN6rclcpp15QOSEventHandlerISt8functionIFvR35rmw_qos_incompatible_event_status_tEESt10shared_ptrI15rcl_publisher_tEEESaISB_ELN9__gnu_cxx12_Lock_policyE2EEEEaSEDn
FNDA:0,_ZNSt15__allocated_ptrISaISt23_Sp_counted_ptr_inplaceIN6rclcpp15QOSEventHandlerISt8functionIFvR35rmw_qos_incompatible_event_status_tEESt10shared_ptrI15rcl_publisher_tEEESaISB_ELN9__gnu_cxx12_Lock_policyE2EEEEaSEDn
FN:78,_ZNSt15__allocated_ptrISaISt23_Sp_counted_ptr_inplaceIN6rclcpp15QOSEventHandlerISt8functionIFvR28rmw_liveliness_lost_status_tEESt10shared_ptrI15rcl_publisher_tEEESaISB_ELN9__gnu_cxx12_Lock_policyE2EEEEaSEDn
FNDA:0,_ZNSt15__allocated_ptrISaISt23_Sp_counted_ptr_inplaceIN6rclcpp15QOSEventHandlerISt8functionIFvR28rmw_liveliness_lost_status_tEESt10shared_ptrI15rcl_publisher_tEEESaISB_ELN9__gnu_cxx12_Lock_policyE2EEEEaSEDn
FN:78,_ZNSt15__allocated_ptrISaISt23_Sp_counted_ptr_inplaceIN6rclcpp9PublisherIN8std_msgs3msg7String_ISaIvEEES6_EESaIS8_ELN9__gnu_cxx12_Lock_policyE2EEEEaSEDn
FNDA:2,_ZNSt15__allocated_ptrISaISt23_Sp_counted_ptr_inplaceIN6rclcpp9PublisherIN8std_msgs3msg7String_ISaIvEEES6_EESaIS8_ELN9__gnu_cxx12_Lock_policyE2EEEEaSEDn
FN:78,_ZNSt15__allocated_ptrISaISt23_Sp_counted_ptr_inplaceIN6rclcpp4NodeESaIS2_ELN9__gnu_cxx12_Lock_policyE2EEEEaSEDn
FNDA:4,_ZNSt15__allocated_ptrISaISt23_Sp_counted_ptr_inplaceIN6rclcpp4NodeESaIS2_ELN9__gnu_cxx12_Lock_policyE2EEEEaSEDn
FN:78,_ZNSt15__allocated_ptrISaISt23_Sp_counted_ptr_inplaceIN6rclcpp15QOSEventHandlerISt8functionIFvR36rmw_offered_deadline_missed_status_tEESt10shared_ptrI15rcl_publisher_tEEESaISB_ELN9__gnu_cxx12_Lock_policyE2EEEEaSEDn
FNDA:0,_ZNSt15__allocated_ptrISaISt23_Sp_counted_ptr_inplaceIN6rclcpp15QOSEventHandlerISt8functionIFvR36rmw_offered_deadline_missed_status_tEESt10shared_ptrI15rcl_publisher_tEEESaISB_ELN9__gnu_cxx12_Lock_policyE2EEEEaSEDn
FN:78,_ZNSt15__allocated_ptrISaISt23_Sp_counted_ptr_inplaceIN6rclcpp15QOSEventHandlerIZNS1_9PublisherIN8std_msgs3msg7String_ISaIvEEES7_EC4EPNS1_15node_interfaces17NodeBaseInterfaceERKNSt7__cxx1112basic_stringIcSt11char_traitsIcESaIcEEERKNS1_3QoSERKNS1_29PublisherOptionsWithAllocatorIS7_EEEUlR35rmw_qos_incompatible_event_status_tE_St10shared_ptrI15rcl_publisher_tEEESaISY_ELN9__gnu_cxx12_Lock_policyE2EEEEaSEDn
FNDA:0,_ZNSt15__allocated_ptrISaISt23_Sp_counted_ptr_inplaceIN6rclcpp15QOSEventHandlerIZNS1_9PublisherIN8std_msgs3msg7String_ISaIvEEES7_EC4EPNS1_15node_interfaces17NodeBaseInterfaceERKNSt7__cxx1112basic_stringIcSt11char_traitsIcESaIcEEERKNS1_3QoSERKNS1_29PublisherOptionsWithAllocatorIS7_EEEUlR35rmw_qos_incompatible_event_status_tE_St10shared_ptrI15rcl_publisher_tEEESaISY_ELN9__gnu_cxx12_Lock_policyE2EEEEaSEDn
FN:78,_ZNSt15__allocated_ptrISaISt23_Sp_counted_ptr_inplaceIN8std_msgs3msg7String_ISaIvEEESaIS5_ELN9__gnu_cxx12_Lock_policyE2EEEEaSEDn
FNDA:0,_ZNSt15__allocated_ptrISaISt23_Sp_counted_ptr_inplaceIN8std_msgs3msg7String_ISaIvEEESaIS5_ELN9__gnu_cxx12_Lock_policyE2EEEEaSEDn
FN:78,_ZNSt15__allocated_ptrISaISt23_Sp_counted_ptr_inplaceISaIvESaIS1_ELN9__gnu_cxx12_Lock_policyE2EEEEaSEDn
FNDA:8,_ZNSt15__allocated_ptrISaISt23_Sp_counted_ptr_inplaceISaIvESaIS1_ELN9__gnu_cxx12_Lock_policyE2EEEEaSEDn
FN:78,_ZNSt15__allocated_ptrISaISt23_Sp_counted_ptr_inplaceISaIN8std_msgs3msg7String_ISaIvEEEESaIS6_ELN9__gnu_cxx12_Lock_policyE2EEEEaSEDn
FNDA:2,_ZNSt15__allocated_ptrISaISt23_Sp_counted_ptr_inplaceISaIN8std_msgs3msg7String_ISaIvEEEESaIS6_ELN9__gnu_cxx12_Lock_policyE2EEEEaSEDn
FN:78,_ZNSt15__allocated_ptrISaISt19_Sp_counted_deleterIPN6rclcpp12experimental19IntraProcessManagerEZNS1_7Context15get_sub_contextIS3_JEEESt10shared_ptrIT_EDpOT0_EUlS4_E_SaIvELN9__gnu_cxx12_Lock_policyE2EEEEaSEDn
FNDA:0,_ZNSt15__allocated_ptrISaISt19_Sp_counted_deleterIPN6rclcpp12experimental19IntraProcessManagerEZNS1_7Context15get_sub_contextIS3_JEEESt10shared_ptrIT_EDpOT0_EUlS4_E_SaIvELN9__gnu_cxx12_Lock_policyE2EEEEaSEDn
FN:85,_ZNSt15__allocated_ptrISaISt23_Sp_counted_ptr_inplaceIN6rclcpp15QOSEventHandlerISt8functionIFvR36rmw_offered_deadline_missed_status_tEESt10shared_ptrI15rcl_publisher_tEEESaISB_ELN9__gnu_cxx12_Lock_policyE2EEEE3getEv
FNDA:0,_ZNSt15__allocated_ptrISaISt23_Sp_counted_ptr_inplaceIN6rclcpp15QOSEventHandlerISt8functionIFvR36rmw_offered_deadline_missed_status_tEESt10shared_ptrI15rcl_publisher_tEEESaISB_ELN9__gnu_cxx12_Lock_policyE2EEEE3getEv
FN:85,_ZNSt15__allocated_ptrISaISt19_Sp_counted_deleterIPN6rclcpp12experimental19IntraProcessManagerEZNS1_7Context15get_sub_contextIS3_JEEESt10shared_ptrIT_EDpOT0_EUlS4_E_SaIvELN9__gnu_cxx12_Lock_policyE2EEEE3getEv
FNDA:0,_ZNSt15__allocated_ptrISaISt19_Sp_counted_deleterIPN6rclcpp12experimental19IntraProcessManagerEZNS1_7Context15get_sub_contextIS3_JEEESt10shared_ptrIT_EDpOT0_EUlS4_E_SaIvELN9__gnu_cxx12_Lock_policyE2EEEE3getEv
FN:85,_ZNSt15__allocated_ptrISaISt23_Sp_counted_ptr_inplaceIN6rclcpp4NodeESaIS2_ELN9__gnu_cxx12_Lock_policyE2EEEE3getEv
FNDA:4,_ZNSt15__allocated_ptrISaISt23_Sp_counted_ptr_inplaceIN6rclcpp4NodeESaIS2_ELN9__gnu_cxx12_Lock_policyE2EEEE3getEv
FN:85,_ZNSt15__allocated_ptrISaISt23_Sp_counted_ptr_inplaceIN6rclcpp9PublisherIN8std_msgs3msg7String_ISaIvEEES6_EESaIS8_ELN9__gnu_cxx12_Lock_policyE2EEEE3getEv
FNDA:2,_ZNSt15__allocated_ptrISaISt23_Sp_counted_ptr_inplaceIN6rclcpp9PublisherIN8std_msgs3msg7String_ISaIvEEES6_EESaIS8_ELN9__gnu_cxx12_Lock_policyE2EEEE3getEv
FN:85,_ZNSt15__allocated_ptrISaISt23_Sp_counted_ptr_inplaceISaIN8std_msgs3msg7String_ISaIvEEEESaIS6_ELN9__gnu_cxx12_Lock_policyE2EEEE3getEv
FNDA:2,_ZNSt15__allocated_ptrISaISt23_Sp_counted_ptr_inplaceISaIN8std_msgs3msg7String_ISaIvEEEESaIS6_ELN9__gnu_cxx12_Lock_policyE2EEEE3getEv
FN:85,_ZNSt15__allocated_ptrISaISt23_Sp_counted_ptr_inplaceISaIvESaIS1_ELN9__gnu_cxx12_Lock_policyE2EEEE3getEv
FNDA:8,_ZNSt15__allocated_ptrISaISt23_Sp_counted_ptr_inplaceISaIvESaIS1_ELN9__gnu_cxx12_Lock_policyE2EEEE3getEv
FN:85,_ZNSt15__allocated_ptrISaISt23_Sp_counted_ptr_inplaceIN6rclcpp15QOSEventHandlerISt8functionIFvR28rmw_liveliness_lost_status_tEESt10shared_ptrI15rcl_publisher_tEEESaISB_ELN9__gnu_cxx12_Lock_policyE2EEEE3getEv
FNDA:0,_ZNSt15__allocated_ptrISaISt23_Sp_counted_ptr_inplaceIN6rclcpp15QOSEventHandlerISt8functionIFvR28rmw_liveliness_lost_status_tEESt10shared_ptrI15rcl_publisher_tEEESaISB_ELN9__gnu_cxx12_Lock_policyE2EEEE3getEv
FN:85,_ZNSt15__allocated_ptrISaISt23_Sp_counted_ptr_inplaceIN6rclcpp15QOSEventHandlerISt8functionIFvR35rmw_qos_incompatible_event_status_tEESt10shared_ptrI15rcl_publisher_tEEESaISB_ELN9__gnu_cxx12_Lock_policyE2EEEE3getEv
FNDA:0,_ZNSt15__allocated_ptrISaISt23_Sp_counted_ptr_inplaceIN6rclcpp15QOSEventHandlerISt8functionIFvR35rmw_qos_incompatible_event_status_tEESt10shared_ptrI15rcl_publisher_tEEESaISB_ELN9__gnu_cxx12_Lock_policyE2EEEE3getEv
FN:85,_ZNSt15__allocated_ptrISaISt23_Sp_counted_ptr_inplaceIN6rclcpp15QOSEventHandlerIZNS1_9PublisherIN8std_msgs3msg7String_ISaIvEEES7_EC4EPNS1_15node_interfaces17NodeBaseInterfaceERKNSt7__cxx1112basic_stringIcSt11char_traitsIcESaIcEEERKNS1_3QoSERKNS1_29PublisherOptionsWithAllocatorIS7_EEEUlR35rmw_qos_incompatible_event_status_tE_St10shared_ptrI15rcl_publisher_tEEESaISY_ELN9__gnu_cxx12_Lock_policyE2EEEE3getEv
FNDA:2,_ZNSt15__allocated_ptrISaISt23_Sp_counted_ptr_inplaceIN6rclcpp15QOSEventHandlerIZNS1_9PublisherIN8std_msgs3msg7String_ISaIvEEES7_EC4EPNS1_15node_interfaces17NodeBaseInterfaceERKNSt7__cxx1112basic_stringIcSt11char_traitsIcESaIcEEERKNS1_3QoSERKNS1_29PublisherOptionsWithAllocatorIS7_EEEUlR35rmw_qos_incompatible_event_status_tE_St10shared_ptrI15rcl_publisher_tEEESaISY_ELN9__gnu_cxx12_Lock_policyE2EEEE3getEv
FN:85,_ZNSt15__allocated_ptrISaISt23_Sp_counted_ptr_inplaceIN8std_msgs3msg7String_ISaIvEEESaIS5_ELN9__gnu_cxx12_Lock_policyE2EEEE3getEv
FNDA:0,_ZNSt15__allocated_ptrISaISt23_Sp_counted_ptr_inplaceIN8std_msgs3msg7String_ISaIvEEESaIS5_ELN9__gnu_cxx12_Lock_policyE2EEEE3getEv
FN:95,_ZSt18__allocate_guardedISaISt23_Sp_counted_ptr_inplaceISaIN8std_msgs3msg7String_ISaIvEEEESaIS6_ELN9__gnu_cxx12_Lock_policyE2EEEESt15__allocated_ptrIT_ERSD_
FNDA:2,_ZSt18__allocate_guardedISaISt23_Sp_counted_ptr_inplaceISaIN8std_msgs3msg7String_ISaIvEEEESaIS6_ELN9__gnu_cxx12_Lock_policyE2EEEESt15__allocated_ptrIT_ERSD_
FN:95,_ZSt18__allocate_guardedISaISt23_Sp_counted_ptr_inplaceISaIvESaIS1_ELN9__gnu_cxx12_Lock_policyE2EEEESt15__allocated_ptrIT_ERS8_
FNDA:8,_ZSt18__allocate_guardedISaISt23_Sp_counted_ptr_inplaceISaIvESaIS1_ELN9__gnu_cxx12_Lock_policyE2EEEESt15__allocated_ptrIT_ERS8_
FN:95,_ZSt18__allocate_guardedISaISt23_Sp_counted_ptr_inplaceIN6rclcpp15QOSEventHandlerISt8functionIFvR36rmw_offered_deadline_missed_status_tEESt10shared_ptrI15rcl_publisher_tEEESaISB_ELN9__gnu_cxx12_Lock_policyE2EEEESt15__allocated_ptrIT_ERSI_
FNDA:0,_ZSt18__allocate_guardedISaISt23_Sp_counted_ptr_inplaceIN6rclcpp15QOSEventHandlerISt8functionIFvR36rmw_offered_deadline_missed_status_tEESt10shared_ptrI15rcl_publisher_tEEESaISB_ELN9__gnu_cxx12_Lock_policyE2EEEESt15__allocated_ptrIT_ERSI_
FN:95,_ZSt18__allocate_guardedISaISt19_Sp_counted_deleterIPN6rclcpp12experimental19IntraProcessManagerEZNS1_7Context15get_sub_contextIS3_JEEESt10shared_ptrIT_EDpOT0_EUlS4_E_SaIvELN9__gnu_cxx12_Lock_policyE2EEEESt15__allocated_ptrIS8_ERS8_
FNDA:0,_ZSt18__allocate_guardedISaISt19_Sp_counted_deleterIPN6rclcpp12experimental19IntraProcessManagerEZNS1_7Context15get_sub_contextIS3_JEEESt10shared_ptrIT_EDpOT0_EUlS4_E_SaIvELN9__gnu_cxx12_Lock_policyE2EEEESt15__allocated_ptrIS8_ERS8_
FN:95,_ZSt18__allocate_guardedISaISt23_Sp_counted_ptr_inplaceIN6rclcpp15QOSEventHandlerISt8functionIFvR28rmw_liveliness_lost_status_tEESt10shared_ptrI15rcl_publisher_tEEESaISB_ELN9__gnu_cxx12_Lock_policyE2EEEESt15__allocated_ptrIT_ERSI_
FNDA:0,_ZSt18__allocate_guardedISaISt23_Sp_counted_ptr_inplaceIN6rclcpp15QOSEventHandlerISt8functionIFvR28rmw_liveliness_lost_status_tEESt10shared_ptrI15rcl_publisher_tEEESaISB_ELN9__gnu_cxx12_Lock_policyE2EEEESt15__allocated_ptrIT_ERSI_
FN:95,_ZSt18__allocate_guardedISaISt23_Sp_counted_ptr_inplaceIN6rclcpp15QOSEventHandlerISt8functionIFvR35rmw_qos_incompatible_event_status_tEESt10shared_ptrI15rcl_publisher_tEEESaISB_ELN9__gnu_cxx12_Lock_policyE2EEEESt15__allocated_ptrIT_ERSI_
FNDA:0,_ZSt18__allocate_guardedISaISt23_Sp_counted_ptr_inplaceIN6rclcpp15QOSEventHandlerISt8functionIFvR35rmw_qos_incompatible_event_status_tEESt10shared_ptrI15rcl_publisher_tEEESaISB_ELN9__gnu_cxx12_Lock_policyE2EEEESt15__allocated_ptrIT_ERSI_
FN:95,_ZSt18__allocate_guardedISaISt23_Sp_counted_ptr_inplaceIN6rclcpp9PublisherIN8std_msgs3msg7String_ISaIvEEES6_EESaIS8_ELN9__gnu_cxx12_Lock_policyE2EEEESt15__allocated_ptrIT_ERSF_
FNDA:2,_ZSt18__allocate_guardedISaISt23_Sp_counted_ptr_inplaceIN6rclcpp9PublisherIN8std_msgs3msg7String_ISaIvEEES6_EESaIS8_ELN9__gnu_cxx12_Lock_policyE2EEEESt15__allocated_ptrIT_ERSF_
FN:95,_ZSt18__allocate_guardedISaISt23_Sp_counted_ptr_inplaceIN6rclcpp15QOSEventHandlerIZNS1_9PublisherIN8std_msgs3msg7String_ISaIvEEES7_EC4EPNS1_15node_interfaces17NodeBaseInterfaceERKNSt7__cxx1112basic_stringIcSt11char_traitsIcESaIcEEERKNS1_3QoSERKNS1_29PublisherOptionsWithAllocatorIS7_EEEUlR35rmw_qos_incompatible_event_status_tE_St10shared_ptrI15rcl_publisher_tEEESaISY_ELN9__gnu_cxx12_Lock_policyE2EEEESt15__allocated_ptrIT_ERS15_
FNDA:2,_ZSt18__allocate_guardedISaISt23_Sp_counted_ptr_inplaceIN6rclcpp15QOSEventHandlerIZNS1_9PublisherIN8std_msgs3msg7String_ISaIvEEES7_EC4EPNS1_15node_interfaces17NodeBaseInterfaceERKNSt7__cxx1112basic_stringIcSt11char_traitsIcESaIcEEERKNS1_3QoSERKNS1_29PublisherOptionsWithAllocatorIS7_EEEUlR35rmw_qos_incompatible_event_status_tE_St10shared_ptrI15rcl_publisher_tEEESaISY_ELN9__gnu_cxx12_Lock_policyE2EEEESt15__allocated_ptrIT_ERS15_
FN:95,_ZSt18__allocate_guardedISaISt23_Sp_counted_ptr_inplaceIN8std_msgs3msg7String_ISaIvEEESaIS5_ELN9__gnu_cxx12_Lock_policyE2EEEESt15__allocated_ptrIT_ERSC_
FNDA:0,_ZSt18__allocate_guardedISaISt23_Sp_counted_ptr_inplaceIN8std_msgs3msg7String_ISaIvEEESaIS5_ELN9__gnu_cxx12_Lock_policyE2EEEESt15__allocated_ptrIT_ERSC_
FN:95,_ZSt18__allocate_guardedISaISt23_Sp_counted_ptr_inplaceIN6rclcpp4NodeESaIS2_ELN9__gnu_cxx12_Lock_policyE2EEEESt15__allocated_ptrIT_ERS9_
FNDA:4,_ZSt18__allocate_guardedISaISt23_Sp_counted_ptr_inplaceIN6rclcpp4NodeESaIS2_ELN9__gnu_cxx12_Lock_policyE2EEEESt15__allocated_ptrIT_ERS9_
DA:52,0
DA:53,0
DA:54,0
DA:52,0
DA:53,0
DA:54,0
DA:52,2
DA:53,2
DA:54,2
DA:52,0
DA:53,0
DA:54,0
DA:52,0
DA:53,0
DA:54,0
DA:52,0
DA:53,0
DA:54,0
DA:52,36
DA:53,36
DA:54,36
DA:52,4
DA:53,4
DA:54,4
DA:52,0
DA:53,0
DA:54,0
DA:52,4
DA:53,4
DA:54,4
DA:52,8
DA:53,8
DA:54,8
DA:70,0
DA:72,0
DA:73,0
DA:74,0
DA:70,0
DA:72,0
DA:73,0
DA:74,0
DA:70,2
DA:72,2
DA:73,2
DA:74,2
DA:70,0
DA:72,0
DA:73,0
DA:74,0
DA:70,0
DA:72,0
DA:73,0
DA:74,0
DA:70,0
DA:72,0
DA:73,0
DA:74,0
DA:70,36
DA:72,36
DA:73,28
DA:74,36
DA:70,4
DA:72,4
DA:73,2
DA:74,4
DA:70,0
DA:72,0
DA:73,0
DA:74,0
DA:70,4
DA:72,4
DA:73,2
DA:74,4
DA:70,8
DA:72,8
DA:73,4
DA:74,8
DA:78,0
DA:80,0
DA:81,0
DA:78,0
DA:80,0
DA:81,0
DA:78,0
DA:80,0
DA:81,0
DA:78,0
DA:80,0
DA:81,0
DA:78,0
DA:80,0
DA:81,0
DA:78,8
DA:80,8
DA:81,8
DA:78,2
DA:80,2
DA:81,2
DA:78,0
DA:80,0
DA:81,0
DA:78,2
DA:80,2
DA:81,2
DA:78,4
DA:80,4
DA:81,4
DA:85,0
DA:85,2
DA:85,0
DA:85,0
DA:85,0
DA:85,8
DA:85,2
DA:85,0
DA:85,2
DA:85,4
DA:95,0
DA:97,0
DA:95,2
DA:97,2
DA:95,0
DA:97,0
DA:95,0
DA:97,0
DA:95,0
DA:97,0
DA:95,8
DA:97,8
DA:95,2
DA:97,2
DA:95,0
DA:97,0
DA:95,2
DA:97,2
DA:95,4
DA:97,4
end_of_record
SF:/opt/ros/foxy/include/rclcpp/logger.hpp
FN:112,_ZNK6rclcpp6Logger8get_nameEv
FNDA:0,_ZNK6rclcpp6Logger8get_nameEv
DA:112,0
DA:114,0
DA:115,0
DA:117,0
end_of_record
SF:/opt/ros/foxy/include/rclcpp/parameter_value.hpp
end_of_record
SF:/usr/include/c++/9/bits/stl_bvector.h
FN:148,_ZNSt18_Bit_iterator_baseC2EPmj
FNDA:0,_ZNSt18_Bit_iterator_baseC2EPmj
FN:226,_ZNSt13_Bit_iteratorC2Ev
FNDA:0,_ZNSt13_Bit_iteratorC2Ev
FN:465,_ZNSt13_Bvector_baseISaIbEE18_Bvector_impl_data8_M_resetEv
FNDA:0,_ZNSt13_Bvector_baseISaIbEE18_Bvector_impl_data8_M_resetEv
FN:490,_ZNKSt13_Bvector_baseISaIbEE13_Bvector_impl11_M_end_addrEv
FNDA:0,_ZNKSt13_Bvector_baseISaIbEE13_Bvector_impl11_M_end_addrEv
FN:526,_ZNSt13_Bvector_baseISaIbEED2Ev
FNDA:40,_ZNSt13_Bvector_baseISaIbEED2Ev
FN:537,_ZNSt13_Bvector_baseISaIbEE13_M_deallocateEv
FNDA:40,_ZNSt13_Bvector_baseISaIbEE13_M_deallocateEv
FN:714,_ZNSt6vectorIbSaIbEED2Ev
FNDA:40,_ZNSt6vectorIbSaIbEED2Ev
DA:148,0
DA:149,0
DA:226,0
DA:465,0
DA:467,0
DA:468,0
DA:469,0
DA:490,0
DA:492,0
DA:493,0
DA:494,0
DA:526,40
DA:527,40
DA:537,40
DA:539,40
DA:541,0
DA:542,0
DA:543,0
DA:545,0
DA:547,40
DA:714,40
end_of_record
SF:/opt/ros/foxy/include/rclcpp/waitable.hpp
end_of_record
SF:/usr/include/c++/9/bits/std_function.h
FN:87,_ZNSt9_Any_data9_M_accessEv
FNDA:8,_ZNSt9_Any_data9_M_accessEv
FN:88,_ZNKSt9_Any_data9_M_accessEv
FNDA:4,_ZNKSt9_Any_data9_M_accessEv
FN:92,_ZNSt9_Any_data9_M_accessIPKSt9type_infoEERT_v
FNDA:0,_ZNSt9_Any_data9_M_accessIPKSt9type_infoEERT_v
FN:92,_ZNSt9_Any_data9_M_accessIPZN6rclcpp24create_publisher_factoryIN8std_msgs3msg7String_ISaIvEEES6_NS1_9PublisherIS7_S6_EEEENS1_16PublisherFactoryERKNS1_29PublisherOptionsWithAllocatorIT0_EEEUlPNS1_15node_interfaces17NodeBaseInterfaceERKNSt7__cxx1112basic_stringIcSt11char_traitsIcESaIcEEERKNS1_3QoSEE_EERT_v
FNDA:4,_ZNSt9_Any_data9_M_accessIPZN6rclcpp24create_publisher_factoryIN8std_msgs3msg7String_ISaIvEEES6_NS1_9PublisherIS7_S6_EEEENS1_16PublisherFactoryERKNS1_29PublisherOptionsWithAllocatorIT0_EEEUlPNS1_15node_interfaces17NodeBaseInterfaceERKNSt7__cxx1112basic_stringIcSt11char_traitsIcESaIcEEERKNS1_3QoSEE_EERT_v
FN:97,_ZNKSt9_Any_data9_M_accessIPKZN6rclcpp24create_publisher_factoryIN8std_msgs3msg7String_ISaIvEEES6_NS1_9PublisherIS7_S6_EEEENS1_16PublisherFactoryERKNS1_29PublisherOptionsWithAllocatorIT0_EEEUlPNS1_15node_interfaces17NodeBaseInterfaceERKNSt7__cxx1112basic_stringIcSt11char_traitsIcESaIcEEERKNS1_3QoSEE_EERKT_v
FNDA:0,_ZNKSt9_Any_data9_M_accessIPKZN6rclcpp24create_publisher_factoryIN8std_msgs3msg7String_ISaIvEEES6_NS1_9PublisherIS7_S6_EEEENS1_16PublisherFactoryERKNS1_29PublisherOptionsWithAllocatorIT0_EEEUlPNS1_15node_interfaces17NodeBaseInterfaceERKNSt7__cxx1112basic_stringIcSt11char_traitsIcESaIcEEERKNS1_3QoSEE_EERKT_v
FN:97,_ZNKSt9_Any_data9_M_accessIPZN6rclcpp24create_publisher_factoryIN8std_msgs3msg7String_ISaIvEEES6_NS1_9PublisherIS7_S6_EEEENS1_16PublisherFactoryERKNS1_29PublisherOptionsWithAllocatorIT0_EEEUlPNS1_15node_interfaces17NodeBaseInterfaceERKNSt7__cxx1112basic_stringIcSt11char_traitsIcESaIcEEERKNS1_3QoSEE_EERKT_v
FNDA:2,_ZNKSt9_Any_data9_M_accessIPZN6rclcpp24create_publisher_factoryIN8std_msgs3msg7String_ISaIvEEES6_NS1_9PublisherIS7_S6_EEEENS1_16PublisherFactoryERKNS1_29PublisherOptionsWithAllocatorIT0_EEEUlPNS1_15node_interfaces17NodeBaseInterfaceERKNSt7__cxx1112basic_stringIcSt11char_traitsIcESaIcEEERKNS1_3QoSEE_EERKT_v
FN:151,_ZNSt14_Function_base13_Base_managerIZN6rclcpp24create_publisher_factoryIN8std_msgs3msg7String_ISaIvEEES6_NS1_9PublisherIS7_S6_EEEENS1_16PublisherFactoryERKNS1_29PublisherOptionsWithAllocatorIT0_EEEUlPNS1_15node_interfaces17NodeBaseInterfaceERKNSt7__cxx1112basic_stringIcSt11char_traitsIcESaIcEEERKNS1_3QoSEE_E14_M_get_pointerERKSt9_Any_data
FNDA:2,_ZNSt14_Function_base13_Base_managerIZN6rclcpp24create_publisher_factoryIN8std_msgs3msg7String_ISaIvEEES6_NS1_9PublisherIS7_S6_EEEENS1_16PublisherFactoryERKNS1_29PublisherOptionsWithAllocatorIT0_EEEUlPNS1_15node_interfaces17NodeBaseInterfaceERKNSt7__cxx1112basic_stringIcSt11char_traitsIcESaIcEEERKNS1_3QoSEE_E14_M_get_pointerERKSt9_Any_data
FN:173,_ZNSt14_Function_base13_Base_managerIZN6rclcpp24create_publisher_factoryIN8std_msgs3msg7String_ISaIvEEES6_NS1_9PublisherIS7_S6_EEEENS1_16PublisherFactoryERKNS1_29PublisherOptionsWithAllocatorIT0_EEEUlPNS1_15node_interfaces17NodeBaseInterfaceERKNSt7__cxx1112basic_stringIcSt11char_traitsIcESaIcEEERKNS1_3QoSEE_E8_M_cloneERSt9_Any_dataRKSW_St17integral_constantIbLb0EE
FNDA:0,_ZNSt14_Function_base13_Base_managerIZN6rclcpp24create_publisher_factoryIN8std_msgs3msg7String_ISaIvEEES6_NS1_9PublisherIS7_S6_EEEENS1_16PublisherFactoryERKNS1_29PublisherOptionsWithAllocatorIT0_EEEUlPNS1_15node_interfaces17NodeBaseInterfaceERKNSt7__cxx1112basic_stringIcSt11char_traitsIcESaIcEEERKNS1_3QoSEE_E8_M_cloneERSt9_Any_dataRKSW_St17integral_constantIbLb0EE
FN:189,_ZNSt14_Function_base13_Base_managerIZN6rclcpp24create_publisher_factoryIN8std_msgs3msg7String_ISaIvEEES6_NS1_9PublisherIS7_S6_EEEENS1_16PublisherFactoryERKNS1_29PublisherOptionsWithAllocatorIT0_EEEUlPNS1_15node_interfaces17NodeBaseInterfaceERKNSt7__cxx1112basic_stringIcSt11char_traitsIcESaIcEEERKNS1_3QoSEE_E10_M_destroyERSt9_Any_dataSt17integral_constantIbLb0EE
FNDA:2,_ZNSt14_Function_base13_Base_managerIZN6rclcpp24create_publisher_factoryIN8std_msgs3msg7String_ISaIvEEES6_NS1_9PublisherIS7_S6_EEEENS1_16PublisherFactoryERKNS1_29PublisherOptionsWithAllocatorIT0_EEEUlPNS1_15node_interfaces17NodeBaseInterfaceERKNSt7__cxx1112basic_stringIcSt11char_traitsIcESaIcEEERKNS1_3QoSEE_E10_M_destroyERSt9_Any_dataSt17integral_constantIbLb0EE
FN:196,_ZNSt14_Function_base13_Base_managerIZN6rclcpp24create_publisher_factoryIN8std_msgs3msg7String_ISaIvEEES6_NS1_9PublisherIS7_S6_EEEENS1_16PublisherFactoryERKNS1_29PublisherOptionsWithAllocatorIT0_EEEUlPNS1_15node_interfaces17NodeBaseInterfaceERKNSt7__cxx1112basic_stringIcSt11char_traitsIcESaIcEEERKNS1_3QoSEE_E10_M_managerERSt9_Any_dataRKSW_St18_Manager_operation
FNDA:2,_ZNSt14_Function_base13_Base_managerIZN6rclcpp24create_publisher_factoryIN8std_msgs3msg7String_ISaIvEEES6_NS1_9PublisherIS7_S6_EEEENS1_16PublisherFactoryERKNS1_29PublisherOptionsWithAllocatorIT0_EEEUlPNS1_15node_interfaces17NodeBaseInterfaceERKNSt7__cxx1112basic_stringIcSt11char_traitsIcESaIcEEERKNS1_3QoSEE_E10_M_managerERSt9_Any_dataRKSW_St18_Manager_operation
FN:222,_ZNSt14_Function_base13_Base_managerIZN6rclcpp24create_publisher_factoryIN8std_msgs3msg7String_ISaIvEEES6_NS1_9PublisherIS7_S6_EEEENS1_16PublisherFactoryERKNS1_29PublisherOptionsWithAllocatorIT0_EEEUlPNS1_15node_interfaces17NodeBaseInterfaceERKNSt7__cxx1112basic_stringIcSt11char_traitsIcESaIcEEERKNS1_3QoSEE_E15_M_init_functorERSt9_Any_dataOSU_
FNDA:2,_ZNSt14_Function_base13_Base_managerIZN6rclcpp24create_publisher_factoryIN8std_msgs3msg7String_ISaIvEEES6_NS1_9PublisherIS7_S6_EEEENS1_16PublisherFactoryERKNS1_29PublisherOptionsWithAllocatorIT0_EEEUlPNS1_15node_interfaces17NodeBaseInterfaceERKNSt7__cxx1112basic_stringIcSt11char_traitsIcESaIcEEERKNS1_3QoSEE_E15_M_init_functorERSt9_Any_dataOSU_
FN:242,_ZNSt14_Function_base13_Base_managerIZN6rclcpp24create_publisher_factoryIN8std_msgs3msg7String_ISaIvEEES6_NS1_9PublisherIS7_S6_EEEENS1_16PublisherFactoryERKNS1_29PublisherOptionsWithAllocatorIT0_EEEUlPNS1_15node_interfaces17NodeBaseInterfaceERKNSt7__cxx1112basic_stringIcSt11char_traitsIcESaIcEEERKNS1_3QoSEE_E21_M_not_empty_functionISU_EEbRKT_
FNDA:2,_ZNSt14_Function_base13_Base_managerIZN6rclcpp24create_publisher_factoryIN8std_msgs3msg7String_ISaIvEEES6_NS1_9PublisherIS7_S6_EEEENS1_16PublisherFactoryERKNS1_29PublisherOptionsWithAllocatorIT0_EEEUlPNS1_15node_interfaces17NodeBaseInterfaceERKNSt7__cxx1112basic_stringIcSt11char_traitsIcESaIcEEERKNS1_3QoSEE_E21_M_not_empty_functionISU_EEbRKT_
FN:251,_ZNSt14_Function_base13_Base_managerIZN6rclcpp24create_publisher_factoryIN8std_msgs3msg7String_ISaIvEEES6_NS1_9PublisherIS7_S6_EEEENS1_16PublisherFactoryERKNS1_29PublisherOptionsWithAllocatorIT0_EEEUlPNS1_15node_interfaces17NodeBaseInterfaceERKNSt7__cxx1112basic_stringIcSt11char_traitsIcESaIcEEERKNS1_3QoSEE_E15_M_init_functorERSt9_Any_dataOSU_St17integral_constantIbLb0EE
FNDA:2,_ZNSt14_Function_base13_Base_managerIZN6rclcpp24create_publisher_factoryIN8std_msgs3msg7String_ISaIvEEES6_NS1_9PublisherIS7_S6_EEEENS1_16PublisherFactoryERKNS1_29PublisherOptionsWithAllocatorIT0_EEEUlPNS1_15node_interfaces17NodeBaseInterfaceERKNSt7__cxx1112basic_stringIcSt11char_traitsIcESaIcEEERKNS1_3QoSEE_E15_M_init_functorERSt9_Any_dataOSU_St17integral_constantIbLb0EE
FN:255,_ZNSt14_Function_baseC2Ev
FNDA:157,_ZNSt14_Function_baseC2Ev
FN:257,_ZNSt14_Function_baseD2Ev
FNDA:97,_ZNSt14_Function_baseD2Ev
FN:263,_ZNKSt14_Function_base8_M_emptyEv
FNDA:153,_ZNKSt14_Function_base8_M_emptyEv
FN:283,_ZNSt17_Function_handlerIFSt10shared_ptrIN6rclcpp13PublisherBaseEEPNS1_15node_interfaces17NodeBaseInterfaceERKNSt7__cxx1112basic_stringIcSt11char_traitsIcESaIcEEERKNS1_3QoSEEZNS1_24create_publisher_factoryIN8std_msgs3msg7String_ISaIvEEESN_NS1_9PublisherISO_SN_EEEENS1_16PublisherFactoryERKNS1_29PublisherOptionsWithAllocatorIT0_EEEUlS6_SE_SH_E_E9_M_invokeERKSt9_Any_dataOS6_SE_SH_
FNDA:2,_ZNSt17_Function_handlerIFSt10shared_ptrIN6rclcpp13PublisherBaseEEPNS1_15node_interfaces17NodeBaseInterfaceERKNSt7__cxx1112basic_stringIcSt11char_traitsIcESaIcEEERKNS1_3QoSEEZNS1_24create_publisher_factoryIN8std_msgs3msg7String_ISaIvEEESN_NS1_9PublisherISO_SN_EEEENS1_16PublisherFactoryERKNS1_29PublisherOptionsWithAllocatorIT0_EEEUlS6_SE_SH_E_E9_M_invokeERKSt9_Any_dataOS6_SE_SH_
FN:396,_ZNSt8functionIFvR36rmw_offered_deadline_missed_status_tEEC2Ev
FNDA:4,_ZNSt8functionIFvR36rmw_offered_deadline_missed_status_tEEC2Ev
FN:396,_ZNSt8functionIFvR28rmw_liveliness_lost_status_tEEC2Ev
FNDA:4,_ZNSt8functionIFvR28rmw_liveliness_lost_status_tEEC2Ev
FN:396,_ZNSt8functionIFvR35rmw_qos_incompatible_event_status_tEEC2Ev
FNDA:4,_ZNSt8functionIFvR35rmw_qos_incompatible_event_status_tEEC2Ev
FN:564,_ZNKSt8functionIFvR28rmw_liveliness_lost_status_tEEcvbEv
FNDA:36,_ZNKSt8functionIFvR28rmw_liveliness_lost_status_tEEcvbEv
FN:564,_ZNKSt8functionIFvR36rmw_offered_deadline_missed_status_tEEcvbEv
FNDA:36,_ZNKSt8functionIFvR36rmw_offered_deadline_missed_status_tEEcvbEv
FN:564,_ZNKSt8functionIFvR35rmw_qos_incompatible_event_status_tEEcvbEv
FNDA:51,_ZNKSt8functionIFvR35rmw_qos_incompatible_event_status_tEEcvbEv
FN:653,_ZNSt8functionIFvR36rmw_offered_deadline_missed_status_tEEC2ERKS3_
FNDA:32,_ZNSt8functionIFvR36rmw_offered_deadline_missed_status_tEEC2ERKS3_
FN:653,_ZNSt8functionIFvR28rmw_liveliness_lost_status_tEEC2ERKS3_
FNDA:32,_ZNSt8functionIFvR28rmw_liveliness_lost_status_tEEC2ERKS3_
FN:653,_ZNSt8functionIFvR35rmw_qos_incompatible_event_status_tEEC2ERKS3_
FNDA:47,_ZNSt8functionIFvR35rmw_qos_incompatible_event_status_tEEC2ERKS3_
FN:667,_ZNSt8functionIFSt10shared_ptrIN6rclcpp13PublisherBaseEEPNS1_15node_interfaces17NodeBaseInterfaceERKNSt7__cxx1112basic_stringIcSt11char_traitsIcESaIcEEERKNS1_3QoSEEEC2IZNS1_24create_publisher_factoryIN8std_msgs3msg7String_ISaIvEEESP_NS1_9PublisherISQ_SP_EEEENS1_16PublisherFactoryERKNS1_29PublisherOptionsWithAllocatorIT0_EEEUlS6_SE_SH_E_vvEET_
FNDA:2,_ZNSt8functionIFSt10shared_ptrIN6rclcpp13PublisherBaseEEPNS1_15node_interfaces17NodeBaseInterfaceERKNSt7__cxx1112basic_stringIcSt11char_traitsIcESaIcEEERKNS1_3QoSEEEC2IZNS1_24create_publisher_factoryIN8std_msgs3msg7String_ISaIvEEESP_NS1_9PublisherISQ_SP_EEEENS1_16PublisherFactoryERKNS1_29PublisherOptionsWithAllocatorIT0_EEEUlS6_SE_SH_E_vvEET_
FN:683,_ZNKSt8functionIFvR36rmw_offered_deadline_missed_status_tEEclES1_
FNDA:0,_ZNKSt8functionIFvR36rmw_offered_deadline_missed_status_tEEclES1_
FN:683,_ZNKSt8functionIFvR35rmw_qos_incompatible_event_status_tEEclES1_
FNDA:0,_ZNKSt8functionIFvR35rmw_qos_incompatible_event_status_tEEclES1_
FN:683,_ZNKSt8functionIFvR28rmw_liveliness_lost_status_tEEclES1_
FNDA:0,_ZNKSt8functionIFvR28rmw_liveliness_lost_status_tEEclES1_
DA:87,8
DA:88,4
DA:92,4
DA:93,4
DA:92,0
DA:93,0
DA:97,0
DA:98,0
DA:97,2
DA:98,2
DA:151,2
DA:159,2
DA:173,0
DA:175,0
DA:176,0
DA:177,0
DA:189,2
DA:191,2
DA:192,2
DA:196,2
DA:199,2
DA:202,0
DA:203,0
DA:204,0
DA:206,0
DA:207,0
DA:208,0
DA:210,0
DA:211,0
DA:212,0
DA:214,2
DA:215,2
DA:216,2
DA:218,2
DA:222,2
DA:223,2
DA:242,2
DA:243,2
DA:251,2
DA:252,2
DA:255,157
DA:257,97
DA:258,97
DA:259,97
DA:260,4
DA:261,97
DA:263,153
DA:283,2
DA:286,2
DA:396,4
DA:397,4
DA:396,4
DA:397,4
DA:396,4
DA:397,4
DA:564,51
DA:565,51
DA:564,36
DA:565,36
DA:564,36
DA:565,36
DA:653,47
DA:655,47
DA:657,47
DA:659,0
DA:660,0
DA:661,0
DA:663,47
DA:653,32
DA:655,32
DA:657,32
DA:659,0
DA:660,0
DA:661,0
DA:663,32
DA:653,32
DA:655,32
DA:657,32
DA:659,0
DA:660,0
DA:661,0
DA:663,32
DA:667,2
DA:669,2
DA:673,2
DA:675,2
DA:676,2
DA:677,2
DA:679,2
DA:683,0
DA:686,0
DA:687,0
DA:688,0
DA:683,0
DA:686,0
DA:687,0
DA:688,0
DA:683,0
DA:686,0
DA:687,0
DA:688,0
end_of_record
SF:/usr/include/c++/9/bits/unordered_map.h
FN:347,_ZNSt13unordered_mapImN6rclcpp12experimental19IntraProcessManager16SubscriptionInfoESt4hashImESt8equal_toImESaISt4pairIKmS3_EEE3endEv
FNDA:0,_ZNSt13unordered_mapImN6rclcpp12experimental19IntraProcessManager16SubscriptionInfoESt4hashImESt8equal_toImESaISt4pairIKmS3_EEE3endEv
FN:347,_ZNSt13unordered_mapImN6rclcpp12experimental19IntraProcessManager21SplittedSubscriptionsESt4hashImESt8equal_toImESaISt4pairIKmS3_EEE3endEv
FNDA:0,_ZNSt13unordered_mapImN6rclcpp12experimental19IntraProcessManager21SplittedSubscriptionsESt4hashImESt8equal_toImESaISt4pairIKmS3_EEE3endEv
FN:347,_ZNSt13unordered_mapISt10type_indexSt10shared_ptrIvESt4hashIS0_ESt8equal_toIS0_ESaISt4pairIKS0_S2_EEE3endEv
FNDA:0,_ZNSt13unordered_mapISt10type_indexSt10shared_ptrIvESt4hashIS0_ESt8equal_toIS0_ESaISt4pairIKS0_S2_EEE3endEv
FN:921,_ZNSt13unordered_mapImN6rclcpp12experimental19IntraProcessManager16SubscriptionInfoESt4hashImESt8equal_toImESaISt4pairIKmS3_EEE4findERS9_
FNDA:0,_ZNSt13unordered_mapImN6rclcpp12experimental19IntraProcessManager16SubscriptionInfoESt4hashImESt8equal_toImESaISt4pairIKmS3_EEE4findERS9_
FN:921,_ZNSt13unordered_mapImN6rclcpp12experimental19IntraProcessManager21SplittedSubscriptionsESt4hashImESt8equal_toImESaISt4pairIKmS3_EEE4findERS9_
FNDA:0,_ZNSt13unordered_mapImN6rclcpp12experimental19IntraProcessManager21SplittedSubscriptionsESt4hashImESt8equal_toImESaISt4pairIKmS3_EEE4findERS9_
FN:921,_ZNSt13unordered_mapISt10type_indexSt10shared_ptrIvESt4hashIS0_ESt8equal_toIS0_ESaISt4pairIKS0_S2_EEE4findERS8_
FNDA:0,_ZNSt13unordered_mapISt10type_indexSt10shared_ptrIvESt4hashIS0_ESt8equal_toIS0_ESaISt4pairIKS0_S2_EEE4findERS8_
FN:985,_ZNSt13unordered_mapISt10type_indexSt10shared_ptrIvESt4hashIS0_ESt8equal_toIS0_ESaISt4pairIKS0_S2_EEEixERS8_
FNDA:0,_ZNSt13unordered_mapISt10type_indexSt10shared_ptrIvESt4hashIS0_ESt8equal_toIS0_ESaISt4pairIKS0_S2_EEEixERS8_
DA:347,0
DA:348,0
DA:347,0
DA:348,0
DA:347,0
DA:348,0
DA:921,0
DA:922,0
DA:921,0
DA:922,0
DA:921,0
DA:922,0
DA:985,0
DA:986,0
end_of_record
SF:/usr/include/c++/9/ext/aligned_buffer.h
FN:102,_ZN9__gnu_cxx16__aligned_bufferIN6rclcpp9PublisherIN8std_msgs3msg7String_ISaIvEEES6_EEE7_M_addrEv
FNDA:6,_ZN9__gnu_cxx16__aligned_bufferIN6rclcpp9PublisherIN8std_msgs3msg7String_ISaIvEEES6_EEE7_M_addrEv
FN:102,_ZN9__gnu_cxx16__aligned_bufferISaIN8std_msgs3msg7String_ISaIvEEEEE7_M_addrEv
FNDA:6,_ZN9__gnu_cxx16__aligned_bufferISaIN8std_msgs3msg7String_ISaIvEEEEE7_M_addrEv
FN:102,_ZN9__gnu_cxx16__aligned_bufferIN8std_msgs3msg7String_ISaIvEEEE7_M_addrEv
FNDA:0,_ZN9__gnu_cxx16__aligned_bufferIN8std_msgs3msg7String_ISaIvEEEE7_M_addrEv
FN:102,_ZN9__gnu_cxx16__aligned_bufferIN6rclcpp4NodeEE7_M_addrEv
FNDA:12,_ZN9__gnu_cxx16__aligned_bufferIN6rclcpp4NodeEE7_M_addrEv
FN:102,_ZN9__gnu_cxx16__aligned_bufferISt4pairIKmN6rclcpp12experimental19IntraProcessManager16SubscriptionInfoEEE7_M_addrEv
FNDA:0,_ZN9__gnu_cxx16__aligned_bufferISt4pairIKmN6rclcpp12experimental19IntraProcessManager16SubscriptionInfoEEE7_M_addrEv
FN:102,_ZN9__gnu_cxx16__aligned_bufferISt4pairIKSt10type_indexSt10shared_ptrIvEEE7_M_addrEv
FNDA:5,_ZN9__gnu_cxx16__aligned_bufferISt4pairIKSt10type_indexSt10shared_ptrIvEEE7_M_addrEv
FN:102,_ZN9__gnu_cxx16__aligned_bufferISt4pairIKmN6rclcpp12experimental19IntraProcessManager21SplittedSubscriptionsEEE7_M_addrEv
FNDA:0,_ZN9__gnu_cxx16__aligned_bufferISt4pairIKmN6rclcpp12experimental19IntraProcessManager21SplittedSubscriptionsEEE7_M_addrEv
FN:102,_ZN9__gnu_cxx16__aligned_bufferISaIvEE7_M_addrEv
FNDA:44,_ZN9__gnu_cxx16__aligned_bufferISaIvEE7_M_addrEv
FN:102,_ZN9__gnu_cxx16__aligned_bufferIN6rclcpp15QOSEventHandlerIZNS1_9PublisherIN8std_msgs3msg7String_ISaIvEEES7_EC4EPNS1_15node_interfaces17NodeBaseInterfaceERKNSt7__cxx1112basic_stringIcSt11char_traitsIcESaIcEEERKNS1_3QoSERKNS1_29PublisherOptionsWithAllocatorIS7_EEEUlR35rmw_qos_incompatible_event_status_tE_St10shared_ptrI15rcl_publisher_tEEEE7_M_addrEv
FNDA:2,_ZN9__gnu_cxx16__aligned_bufferIN6rclcpp15QOSEventHandlerIZNS1_9PublisherIN8std_msgs3msg7String_ISaIvEEES7_EC4EPNS1_15node_interfaces17NodeBaseInterfaceERKNSt7__cxx1112basic_stringIcSt11char_traitsIcESaIcEEERKNS1_3QoSERKNS1_29PublisherOptionsWithAllocatorIS7_EEEUlR35rmw_qos_incompatible_event_status_tE_St10shared_ptrI15rcl_publisher_tEEEE7_M_addrEv
FN:102,_ZN9__gnu_cxx16__aligned_bufferIN6rclcpp15QOSEventHandlerISt8functionIFvR35rmw_qos_incompatible_event_status_tEESt10shared_ptrI15rcl_publisher_tEEEE7_M_addrEv
FNDA:0,_ZN9__gnu_cxx16__aligned_bufferIN6rclcpp15QOSEventHandlerISt8functionIFvR35rmw_qos_incompatible_event_status_tEESt10shared_ptrI15rcl_publisher_tEEEE7_M_addrEv
FN:102,_ZN9__gnu_cxx16__aligned_bufferIN6rclcpp15QOSEventHandlerISt8functionIFvR28rmw_liveliness_lost_status_tEESt10shared_ptrI15rcl_publisher_tEEEE7_M_addrEv
FNDA:0,_ZN9__gnu_cxx16__aligned_bufferIN6rclcpp15QOSEventHandlerISt8functionIFvR28rmw_liveliness_lost_status_tEESt10shared_ptrI15rcl_publisher_tEEEE7_M_addrEv
FN:102,_ZN9__gnu_cxx16__aligned_bufferIN6rclcpp15QOSEventHandlerISt8functionIFvR36rmw_offered_deadline_missed_status_tEESt10shared_ptrI15rcl_publisher_tEEEE7_M_addrEv
FNDA:0,_ZN9__gnu_cxx16__aligned_bufferIN6rclcpp15QOSEventHandlerISt8functionIFvR36rmw_offered_deadline_missed_status_tEESt10shared_ptrI15rcl_publisher_tEEEE7_M_addrEv
FN:108,_ZNK9__gnu_cxx16__aligned_bufferISt4pairIKmN6rclcpp12experimental19IntraProcessManager16SubscriptionInfoEEE7_M_addrEv
FNDA:0,_ZNK9__gnu_cxx16__aligned_bufferISt4pairIKmN6rclcpp12experimental19IntraProcessManager16SubscriptionInfoEEE7_M_addrEv
FN:108,_ZNK9__gnu_cxx16__aligned_bufferISt4pairIKSt10type_indexSt10shared_ptrIvEEE7_M_addrEv
FNDA:0,_ZNK9__gnu_cxx16__aligned_bufferISt4pairIKSt10type_indexSt10shared_ptrIvEEE7_M_addrEv
FN:108,_ZNK9__gnu_cxx16__aligned_bufferISt4pairIKmN6rclcpp12experimental19IntraProcessManager21SplittedSubscriptionsEEE7_M_addrEv
FNDA:0,_ZNK9__gnu_cxx16__aligned_bufferISt4pairIKmN6rclcpp12experimental19IntraProcessManager21SplittedSubscriptionsEEE7_M_addrEv
FN:114,_ZN9__gnu_cxx16__aligned_bufferIN6rclcpp9PublisherIN8std_msgs3msg7String_ISaIvEEES6_EEE6_M_ptrEv
FNDA:6,_ZN9__gnu_cxx16__aligned_bufferIN6rclcpp9PublisherIN8std_msgs3msg7String_ISaIvEEES6_EEE6_M_ptrEv
FN:114,_ZN9__gnu_cxx16__aligned_bufferISt4pairIKSt10type_indexSt10shared_ptrIvEEE6_M_ptrEv
FNDA:5,_ZN9__gnu_cxx16__aligned_bufferISt4pairIKSt10type_indexSt10shared_ptrIvEEE6_M_ptrEv
FN:114,_ZN9__gnu_cxx16__aligned_bufferIN6rclcpp4NodeEE6_M_ptrEv
FNDA:12,_ZN9__gnu_cxx16__aligned_bufferIN6rclcpp4NodeEE6_M_ptrEv
FN:114,_ZN9__gnu_cxx16__aligned_bufferISaIN8std_msgs3msg7String_ISaIvEEEEE6_M_ptrEv
FNDA:6,_ZN9__gnu_cxx16__aligned_bufferISaIN8std_msgs3msg7String_ISaIvEEEEE6_M_ptrEv
FN:114,_ZN9__gnu_cxx16__aligned_bufferISaIvEE6_M_ptrEv
FNDA:44,_ZN9__gnu_cxx16__aligned_bufferISaIvEE6_M_ptrEv
FN:114,_ZN9__gnu_cxx16__aligned_bufferIN6rclcpp15QOSEventHandlerISt8functionIFvR36rmw_offered_deadline_missed_status_tEESt10shared_ptrI15rcl_publisher_tEEEE6_M_ptrEv
FNDA:0,_ZN9__gnu_cxx16__aligned_bufferIN6rclcpp15QOSEventHandlerISt8functionIFvR36rmw_offered_deadline_missed_status_tEESt10shared_ptrI15rcl_publisher_tEEEE6_M_ptrEv
FN:114,_ZN9__gnu_cxx16__aligned_bufferIN6rclcpp15QOSEventHandlerISt8functionIFvR28rmw_liveliness_lost_status_tEESt10shared_ptrI15rcl_publisher_tEEEE6_M_ptrEv
FNDA:0,_ZN9__gnu_cxx16__aligned_bufferIN6rclcpp15QOSEventHandlerISt8functionIFvR28rmw_liveliness_lost_status_tEESt10shared_ptrI15rcl_publisher_tEEEE6_M_ptrEv
FN:114,_ZN9__gnu_cxx16__aligned_bufferIN6rclcpp15QOSEventHandlerISt8functionIFvR35rmw_qos_incompatible_event_status_tEESt10shared_ptrI15rcl_publisher_tEEEE6_M_ptrEv
FNDA:0,_ZN9__gnu_cxx16__aligned_bufferIN6rclcpp15QOSEventHandlerISt8functionIFvR35rmw_qos_incompatible_event_status_tEESt10shared_ptrI15rcl_publisher_tEEEE6_M_ptrEv
FN:114,_ZN9__gnu_cxx16__aligned_bufferIN6rclcpp15QOSEventHandlerIZNS1_9PublisherIN8std_msgs3msg7String_ISaIvEEES7_EC4EPNS1_15node_interfaces17NodeBaseInterfaceERKNSt7__cxx1112basic_stringIcSt11char_traitsIcESaIcEEERKNS1_3QoSERKNS1_29PublisherOptionsWithAllocatorIS7_EEEUlR35rmw_qos_incompatible_event_status_tE_St10shared_ptrI15rcl_publisher_tEEEE6_M_ptrEv
FNDA:2,_ZN9__gnu_cxx16__aligned_bufferIN6rclcpp15QOSEventHandlerIZNS1_9PublisherIN8std_msgs3msg7String_ISaIvEEES7_EC4EPNS1_15node_interfaces17NodeBaseInterfaceERKNSt7__cxx1112basic_stringIcSt11char_traitsIcESaIcEEERKNS1_3QoSERKNS1_29PublisherOptionsWithAllocatorIS7_EEEUlR35rmw_qos_incompatible_event_status_tE_St10shared_ptrI15rcl_publisher_tEEEE6_M_ptrEv
FN:114,_ZN9__gnu_cxx16__aligned_bufferISt4pairIKmN6rclcpp12experimental19IntraProcessManager21SplittedSubscriptionsEEE6_M_ptrEv
FNDA:0,_ZN9__gnu_cxx16__aligned_bufferISt4pairIKmN6rclcpp12experimental19IntraProcessManager21SplittedSubscriptionsEEE6_M_ptrEv
FN:114,_ZN9__gnu_cxx16__aligned_bufferISt4pairIKmN6rclcpp12experimental19IntraProcessManager16SubscriptionInfoEEE6_M_ptrEv
FNDA:0,_ZN9__gnu_cxx16__aligned_bufferISt4pairIKmN6rclcpp12experimental19IntraProcessManager16SubscriptionInfoEEE6_M_ptrEv
FN:114,_ZN9__gnu_cxx16__aligned_bufferIN8std_msgs3msg7String_ISaIvEEEE6_M_ptrEv
FNDA:0,_ZN9__gnu_cxx16__aligned_bufferIN8std_msgs3msg7String_ISaIvEEEE6_M_ptrEv
FN:118,_ZNK9__gnu_cxx16__aligned_bufferISt4pairIKSt10type_indexSt10shared_ptrIvEEE6_M_ptrEv
FNDA:0,_ZNK9__gnu_cxx16__aligned_bufferISt4pairIKSt10type_indexSt10shared_ptrIvEEE6_M_ptrEv
FN:118,_ZNK9__gnu_cxx16__aligned_bufferISt4pairIKmN6rclcpp12experimental19IntraProcessManager21SplittedSubscriptionsEEE6_M_ptrEv
FNDA:0,_ZNK9__gnu_cxx16__aligned_bufferISt4pairIKmN6rclcpp12experimental19IntraProcessManager21SplittedSubscriptionsEEE6_M_ptrEv
FN:118,_ZNK9__gnu_cxx16__aligned_bufferISt4pairIKmN6rclcpp12experimental19IntraProcessManager16SubscriptionInfoEEE6_M_ptrEv
FNDA:0,_ZNK9__gnu_cxx16__aligned_bufferISt4pairIKmN6rclcpp12experimental19IntraProcessManager16SubscriptionInfoEEE6_M_ptrEv
DA:102,0
DA:104,0
DA:102,0
DA:104,0
DA:102,0
DA:104,0
DA:102,2
DA:104,2
DA:102,0
DA:104,0
DA:102,0
DA:104,0
DA:102,0
DA:104,0
DA:102,44
DA:104,44
DA:102,6
DA:104,6
DA:102,6
DA:104,6
DA:102,5
DA:104,5
DA:102,12
DA:104,12
DA:108,0
DA:110,0
DA:108,0
DA:110,0
DA:108,0
DA:110,0
DA:114,0
DA:115,0
DA:114,0
DA:115,0
DA:114,0
DA:115,0
DA:114,2
DA:115,2
DA:114,0
DA:115,0
DA:114,0
DA:115,0
DA:114,0
DA:115,0
DA:114,44
DA:115,44
DA:114,6
DA:115,6
DA:114,6
DA:115,6
DA:114,5
DA:115,5
DA:114,12
DA:115,12
DA:118,0
DA:119,0
DA:118,0
DA:119,0
DA:118,0
DA:119,0
end_of_record
SF:/opt/ros/foxy/include/rclcpp/publisher.hpp
FN:73,_ZN6rclcpp9PublisherIN8std_msgs3msg7String_ISaIvEEES4_EC2EPNS_15node_interfaces17NodeBaseInterfaceERKNSt7__cxx1112basic_stringIcSt11char_traitsIcESaIcEEERKNS_3QoSERKNS_29PublisherOptionsWithAllocatorIS4_EE
FNDA:2,_ZN6rclcpp9PublisherIN8std_msgs3msg7String_ISaIvEEES4_EC2EPNS_15node_interfaces17NodeBaseInterfaceERKNSt7__cxx1112basic_stringIcSt11char_traitsIcESaIcEEERKNS_3QoSERKNS_29PublisherOptionsWithAllocatorIS4_EE
FN:106,_ZZN6rclcpp9PublisherIN8std_msgs3msg7String_ISaIvEEES4_EC4EPNS_15node_interfaces17NodeBaseInterfaceERKNSt7__cxx1112basic_stringIcSt11char_traitsIcESaIcEEERKNS_3QoSERKNS_29PublisherOptionsWithAllocatorIS4_EEENKUlR35rmw_qos_incompatible_event_status_tE_clESQ_
FNDA:0,_ZZN6rclcpp9PublisherIN8std_msgs3msg7String_ISaIvEEES4_EC4EPNS_15node_interfaces17NodeBaseInterfaceERKNSt7__cxx1112basic_stringIcSt11char_traitsIcESaIcEEERKNS_3QoSERKNS_29PublisherOptionsWithAllocatorIS4_EEENKUlR35rmw_qos_incompatible_event_status_tE_clESQ_
FN:120,_ZN6rclcpp9PublisherIN8std_msgs3msg7String_ISaIvEEES4_E15post_init_setupEPNS_15node_interfaces17NodeBaseInterfaceERKNSt7__cxx1112basic_stringIcSt11char_traitsIcESaIcEEERKNS_3QoSERKNS_29PublisherOptionsWithAllocatorIS4_EE
FNDA:2,_ZN6rclcpp9PublisherIN8std_msgs3msg7String_ISaIvEEES4_E15post_init_setupEPNS_15node_interfaces17NodeBaseInterfaceERKNSt7__cxx1112basic_stringIcSt11char_traitsIcESaIcEEERKNS_3QoSERKNS_29PublisherOptionsWithAllocatorIS4_EE
FN:155,_ZN6rclcpp9PublisherIN8std_msgs3msg7String_ISaIvEEES4_ED0Ev
FNDA:0,_ZN6rclcpp9PublisherIN8std_msgs3msg7String_ISaIvEEES4_ED0Ev
FN:155,_ZN6rclcpp9PublisherIN8std_msgs3msg7String_ISaIvEEES4_ED2Ev
FNDA:2,_ZN6rclcpp9PublisherIN8std_msgs3msg7String_ISaIvEEES4_ED2Ev
FN:185,_ZN6rclcpp9PublisherIN8std_msgs3msg7String_ISaIvEEES4_E7publishESt10unique_ptrIS5_St14default_deleteIS5_EE
FNDA:0,_ZN6rclcpp9PublisherIN8std_msgs3msg7String_ISaIvEEES4_E7publishESt10unique_ptrIS5_St14default_deleteIS5_EE
FN:209,_ZN6rclcpp9PublisherIN8std_msgs3msg7String_ISaIvEEES4_E7publishERKS5_
FNDA:0,_ZN6rclcpp9PublisherIN8std_msgs3msg7String_ISaIvEEES4_E7publishERKS5_
FN:280,_ZN6rclcpp9PublisherIN8std_msgs3msg7String_ISaIvEEES4_E24do_inter_process_publishERKS5_
FNDA:0,_ZN6rclcpp9PublisherIN8std_msgs3msg7String_ISaIvEEES4_E24do_inter_process_publishERKS5_
FN:333,_ZN6rclcpp9PublisherIN8std_msgs3msg7String_ISaIvEEES4_E24do_intra_process_publishESt10unique_ptrIS5_St14default_deleteIS5_EE
FNDA:0,_ZN6rclcpp9PublisherIN8std_msgs3msg7String_ISaIvEEES4_E24do_intra_process_publishESt10unique_ptrIS5_St14default_deleteIS5_EE
FN:351,_ZN6rclcpp9PublisherIN8std_msgs3msg7String_ISaIvEEES4_E42do_intra_process_publish_and_return_sharedESt10unique_ptrIS5_St14default_deleteIS5_EE
FNDA:0,_ZN6rclcpp9PublisherIN8std_msgs3msg7String_ISaIvEEES4_E42do_intra_process_publish_and_return_sharedESt10unique_ptrIS5_St14default_deleteIS5_EE
DA:73,2
DA:81,2
DA:84,4
DA:86,2
DA:88,2
DA:89,0
DA:90,0
DA:93,2
DA:94,0
DA:95,0
DA:98,2
DA:99,0
DA:100,0
DA:102,2
DA:105,2
DA:106,0
DA:107,0
DA:110,2
DA:115,2
DA:120,2
DA:131,2
DA:132,0
DA:134,0
DA:136,0
DA:138,0
DA:140,0
DA:142,0
DA:144,0
DA:146,0
DA:148,0
DA:149,0
DA:153,2
DA:155,0
DA:156,0
DA:155,2
DA:156,2
DA:185,0
DA:187,0
DA:188,0
DA:189,0
DA:197,0
DA:198,0
DA:200,0
DA:201,0
DA:202,0
DA:204,0
DA:209,0
DA:212,0
DA:214,0
DA:219,0
DA:220,0
DA:221,0
DA:222,0
DA:280,0
DA:282,0
DA:284,0
DA:285,0
DA:286,0
DA:287,0
DA:288,0
DA:290,0
DA:294,0
DA:295,0
DA:333,0
DA:335,0
DA:336,0
DA:338,0
DA:340,0
DA:341,0
DA:344,0
DA:346,0
DA:347,0
DA:348,0
DA:351,0
DA:353,0
DA:354,0
DA:356,0
DA:358,0
DA:359,0
DA:364,0
DA:365,0
end_of_record
SF:/opt/ros/foxy/include/rclcpp/parameter.hpp
end_of_record
SF:/opt/ros/foxy/src/gtest_vendor/include/gtest/gtest-printers.h
FN:259,_ZN16testing_internal26DefaultPrintNonContainerToIiEEvRKT_PSo
FNDA:0,_ZN16testing_internal26DefaultPrintNonContainerToIiEEvRKT_PSo
FN:312,_ZN7testing8internal19FormatForComparisonIiiE6FormatB5cxx11ERKi
FNDA:0,_ZN7testing8internal19FormatForComparisonIiiE6FormatB5cxx11ERKi
FN:386,_ZN7testing8internal33FormatForComparisonFailureMessageIiiEENSt7__cxx1112basic_stringIcSt11char_traitsIcESaIcEEERKT_RKT0_
FNDA:0,_ZN7testing8internal33FormatForComparisonFailureMessageIiiEENSt7__cxx1112basic_stringIcSt11char_traitsIcESaIcEEERKT_RKT0_
FN:475,_ZN7testing8internal14DefaultPrintToIiEEvNS0_15WrapPrinterTypeILNS0_18DefaultPrinterTypeE3EEERKT_PSo
FNDA:0,_ZN7testing8internal14DefaultPrintToIiEEvNS0_15WrapPrinterTypeILNS0_18DefaultPrinterTypeE3EEERKT_PSo
FN:492,_ZN7testing8internal7PrintToIiEEvRKT_PSo
FNDA:0,_ZN7testing8internal7PrintToIiEEvRKT_PSo
FN:694,_ZN7testing8internal16UniversalPrinterIiE5PrintERKiPSo
FNDA:0,_ZN7testing8internal16UniversalPrinterIiE5PrintERKiPSo
FN:821,_ZN7testing8internal21UniversalTersePrinterIiE5PrintERKiPSo
FNDA:0,_ZN7testing8internal21UniversalTersePrinterIiE5PrintERKiPSo
FN:890,_ZN7testing8internal14UniversalPrintIiEEvRKT_PSo
FNDA:0,_ZN7testing8internal14UniversalPrintIiEEvRKT_PSo
FN:940,_ZN7testing13PrintToStringIiEENSt7__cxx1112basic_stringIcSt11char_traitsIcESaIcEEERKT_
FNDA:0,_ZN7testing13PrintToStringIiEENSt7__cxx1112basic_stringIcSt11char_traitsIcESaIcEEERKT_
DA:259,0
DA:286,0
DA:287,0
DA:312,0
DA:313,0
DA:386,0
DA:388,0
DA:475,0
DA:477,0
DA:478,0
DA:492,0
DA:512,0
DA:523,0
DA:694,0
DA:703,0
DA:704,0
DA:821,0
DA:822,0
DA:823,0
DA:890,0
DA:894,0
DA:895,0
DA:940,0
DA:941,0
DA:942,0
DA:943,0
end_of_record
SF:/usr/include/c++/9/new
FN:173,_ZnwmPv
FNDA:347,_ZnwmPv
FN:179,_ZdlPvS_
FNDA:8,_ZdlPvS_
DA:173,347
DA:174,347
DA:179,8
end_of_record
SF:/usr/include/c++/9/bits/stl_function.h
FN:355,_ZNKSt8equal_toImEclERKmS2_
FNDA:0,_ZNKSt8equal_toImEclERKmS2_
FN:355,_ZNKSt8equal_toISt10type_indexEclERKS0_S3_
FNDA:4,_ZNKSt8equal_toISt10type_indexEclERKS0_S3_
DA:355,0
DA:356,0
DA:355,4
DA:356,4
end_of_record
SF:/usr/include/c++/9/bits/hashtable.h
FN:342,_ZNKSt10_HashtableISt10type_indexSt4pairIKS0_St10shared_ptrIvEESaIS5_ENSt8__detail10_Select1stESt8equal_toIS0_ESt4hashIS0_ENS7_18_Mod_range_hashingENS7_20_Default_ranged_hashENS7_20_Prime_rehash_policyENS7_17_Hashtable_traitsILb0ELb0ELb1EEEE21_M_uses_single_bucketEPPNS7_15_Hash_node_baseE
FNDA:1,_ZNKSt10_HashtableISt10type_indexSt4pairIKS0_St10shared_ptrIvEESaIS5_ENSt8__detail10_Select1stESt8equal_toIS0_ESt4hashIS0_ENS7_18_Mod_range_hashingENS7_20_Default_ranged_hashENS7_20_Prime_rehash_policyENS7_17_Hashtable_traitsILb0ELb0ELb1EEEE21_M_uses_single_bucketEPPNS7_15_Hash_node_baseE
FN:353,_ZNSt10_HashtableISt10type_indexSt4pairIKS0_St10shared_ptrIvEESaIS5_ENSt8__detail10_Select1stESt8equal_toIS0_ESt4hashIS0_ENS7_18_Mod_range_hashingENS7_20_Default_ranged_hashENS7_20_Prime_rehash_policyENS7_17_Hashtable_traitsILb0ELb0ELb1EEEE19_M_allocate_bucketsEm
FNDA:1,_ZNSt10_HashtableISt10type_indexSt4pairIKS0_St10shared_ptrIvEESaIS5_ENSt8__detail10_Select1stESt8equal_toIS0_ESt4hashIS0_ENS7_18_Mod_range_hashingENS7_20_Default_ranged_hashENS7_20_Prime_rehash_policyENS7_17_Hashtable_traitsILb0ELb0ELb1EEEE19_M_allocate_bucketsEm
FN:365,_ZNSt10_HashtableISt10type_indexSt4pairIKS0_St10shared_ptrIvEESaIS5_ENSt8__detail10_Select1stESt8equal_toIS0_ESt4hashIS0_ENS7_18_Mod_range_hashingENS7_20_Default_ranged_hashENS7_20_Prime_rehash_policyENS7_17_Hashtable_traitsILb0ELb0ELb1EEEE21_M_deallocate_bucketsEPPNS7_15_Hash_node_baseEm
FNDA:1,_ZNSt10_HashtableISt10type_indexSt4pairIKS0_St10shared_ptrIvEESaIS5_ENSt8__detail10_Select1stESt8equal_toIS0_ESt4hashIS0_ENS7_18_Mod_range_hashingENS7_20_Default_ranged_hashENS7_20_Prime_rehash_policyENS7_17_Hashtable_traitsILb0ELb0ELb1EEEE21_M_deallocate_bucketsEPPNS7_15_Hash_node_baseEm
FN:374,_ZNSt10_HashtableISt10type_indexSt4pairIKS0_St10shared_ptrIvEESaIS5_ENSt8__detail10_Select1stESt8equal_toIS0_ESt4hashIS0_ENS7_18_Mod_range_hashingENS7_20_Default_ranged_hashENS7_20_Prime_rehash_policyENS7_17_Hashtable_traitsILb0ELb0ELb1EEEE21_M_deallocate_bucketsEv
FNDA:1,_ZNSt10_HashtableISt10type_indexSt4pairIKS0_St10shared_ptrIvEESaIS5_ENSt8__detail10_Select1stESt8equal_toIS0_ESt4hashIS0_ENS7_18_Mod_range_hashingENS7_20_Default_ranged_hashENS7_20_Prime_rehash_policyENS7_17_Hashtable_traitsILb0ELb0ELb1EEEE21_M_deallocate_bucketsEv
FN:383,_ZNKSt10_HashtableISt10type_indexSt4pairIKS0_St10shared_ptrIvEESaIS5_ENSt8__detail10_Select1stESt8equal_toIS0_ESt4hashIS0_ENS7_18_Mod_range_hashingENS7_20_Default_ranged_hashENS7_20_Prime_rehash_policyENS7_17_Hashtable_traitsILb0ELb0ELb1EEEE8_M_beginEv
FNDA:1,_ZNKSt10_HashtableISt10type_indexSt4pairIKS0_St10shared_ptrIvEESaIS5_ENSt8__detail10_Select1stESt8equal_toIS0_ESt4hashIS0_ENS7_18_Mod_range_hashingENS7_20_Default_ranged_hashENS7_20_Prime_rehash_policyENS7_17_Hashtable_traitsILb0ELb0ELb1EEEE8_M_beginEv
FN:544,_ZNSt10_HashtableISt10type_indexSt4pairIKS0_St10shared_ptrIvEESaIS5_ENSt8__detail10_Select1stESt8equal_toIS0_ESt4hashIS0_ENS7_18_Mod_range_hashingENS7_20_Default_ranged_hashENS7_20_Prime_rehash_policyENS7_17_Hashtable_traitsILb0ELb0ELb1EEEE3endEv
FNDA:0,_ZNSt10_HashtableISt10type_indexSt4pairIKS0_St10shared_ptrIvEESaIS5_ENSt8__detail10_Select1stESt8equal_toIS0_ESt4hashIS0_ENS7_18_Mod_range_hashingENS7_20_Default_ranged_hashENS7_20_Prime_rehash_policyENS7_17_Hashtable_traitsILb0ELb0ELb1EEEE3endEv
FN:544,_ZNSt10_HashtableImSt4pairIKmN6rclcpp12experimental19IntraProcessManager16SubscriptionInfoEESaIS6_ENSt8__detail10_Select1stESt8equal_toImESt4hashImENS8_18_Mod_range_hashingENS8_20_Default_ranged_hashENS8_20_Prime_rehash_policyENS8_17_Hashtable_traitsILb0ELb0ELb1EEEE3endEv
FNDA:0,_ZNSt10_HashtableImSt4pairIKmN6rclcpp12experimental19IntraProcessManager16SubscriptionInfoEESaIS6_ENSt8__detail10_Select1stESt8equal_toImESt4hashImENS8_18_Mod_range_hashingENS8_20_Default_ranged_hashENS8_20_Prime_rehash_policyENS8_17_Hashtable_traitsILb0ELb0ELb1EEEE3endEv
FN:544,_ZNSt10_HashtableImSt4pairIKmN6rclcpp12experimental19IntraProcessManager21SplittedSubscriptionsEESaIS6_ENSt8__detail10_Select1stESt8equal_toImESt4hashImENS8_18_Mod_range_hashingENS8_20_Default_ranged_hashENS8_20_Prime_rehash_policyENS8_17_Hashtable_traitsILb0ELb0ELb1EEEE3endEv
FNDA:0,_ZNSt10_HashtableImSt4pairIKmN6rclcpp12experimental19IntraProcessManager21SplittedSubscriptionsEESaIS6_ENSt8__detail10_Select1stESt8equal_toImESt4hashImENS8_18_Mod_range_hashingENS8_20_Default_ranged_hashENS8_20_Prime_rehash_policyENS8_17_Hashtable_traitsILb0ELb0ELb1EEEE3endEv
FN:671,_ZNKSt10_HashtableImSt4pairIKmN6rclcpp12experimental19IntraProcessManager16SubscriptionInfoEESaIS6_ENSt8__detail10_Select1stESt8equal_toImESt4hashImENS8_18_Mod_range_hashingENS8_20_Default_ranged_hashENS8_20_Prime_rehash_policyENS8_17_Hashtable_traitsILb0ELb0ELb1EEEE15_M_bucket_indexEPNS8_10_Hash_nodeIS6_Lb0EEE
FNDA:0,_ZNKSt10_HashtableImSt4pairIKmN6rclcpp12experimental19IntraProcessManager16SubscriptionInfoEESaIS6_ENSt8__detail10_Select1stESt8equal_toImESt4hashImENS8_18_Mod_range_hashingENS8_20_Default_ranged_hashENS8_20_Prime_rehash_policyENS8_17_Hashtable_traitsILb0ELb0ELb1EEEE15_M_bucket_indexEPNS8_10_Hash_nodeIS6_Lb0EEE
FN:671,_ZNKSt10_HashtableISt10type_indexSt4pairIKS0_St10shared_ptrIvEESaIS5_ENSt8__detail10_Select1stESt8equal_toIS0_ESt4hashIS0_ENS7_18_Mod_range_hashingENS7_20_Default_ranged_hashENS7_20_Prime_rehash_policyENS7_17_Hashtable_traitsILb0ELb0ELb1EEEE15_M_bucket_indexEPNS7_10_Hash_nodeIS5_Lb0EEE
FNDA:0,_ZNKSt10_HashtableISt10type_indexSt4pairIKS0_St10shared_ptrIvEESaIS5_ENSt8__detail10_Select1stESt8equal_toIS0_ESt4hashIS0_ENS7_18_Mod_range_hashingENS7_20_Default_ranged_hashENS7_20_Prime_rehash_policyENS7_17_Hashtable_traitsILb0ELb0ELb1EEEE15_M_bucket_indexEPNS7_10_Hash_nodeIS5_Lb0EEE
FN:671,_ZNKSt10_HashtableImSt4pairIKmN6rclcpp12experimental19IntraProcessManager21SplittedSubscriptionsEESaIS6_ENSt8__detail10_Select1stESt8equal_toImESt4hashImENS8_18_Mod_range_hashingENS8_20_Default_ranged_hashENS8_20_Prime_rehash_policyENS8_17_Hashtable_traitsILb0ELb0ELb1EEEE15_M_bucket_indexEPNS8_10_Hash_nodeIS6_Lb0EEE
FNDA:0,_ZNKSt10_HashtableImSt4pairIKmN6rclcpp12experimental19IntraProcessManager21SplittedSubscriptionsEESaIS6_ENSt8__detail10_Select1stESt8equal_toImESt4hashImENS8_18_Mod_range_hashingENS8_20_Default_ranged_hashENS8_20_Prime_rehash_policyENS8_17_Hashtable_traitsILb0ELb0ELb1EEEE15_M_bucket_indexEPNS8_10_Hash_nodeIS6_Lb0EEE
FN:675,_ZNKSt10_HashtableImSt4pairIKmN6rclcpp12experimental19IntraProcessManager21SplittedSubscriptionsEESaIS6_ENSt8__detail10_Select1stESt8equal_toImESt4hashImENS8_18_Mod_range_hashingENS8_20_Default_ranged_hashENS8_20_Prime_rehash_policyENS8_17_Hashtable_traitsILb0ELb0ELb1EEEE15_M_bucket_indexERS1_m
FNDA:0,_ZNKSt10_HashtableImSt4pairIKmN6rclcpp12experimental19IntraProcessManager21SplittedSubscriptionsEESaIS6_ENSt8__detail10_Select1stESt8equal_toImESt4hashImENS8_18_Mod_range_hashingENS8_20_Default_ranged_hashENS8_20_Prime_rehash_policyENS8_17_Hashtable_traitsILb0ELb0ELb1EEEE15_M_bucket_indexERS1_m
FN:675,_ZNKSt10_HashtableISt10type_indexSt4pairIKS0_St10shared_ptrIvEESaIS5_ENSt8__detail10_Select1stESt8equal_toIS0_ESt4hashIS0_ENS7_18_Mod_range_hashingENS7_20_Default_ranged_hashENS7_20_Prime_rehash_policyENS7_17_Hashtable_traitsILb0ELb0ELb1EEEE15_M_bucket_indexERS2_m
FNDA:1,_ZNKSt10_HashtableISt10type_indexSt4pairIKS0_St10shared_ptrIvEESaIS5_ENSt8__detail10_Select1stESt8equal_toIS0_ESt4hashIS0_ENS7_18_Mod_range_hashingENS7_20_Default_ranged_hashENS7_20_Prime_rehash_policyENS7_17_Hashtable_traitsILb0ELb0ELb1EEEE15_M_bucket_indexERS2_m
FN:675,_ZNKSt10_HashtableImSt4pairIKmN6rclcpp12experimental19IntraProcessManager16SubscriptionInfoEESaIS6_ENSt8__detail10_Select1stESt8equal_toImESt4hashImENS8_18_Mod_range_hashingENS8_20_Default_ranged_hashENS8_20_Prime_rehash_policyENS8_17_Hashtable_traitsILb0ELb0ELb1EEEE15_M_bucket_indexERS1_m
FNDA:0,_ZNKSt10_HashtableImSt4pairIKmN6rclcpp12experimental19IntraProcessManager16SubscriptionInfoEESaIS6_ENSt8__detail10_Select1stESt8equal_toImESt4hashImENS8_18_Mod_range_hashingENS8_20_Default_ranged_hashENS8_20_Prime_rehash_policyENS8_17_Hashtable_traitsILb0ELb0ELb1EEEE15_M_bucket_indexERS1_m
FN:684,_ZNKSt10_HashtableISt10type_indexSt4pairIKS0_St10shared_ptrIvEESaIS5_ENSt8__detail10_Select1stESt8equal_toIS0_ESt4hashIS0_ENS7_18_Mod_range_hashingENS7_20_Default_ranged_hashENS7_20_Prime_rehash_policyENS7_17_Hashtable_traitsILb0ELb0ELb1EEEE12_M_find_nodeEmRS2_m
FNDA:0,_ZNKSt10_HashtableISt10type_indexSt4pairIKS0_St10shared_ptrIvEESaIS5_ENSt8__detail10_Select1stESt8equal_toIS0_ESt4hashIS0_ENS7_18_Mod_range_hashingENS7_20_Default_ranged_hashENS7_20_Prime_rehash_policyENS7_17_Hashtable_traitsILb0ELb0ELb1EEEE12_M_find_nodeEmRS2_m
FN:684,_ZNKSt10_HashtableImSt4pairIKmN6rclcpp12experimental19IntraProcessManager21SplittedSubscriptionsEESaIS6_ENSt8__detail10_Select1stESt8equal_toImESt4hashImENS8_18_Mod_range_hashingENS8_20_Default_ranged_hashENS8_20_Prime_rehash_policyENS8_17_Hashtable_traitsILb0ELb0ELb1EEEE12_M_find_nodeEmRS1_m
FNDA:0,_ZNKSt10_HashtableImSt4pairIKmN6rclcpp12experimental19IntraProcessManager21SplittedSubscriptionsEESaIS6_ENSt8__detail10_Select1stESt8equal_toImESt4hashImENS8_18_Mod_range_hashingENS8_20_Default_ranged_hashENS8_20_Prime_rehash_policyENS8_17_Hashtable_traitsILb0ELb0ELb1EEEE12_M_find_nodeEmRS1_m
FN:684,_ZNKSt10_HashtableImSt4pairIKmN6rclcpp12experimental19IntraProcessManager16SubscriptionInfoEESaIS6_ENSt8__detail10_Select1stESt8equal_toImESt4hashImENS8_18_Mod_range_hashingENS8_20_Default_ranged_hashENS8_20_Prime_rehash_policyENS8_17_Hashtable_traitsILb0ELb0ELb1EEEE12_M_find_nodeEmRS1_m
FNDA:0,_ZNKSt10_HashtableImSt4pairIKmN6rclcpp12experimental19IntraProcessManager16SubscriptionInfoEESaIS6_ENSt8__detail10_Select1stESt8equal_toImESt4hashImENS8_18_Mod_range_hashingENS8_20_Default_ranged_hashENS8_20_Prime_rehash_policyENS8_17_Hashtable_traitsILb0ELb0ELb1EEEE12_M_find_nodeEmRS1_m
FN:1447,_ZNSt10_HashtableISt10type_indexSt4pairIKS0_St10shared_ptrIvEESaIS5_ENSt8__detail10_Select1stESt8equal_toIS0_ESt4hashIS0_ENS7_18_Mod_range_hashingENS7_20_Default_ranged_hashENS7_20_Prime_rehash_policyENS7_17_Hashtable_traitsILb0ELb0ELb1EEEE4findERS2_
FNDA:0,_ZNSt10_HashtableISt10type_indexSt4pairIKS0_St10shared_ptrIvEESaIS5_ENSt8__detail10_Select1stESt8equal_toIS0_ESt4hashIS0_ENS7_18_Mod_range_hashingENS7_20_Default_ranged_hashENS7_20_Prime_rehash_policyENS7_17_Hashtable_traitsILb0ELb0ELb1EEEE4findERS2_
FN:1447,_ZNSt10_HashtableImSt4pairIKmN6rclcpp12experimental19IntraProcessManager21SplittedSubscriptionsEESaIS6_ENSt8__detail10_Select1stESt8equal_toImESt4hashImENS8_18_Mod_range_hashingENS8_20_Default_ranged_hashENS8_20_Prime_rehash_policyENS8_17_Hashtable_traitsILb0ELb0ELb1EEEE4findERS1_
FNDA:0,_ZNSt10_HashtableImSt4pairIKmN6rclcpp12experimental19IntraProcessManager21SplittedSubscriptionsEESaIS6_ENSt8__detail10_Select1stESt8equal_toImESt4hashImENS8_18_Mod_range_hashingENS8_20_Default_ranged_hashENS8_20_Prime_rehash_policyENS8_17_Hashtable_traitsILb0ELb0ELb1EEEE4findERS1_
FN:1447,_ZNSt10_HashtableImSt4pairIKmN6rclcpp12experimental19IntraProcessManager16SubscriptionInfoEESaIS6_ENSt8__detail10_Select1stESt8equal_toImESt4hashImENS8_18_Mod_range_hashingENS8_20_Default_ranged_hashENS8_20_Prime_rehash_policyENS8_17_Hashtable_traitsILb0ELb0ELb1EEEE4findERS1_
FNDA:0,_ZNSt10_HashtableImSt4pairIKmN6rclcpp12experimental19IntraProcessManager16SubscriptionInfoEESaIS6_ENSt8__detail10_Select1stESt8equal_toImESt4hashImENS8_18_Mod_range_hashingENS8_20_Default_ranged_hashENS8_20_Prime_rehash_policyENS8_17_Hashtable_traitsILb0ELb0ELb1EEEE4findERS1_
FN:1567,_ZNKSt10_HashtableISt10type_indexSt4pairIKS0_St10shared_ptrIvEESaIS5_ENSt8__detail10_Select1stESt8equal_toIS0_ESt4hashIS0_ENS7_18_Mod_range_hashingENS7_20_Default_ranged_hashENS7_20_Prime_rehash_policyENS7_17_Hashtable_traitsILb0ELb0ELb1EEEE19_M_find_before_nodeEmRS2_m
FNDA:6,_ZNKSt10_HashtableISt10type_indexSt4pairIKS0_St10shared_ptrIvEESaIS5_ENSt8__detail10_Select1stESt8equal_toIS0_ESt4hashIS0_ENS7_18_Mod_range_hashingENS7_20_Default_ranged_hashENS7_20_Prime_rehash_policyENS7_17_Hashtable_traitsILb0ELb0ELb1EEEE19_M_find_before_nodeEmRS2_m
FN:1567,_ZNKSt10_HashtableImSt4pairIKmN6rclcpp12experimental19IntraProcessManager21SplittedSubscriptionsEESaIS6_ENSt8__detail10_Select1stESt8equal_toImESt4hashImENS8_18_Mod_range_hashingENS8_20_Default_ranged_hashENS8_20_Prime_rehash_policyENS8_17_Hashtable_traitsILb0ELb0ELb1EEEE19_M_find_before_nodeEmRS1_m
FNDA:0,_ZNKSt10_HashtableImSt4pairIKmN6rclcpp12experimental19IntraProcessManager21SplittedSubscriptionsEESaIS6_ENSt8__detail10_Select1stESt8equal_toImESt4hashImENS8_18_Mod_range_hashingENS8_20_Default_ranged_hashENS8_20_Prime_rehash_policyENS8_17_Hashtable_traitsILb0ELb0ELb1EEEE19_M_find_before_nodeEmRS1_m
FN:1567,_ZNKSt10_HashtableImSt4pairIKmN6rclcpp12experimental19IntraProcessManager16SubscriptionInfoEESaIS6_ENSt8__detail10_Select1stESt8equal_toImESt4hashImENS8_18_Mod_range_hashingENS8_20_Default_ranged_hashENS8_20_Prime_rehash_policyENS8_17_Hashtable_traitsILb0ELb0ELb1EEEE19_M_find_before_nodeEmRS1_m
FNDA:0,_ZNKSt10_HashtableImSt4pairIKmN6rclcpp12experimental19IntraProcessManager16SubscriptionInfoEESaIS6_ENSt8__detail10_Select1stESt8equal_toImESt4hashImENS8_18_Mod_range_hashingENS8_20_Default_ranged_hashENS8_20_Prime_rehash_policyENS8_17_Hashtable_traitsILb0ELb0ELb1EEEE19_M_find_before_nodeEmRS1_m
FN:1595,_ZNSt10_HashtableISt10type_indexSt4pairIKS0_St10shared_ptrIvEESaIS5_ENSt8__detail10_Select1stESt8equal_toIS0_ESt4hashIS0_ENS7_18_Mod_range_hashingENS7_20_Default_ranged_hashENS7_20_Prime_rehash_policyENS7_17_Hashtable_traitsILb0ELb0ELb1EEEE22_M_insert_bucket_beginEmPNS7_10_Hash_nodeIS5_Lb0EEE
FNDA:1,_ZNSt10_HashtableISt10type_indexSt4pairIKS0_St10shared_ptrIvEESaIS5_ENSt8__detail10_Select1stESt8equal_toIS0_ESt4hashIS0_ENS7_18_Mod_range_hashingENS7_20_Default_ranged_hashENS7_20_Prime_rehash_policyENS7_17_Hashtable_traitsILb0ELb0ELb1EEEE22_M_insert_bucket_beginEmPNS7_10_Hash_nodeIS5_Lb0EEE
FN:1733,_ZNSt10_HashtableISt10type_indexSt4pairIKS0_St10shared_ptrIvEESaIS5_ENSt8__detail10_Select1stESt8equal_toIS0_ESt4hashIS0_ENS7_18_Mod_range_hashingENS7_20_Default_ranged_hashENS7_20_Prime_rehash_policyENS7_17_Hashtable_traitsILb0ELb0ELb1EEEE21_M_insert_unique_nodeEmmPNS7_10_Hash_nodeIS5_Lb0EEEm
FNDA:1,_ZNSt10_HashtableISt10type_indexSt4pairIKS0_St10shared_ptrIvEESaIS5_ENSt8__detail10_Select1stESt8equal_toIS0_ESt4hashIS0_ENS7_18_Mod_range_hashingENS7_20_Default_ranged_hashENS7_20_Prime_rehash_policyENS7_17_Hashtable_traitsILb0ELb0ELb1EEEE21_M_insert_unique_nodeEmmPNS7_10_Hash_nodeIS5_Lb0EEEm
FN:2096,_ZNSt10_HashtableISt10type_indexSt4pairIKS0_St10shared_ptrIvEESaIS5_ENSt8__detail10_Select1stESt8equal_toIS0_ESt4hashIS0_ENS7_18_Mod_range_hashingENS7_20_Default_ranged_hashENS7_20_Prime_rehash_policyENS7_17_Hashtable_traitsILb0ELb0ELb1EEEE9_M_rehashEmRKm
FNDA:1,_ZNSt10_HashtableISt10type_indexSt4pairIKS0_St10shared_ptrIvEESaIS5_ENSt8__detail10_Select1stESt8equal_toIS0_ESt4hashIS0_ENS7_18_Mod_range_hashingENS7_20_Default_ranged_hashENS7_20_Prime_rehash_policyENS7_17_Hashtable_traitsILb0ELb0ELb1EEEE9_M_rehashEmRKm
FN:2119,_ZNSt10_HashtableISt10type_indexSt4pairIKS0_St10shared_ptrIvEESaIS5_ENSt8__detail10_Select1stESt8equal_toIS0_ESt4hashIS0_ENS7_18_Mod_range_hashingENS7_20_Default_ranged_hashENS7_20_Prime_rehash_policyENS7_17_Hashtable_traitsILb0ELb0ELb1EEEE13_M_rehash_auxEmSt17integral_constantIbLb1EE
FNDA:1,_ZNSt10_HashtableISt10type_indexSt4pairIKS0_St10shared_ptrIvEESaIS5_ENSt8__detail10_Select1stESt8equal_toIS0_ESt4hashIS0_ENS7_18_Mod_range_hashingENS7_20_Default_ranged_hashENS7_20_Prime_rehash_policyENS7_17_Hashtable_traitsILb0ELb0ELb1EEEE13_M_rehash_auxEmSt17integral_constantIbLb1EE
DA:342,1
DA:343,1
DA:353,1
DA:355,1
DA:357,0
DA:358,0
DA:361,1
DA:365,1
DA:367,1
DA:368,1
DA:370,0
DA:374,1
DA:375,1
DA:383,1
DA:384,1
DA:544,0
DA:545,0
DA:544,0
DA:545,0
DA:544,0
DA:545,0
DA:671,0
DA:672,0
DA:671,0
DA:672,0
DA:671,0
DA:672,0
DA:675,0
DA:676,0
DA:675,0
DA:676,0
DA:675,1
DA:676,1
DA:684,0
DA:687,0
DA:688,0
DA:689,0
DA:690,0
DA:684,0
DA:687,0
DA:688,0
DA:689,0
DA:690,0
DA:684,0
DA:687,0
DA:688,0
DA:689,0
DA:690,0
DA:1447,0
DA:1452,0
DA:1453,0
DA:1454,0
DA:1455,0
DA:1447,0
DA:1452,0
DA:1453,0
DA:1454,0
DA:1455,0
DA:1447,0
DA:1452,0
DA:1453,0
DA:1454,0
DA:1455,0
DA:1567,0
DA:1573,0
DA:1574,0
DA:1575,0
DA:1577,0
DA:1578,0
DA:1580,0
DA:1581,0
DA:1583,0
DA:1584,0
DA:1585,0
DA:1587,0
DA:1567,0
DA:1573,0
DA:1574,0
DA:1575,0
DA:1577,0
DA:1578,0
DA:1580,0
DA:1581,0
DA:1583,0
DA:1584,0
DA:1585,0
DA:1587,0
DA:1567,6
DA:1573,6
DA:1574,6
DA:1575,2
DA:1577,4
DA:1578,0
DA:1580,4
DA:1581,4
DA:1583,0
DA:1584,0
DA:1585,0
DA:1587,0
DA:1595,1
DA:1599,1
DA:1603,0
DA:1604,0
DA:1611,1
DA:1612,1
DA:1613,1
DA:1616,0
DA:1617,1
DA:1619,1
DA:1733,1
DA:1739,1
DA:1740,1
DA:1746,1
DA:1748,1
DA:1749,1
DA:1752,1
DA:1755,1
DA:1756,1
DA:1757,1
DA:1759,0
DA:1761,0
DA:1762,0
DA:2096,1
DA:2102,1
DA:2104,0
DA:2108,0
DA:2109,0
DA:2111,1
DA:2119,1
DA:2123,1
DA:2124,1
DA:2125,1
DA:2126,1
DA:2127,1
DA:2129,0
DA:2130,0
DA:2131,0
DA:2133,0
DA:2134,0
DA:2135,0
DA:2136,0
DA:2137,0
DA:2138,0
DA:2142,0
DA:2143,0
DA:2145,0
DA:2148,1
DA:2149,1
DA:2150,1
DA:2151,1
end_of_record
SF:/usr/include/c++/9/typeindex
FN:54,_ZNSt10type_indexC2ERKSt9type_info
FNDA:0,_ZNSt10type_indexC2ERKSt9type_info
FN:58,_ZNKSt10type_indexeqERKS_
FNDA:4,_ZNKSt10type_indexeqERKS_
FN:82,_ZNKSt10type_index9hash_codeEv
FNDA:0,_ZNKSt10type_index9hash_codeEv
FN:103,_ZNKSt4hashISt10type_indexEclERKS0_
FNDA:0,_ZNKSt4hashISt10type_indexEclERKS0_
DA:54,0
DA:55,0
DA:58,4
DA:59,4
DA:82,0
DA:83,0
DA:103,0
DA:104,0
end_of_record
SF:/usr/include/c++/9/bits/basic_string.tcc
FN:206,_ZNSt7__cxx1112basic_stringIcSt11char_traitsIcESaIcEE12_M_constructIPcEEvT_S7_St20forward_iterator_tag
FNDA:0,_ZNSt7__cxx1112basic_stringIcSt11char_traitsIcESaIcEE12_M_constructIPcEEvT_S7_St20forward_iterator_tag
FN:206,_ZNSt7__cxx1112basic_stringIcSt11char_traitsIcESaIcEE12_M_constructIPKcEEvT_S8_St20forward_iterator_tag
FNDA:0,_ZNSt7__cxx1112basic_stringIcSt11char_traitsIcESaIcEE12_M_constructIPKcEEvT_S8_St20forward_iterator_tag
DA:206,0
DA:211,0
DA:212,0
DA:215,0
DA:217,0
DA:219,0
DA:220,0
DA:225,0
DA:226,0
DA:228,0
DA:229,0
DA:232,0
DA:233,0
DA:206,0
DA:211,0
DA:212,0
DA:215,0
DA:217,0
DA:219,0
DA:220,0
DA:225,0
DA:226,0
DA:228,0
DA:229,0
DA:232,0
DA:233,0
end_of_record
SF:/usr/include/c++/9/bits/stl_pair.h
end_of_record
SF:/opt/ros/foxy/include/rclcpp/detail/resolve_use_intra_process.hpp
FN:31,_ZN6rclcpp6detail25resolve_use_intra_processINS_29PublisherOptionsWithAllocatorISaIvEEENS_15node_interfaces17NodeBaseInterfaceEEEbRKT_RKT0_
FNDA:4,_ZN6rclcpp6detail25resolve_use_intra_processINS_29PublisherOptionsWithAllocatorISaIvEEENS_15node_interfaces17NodeBaseInterfaceEEEbRKT_RKT0_
DA:31,4
DA:34,4
DA:35,0
DA:36,0
DA:37,0
DA:38,0
DA:39,0
DA:40,0
DA:41,4
DA:42,4
DA:43,4
DA:44,0
DA:45,0
DA:49,4
end_of_record
SF:/usr/include/c++/9/ext/type_traits.h
FN:152,_ZN9__gnu_cxx17__is_null_pointerIcEEbPT_
FNDA:0,_ZN9__gnu_cxx17__is_null_pointerIcEEbPT_
FN:152,_ZN9__gnu_cxx17__is_null_pointerIKcEEbPT_
FNDA:0,_ZN9__gnu_cxx17__is_null_pointerIKcEEbPT_
DA:152,0
DA:153,0
DA:152,0
DA:153,0
end_of_record
SF:/usr/include/c++/9/mutex
FN:104,_ZNSt15recursive_mutex4lockEv
FNDA:0,_ZNSt15recursive_mutex4lockEv
FN:121,_ZNSt15recursive_mutex6unlockEv
FNDA:0,_ZNSt15recursive_mutex6unlockEv
DA:104,0
DA:106,0
DA:109,0
DA:110,0
DA:111,0
DA:121,0
DA:124,0
DA:125,0
end_of_record
SF:/usr/include/c++/9/ext/new_allocator.h
FN:80,_ZN9__gnu_cxx13new_allocatorISt23_Sp_counted_ptr_inplaceISaIvESaIS2_ELNS_12_Lock_policyE2EEEC2Ev
FNDA:36,_ZN9__gnu_cxx13new_allocatorISt23_Sp_counted_ptr_inplaceISaIvESaIS2_ELNS_12_Lock_policyE2EEEC2Ev
FN:80,_ZN9__gnu_cxx13new_allocatorIN6rclcpp4NodeEEC2Ev
FNDA:4,_ZN9__gnu_cxx13new_allocatorIN6rclcpp4NodeEEC2Ev
FN:80,_ZN9__gnu_cxx13new_allocatorIN6rclcpp9PublisherIN8std_msgs3msg7String_ISaIvEEES6_EEEC2Ev
FNDA:2,_ZN9__gnu_cxx13new_allocatorIN6rclcpp9PublisherIN8std_msgs3msg7String_ISaIvEEES6_EEEC2Ev
FN:80,_ZN9__gnu_cxx13new_allocatorISt23_Sp_counted_ptr_inplaceIN6rclcpp4NodeESaIS3_ELNS_12_Lock_policyE2EEEC2Ev
FNDA:8,_ZN9__gnu_cxx13new_allocatorISt23_Sp_counted_ptr_inplaceIN6rclcpp4NodeESaIS3_ELNS_12_Lock_policyE2EEEC2Ev
FN:80,_ZN9__gnu_cxx13new_allocatorISt23_Sp_counted_ptr_inplaceIN6rclcpp9PublisherIN8std_msgs3msg7String_ISaIvEEES7_EESaIS9_ELNS_12_Lock_policyE2EEEC2Ev
FNDA:4,_ZN9__gnu_cxx13new_allocatorISt23_Sp_counted_ptr_inplaceIN6rclcpp9PublisherIN8std_msgs3msg7String_ISaIvEEES7_EESaIS9_ELNS_12_Lock_policyE2EEEC2Ev
FN:80,_ZN9__gnu_cxx13new_allocatorISt19_Sp_counted_deleterIPN6rclcpp12experimental19IntraProcessManagerEZNS2_7Context15get_sub_contextIS4_JEEESt10shared_ptrIT_EDpOT0_EUlS5_E_SaIvELNS_12_Lock_policyE2EEEC2Ev
FNDA:0,_ZN9__gnu_cxx13new_allocatorISt19_Sp_counted_deleterIPN6rclcpp12experimental19IntraProcessManagerEZNS2_7Context15get_sub_contextIS4_JEEESt10shared_ptrIT_EDpOT0_EUlS5_E_SaIvELNS_12_Lock_policyE2EEEC2Ev
FN:80,_ZN9__gnu_cxx13new_allocatorISt23_Sp_counted_ptr_inplaceIN6rclcpp15QOSEventHandlerIZNS2_9PublisherIN8std_msgs3msg7String_ISaIvEEES8_EC4EPNS2_15node_interfaces17NodeBaseInterfaceERKNSt7__cxx1112basic_stringIcSt11char_traitsIcESaIcEEERKNS2_3QoSERKNS2_29PublisherOptionsWithAllocatorIS8_EEEUlR35rmw_qos_incompatible_event_status_tE_St10shared_ptrI15rcl_publisher_tEEESaISZ_ELNS_12_Lock_policyE2EEEC2Ev
FNDA:2,_ZN9__gnu_cxx13new_allocatorISt23_Sp_counted_ptr_inplaceIN6rclcpp15QOSEventHandlerIZNS2_9PublisherIN8std_msgs3msg7String_ISaIvEEES8_EC4EPNS2_15node_interfaces17NodeBaseInterfaceERKNSt7__cxx1112basic_stringIcSt11char_traitsIcESaIcEEERKNS2_3QoSERKNS2_29PublisherOptionsWithAllocatorIS8_EEEUlR35rmw_qos_incompatible_event_status_tE_St10shared_ptrI15rcl_publisher_tEEESaISZ_ELNS_12_Lock_policyE2EEEC2Ev
FN:80,_ZN9__gnu_cxx13new_allocatorISt23_Sp_counted_ptr_inplaceIN6rclcpp15QOSEventHandlerISt8functionIFvR35rmw_qos_incompatible_event_status_tEESt10shared_ptrI15rcl_publisher_tEEESaISC_ELNS_12_Lock_policyE2EEEC2Ev
FNDA:0,_ZN9__gnu_cxx13new_allocatorISt23_Sp_counted_ptr_inplaceIN6rclcpp15QOSEventHandlerISt8functionIFvR35rmw_qos_incompatible_event_status_tEESt10shared_ptrI15rcl_publisher_tEEESaISC_ELNS_12_Lock_policyE2EEEC2Ev
FN:80,_ZN9__gnu_cxx13new_allocatorISt23_Sp_counted_ptr_inplaceIN6rclcpp15QOSEventHandlerISt8functionIFvR28rmw_liveliness_lost_status_tEESt10shared_ptrI15rcl_publisher_tEEESaISC_ELNS_12_Lock_policyE2EEEC2Ev
FNDA:0,_ZN9__gnu_cxx13new_allocatorISt23_Sp_counted_ptr_inplaceIN6rclcpp15QOSEventHandlerISt8functionIFvR28rmw_liveliness_lost_status_tEESt10shared_ptrI15rcl_publisher_tEEESaISC_ELNS_12_Lock_policyE2EEEC2Ev
FN:80,_ZN9__gnu_cxx13new_allocatorISt23_Sp_counted_ptr_inplaceIN6rclcpp15QOSEventHandlerISt8functionIFvR36rmw_offered_deadline_missed_status_tEESt10shared_ptrI15rcl_publisher_tEEESaISC_ELNS_12_Lock_policyE2EEEC2Ev
FNDA:0,_ZN9__gnu_cxx13new_allocatorISt23_Sp_counted_ptr_inplaceIN6rclcpp15QOSEventHandlerISt8functionIFvR36rmw_offered_deadline_missed_status_tEESt10shared_ptrI15rcl_publisher_tEEESaISC_ELNS_12_Lock_policyE2EEEC2Ev
FN:80,_ZN9__gnu_cxx13new_allocatorIcEC2Ev
FNDA:0,_ZN9__gnu_cxx13new_allocatorIcEC2Ev
FN:80,_ZN9__gnu_cxx13new_allocatorISt23_Sp_counted_ptr_inplaceISaIN8std_msgs3msg7String_ISaIvEEEESaIS7_ELNS_12_Lock_policyE2EEEC2Ev
FNDA:4,_ZN9__gnu_cxx13new_allocatorISt23_Sp_counted_ptr_inplaceISaIN8std_msgs3msg7String_ISaIvEEEESaIS7_ELNS_12_Lock_policyE2EEEC2Ev
FN:80,_ZN9__gnu_cxx13new_allocatorIN8std_msgs3msg7String_ISaIvEEEEC2Ev
FNDA:4,_ZN9__gnu_cxx13new_allocatorIN8std_msgs3msg7String_ISaIvEEEEC2Ev
FN:80,_ZN9__gnu_cxx13new_allocatorIPNSt8__detail15_Hash_node_baseEEC2Ev
FNDA:1,_ZN9__gnu_cxx13new_allocatorIPNSt8__detail15_Hash_node_baseEEC2Ev
FN:80,_ZN9__gnu_cxx13new_allocatorIN6rclcpp15QOSEventHandlerIZNS1_9PublisherIN8std_msgs3msg7String_ISaIvEEES7_EC4EPNS1_15node_interfaces17NodeBaseInterfaceERKNSt7__cxx1112basic_stringIcSt11char_traitsIcESaIcEEERKNS1_3QoSERKNS1_29PublisherOptionsWithAllocatorIS7_EEEUlR35rmw_qos_incompatible_event_status_tE_St10shared_ptrI15rcl_publisher_tEEEEC2Ev
FNDA:2,_ZN9__gnu_cxx13new_allocatorIN6rclcpp15QOSEventHandlerIZNS1_9PublisherIN8std_msgs3msg7String_ISaIvEEES7_EC4EPNS1_15node_interfaces17NodeBaseInterfaceERKNSt7__cxx1112basic_stringIcSt11char_traitsIcESaIcEEERKNS1_3QoSERKNS1_29PublisherOptionsWithAllocatorIS7_EEEUlR35rmw_qos_incompatible_event_status_tE_St10shared_ptrI15rcl_publisher_tEEEEC2Ev
FN:80,_ZN9__gnu_cxx13new_allocatorIN6rclcpp15QOSEventHandlerISt8functionIFvR35rmw_qos_incompatible_event_status_tEESt10shared_ptrI15rcl_publisher_tEEEEC2Ev
FNDA:0,_ZN9__gnu_cxx13new_allocatorIN6rclcpp15QOSEventHandlerISt8functionIFvR35rmw_qos_incompatible_event_status_tEESt10shared_ptrI15rcl_publisher_tEEEEC2Ev
FN:80,_ZN9__gnu_cxx13new_allocatorIN6rclcpp15QOSEventHandlerISt8functionIFvR28rmw_liveliness_lost_status_tEESt10shared_ptrI15rcl_publisher_tEEEEC2Ev
FNDA:0,_ZN9__gnu_cxx13new_allocatorIN6rclcpp15QOSEventHandlerISt8functionIFvR28rmw_liveliness_lost_status_tEESt10shared_ptrI15rcl_publisher_tEEEEC2Ev
FN:80,_ZN9__gnu_cxx13new_allocatorIN6rclcpp15QOSEventHandlerISt8functionIFvR36rmw_offered_deadline_missed_status_tEESt10shared_ptrI15rcl_publisher_tEEEEC2Ev
FNDA:0,_ZN9__gnu_cxx13new_allocatorIN6rclcpp15QOSEventHandlerISt8functionIFvR36rmw_offered_deadline_missed_status_tEESt10shared_ptrI15rcl_publisher_tEEEEC2Ev
FN:80,_ZN9__gnu_cxx13new_allocatorISaIvEEC2Ev
FNDA:8,_ZN9__gnu_cxx13new_allocatorISaIvEEC2Ev
FN:80,_ZN9__gnu_cxx13new_allocatorISaIN8std_msgs3msg7String_ISaIvEEEEEC2Ev
FNDA:2,_ZN9__gnu_cxx13new_allocatorISaIN8std_msgs3msg7String_ISaIvEEEEEC2Ev
FN:80,_ZN9__gnu_cxx13new_allocatorISt23_Sp_counted_ptr_inplaceIN8std_msgs3msg7String_ISaIvEEESaIS6_ELNS_12_Lock_policyE2EEEC2Ev
FNDA:0,_ZN9__gnu_cxx13new_allocatorISt23_Sp_counted_ptr_inplaceIN8std_msgs3msg7String_ISaIvEEESaIS6_ELNS_12_Lock_policyE2EEEC2Ev
FN:80,_ZN9__gnu_cxx13new_allocatorISt19_Sp_counted_deleterIPN8std_msgs3msg7String_ISaIvEEESt14default_deleteIS6_ES5_LNS_12_Lock_policyE2EEEC2Ev
FNDA:0,_ZN9__gnu_cxx13new_allocatorISt19_Sp_counted_deleterIPN8std_msgs3msg7String_ISaIvEEESt14default_deleteIS6_ES5_LNS_12_Lock_policyE2EEEC2Ev
FN:83,_ZN9__gnu_cxx13new_allocatorIN6rclcpp15QOSEventHandlerISt8functionIFvR36rmw_offered_deadline_missed_status_tEESt10shared_ptrI15rcl_publisher_tEEEEC2ERKSC_
FNDA:0,_ZN9__gnu_cxx13new_allocatorIN6rclcpp15QOSEventHandlerISt8functionIFvR36rmw_offered_deadline_missed_status_tEESt10shared_ptrI15rcl_publisher_tEEEEC2ERKSC_
FN:83,_ZN9__gnu_cxx13new_allocatorIN6rclcpp15QOSEventHandlerISt8functionIFvR35rmw_qos_incompatible_event_status_tEESt10shared_ptrI15rcl_publisher_tEEEEC2ERKSC_
FNDA:0,_ZN9__gnu_cxx13new_allocatorIN6rclcpp15QOSEventHandlerISt8functionIFvR35rmw_qos_incompatible_event_status_tEESt10shared_ptrI15rcl_publisher_tEEEEC2ERKSC_
FN:83,_ZN9__gnu_cxx13new_allocatorIN6rclcpp9PublisherIN8std_msgs3msg7String_ISaIvEEES6_EEEC2ERKS9_
FNDA:6,_ZN9__gnu_cxx13new_allocatorIN6rclcpp9PublisherIN8std_msgs3msg7String_ISaIvEEES6_EEEC2ERKS9_
FN:83,_ZN9__gnu_cxx13new_allocatorIN6rclcpp15QOSEventHandlerISt8functionIFvR28rmw_liveliness_lost_status_tEESt10shared_ptrI15rcl_publisher_tEEEEC2ERKSC_
FNDA:0,_ZN9__gnu_cxx13new_allocatorIN6rclcpp15QOSEventHandlerISt8functionIFvR28rmw_liveliness_lost_status_tEESt10shared_ptrI15rcl_publisher_tEEEEC2ERKSC_
FN:83,_ZN9__gnu_cxx13new_allocatorIN6rclcpp4NodeEEC2ERKS3_
FNDA:12,_ZN9__gnu_cxx13new_allocatorIN6rclcpp4NodeEEC2ERKS3_
FN:83,_ZN9__gnu_cxx13new_allocatorIcEC2ERKS1_
FNDA:0,_ZN9__gnu_cxx13new_allocatorIcEC2ERKS1_
FN:83,_ZN9__gnu_cxx13new_allocatorIN6rclcpp15QOSEventHandlerIZNS1_9PublisherIN8std_msgs3msg7String_ISaIvEEES7_EC4EPNS1_15node_interfaces17NodeBaseInterfaceERKNSt7__cxx1112basic_stringIcSt11char_traitsIcESaIcEEERKNS1_3QoSERKNS1_29PublisherOptionsWithAllocatorIS7_EEEUlR35rmw_qos_incompatible_event_status_tE_St10shared_ptrI15rcl_publisher_tEEEEC2ERKSZ_
FNDA:6,_ZN9__gnu_cxx13new_allocatorIN6rclcpp15QOSEventHandlerIZNS1_9PublisherIN8std_msgs3msg7String_ISaIvEEES7_EC4EPNS1_15node_interfaces17NodeBaseInterfaceERKNSt7__cxx1112basic_stringIcSt11char_traitsIcESaIcEEERKNS1_3QoSERKNS1_29PublisherOptionsWithAllocatorIS7_EEEUlR35rmw_qos_incompatible_event_status_tE_St10shared_ptrI15rcl_publisher_tEEEEC2ERKSZ_
FN:83,_ZN9__gnu_cxx13new_allocatorISaIvEEC2ERKS2_
FNDA:24,_ZN9__gnu_cxx13new_allocatorISaIvEEC2ERKS2_
FN:83,_ZN9__gnu_cxx13new_allocatorImEC2ERKS1_
FNDA:0,_ZN9__gnu_cxx13new_allocatorImEC2ERKS1_
FN:83,_ZN9__gnu_cxx13new_allocatorISaIN8std_msgs3msg7String_ISaIvEEEEEC2ERKS7_
FNDA:6,_ZN9__gnu_cxx13new_allocatorISaIN8std_msgs3msg7String_ISaIvEEEEEC2ERKS7_
FN:83,_ZN9__gnu_cxx13new_allocatorIN8std_msgs3msg7String_ISaIvEEEEC2ERKS6_
FNDA:0,_ZN9__gnu_cxx13new_allocatorIN8std_msgs3msg7String_ISaIvEEEEC2ERKS6_
FN:89,_ZN9__gnu_cxx13new_allocatorIdED2Ev
FNDA:40,_ZN9__gnu_cxx13new_allocatorIdED2Ev
FN:89,_ZN9__gnu_cxx13new_allocatorISt19_Sp_counted_deleterIPN6rclcpp12experimental19IntraProcessManagerEZNS2_7Context15get_sub_contextIS4_JEEESt10shared_ptrIT_EDpOT0_EUlS5_E_SaIvELNS_12_Lock_policyE2EEED2Ev
FNDA:0,_ZN9__gnu_cxx13new_allocatorISt19_Sp_counted_deleterIPN6rclcpp12experimental19IntraProcessManagerEZNS2_7Context15get_sub_contextIS4_JEEESt10shared_ptrIT_EDpOT0_EUlS5_E_SaIvELNS_12_Lock_policyE2EEED2Ev
FN:89,_ZN9__gnu_cxx13new_allocatorISt23_Sp_counted_ptr_inplaceIN6rclcpp15QOSEventHandlerIZNS2_9PublisherIN8std_msgs3msg7String_ISaIvEEES8_EC4EPNS2_15node_interfaces17NodeBaseInterfaceERKNSt7__cxx1112basic_stringIcSt11char_traitsIcESaIcEEERKNS2_3QoSERKNS2_29PublisherOptionsWithAllocatorIS8_EEEUlR35rmw_qos_incompatible_event_status_tE_St10shared_ptrI15rcl_publisher_tEEESaISZ_ELNS_12_Lock_policyE2EEED2Ev
FNDA:2,_ZN9__gnu_cxx13new_allocatorISt23_Sp_counted_ptr_inplaceIN6rclcpp15QOSEventHandlerIZNS2_9PublisherIN8std_msgs3msg7String_ISaIvEEES8_EC4EPNS2_15node_interfaces17NodeBaseInterfaceERKNSt7__cxx1112basic_stringIcSt11char_traitsIcESaIcEEERKNS2_3QoSERKNS2_29PublisherOptionsWithAllocatorIS8_EEEUlR35rmw_qos_incompatible_event_status_tE_St10shared_ptrI15rcl_publisher_tEEESaISZ_ELNS_12_Lock_policyE2EEED2Ev
FN:89,_ZN9__gnu_cxx13new_allocatorISt23_Sp_counted_ptr_inplaceISaIN8std_msgs3msg7String_ISaIvEEEESaIS7_ELNS_12_Lock_policyE2EEED2Ev
FNDA:4,_ZN9__gnu_cxx13new_allocatorISt23_Sp_counted_ptr_inplaceISaIN8std_msgs3msg7String_ISaIvEEEESaIS7_ELNS_12_Lock_policyE2EEED2Ev
FN:89,_ZN9__gnu_cxx13new_allocatorIlED2Ev
FNDA:40,_ZN9__gnu_cxx13new_allocatorIlED2Ev
FN:89,_ZN9__gnu_cxx13new_allocatorISt23_Sp_counted_ptr_inplaceIN6rclcpp15QOSEventHandlerISt8functionIFvR35rmw_qos_incompatible_event_status_tEESt10shared_ptrI15rcl_publisher_tEEESaISC_ELNS_12_Lock_policyE2EEED2Ev
FNDA:0,_ZN9__gnu_cxx13new_allocatorISt23_Sp_counted_ptr_inplaceIN6rclcpp15QOSEventHandlerISt8functionIFvR35rmw_qos_incompatible_event_status_tEESt10shared_ptrI15rcl_publisher_tEEESaISC_ELNS_12_Lock_policyE2EEED2Ev
FN:89,_ZN9__gnu_cxx13new_allocatorImED2Ev
FNDA:40,_ZN9__gnu_cxx13new_allocatorImED2Ev
FN:89,_ZN9__gnu_cxx13new_allocatorISt23_Sp_counted_ptr_inplaceIN6rclcpp15QOSEventHandlerISt8functionIFvR28rmw_liveliness_lost_status_tEESt10shared_ptrI15rcl_publisher_tEEESaISC_ELNS_12_Lock_policyE2EEED2Ev
FNDA:0,_ZN9__gnu_cxx13new_allocatorISt23_Sp_counted_ptr_inplaceIN6rclcpp15QOSEventHandlerISt8functionIFvR28rmw_liveliness_lost_status_tEESt10shared_ptrI15rcl_publisher_tEEESaISC_ELNS_12_Lock_policyE2EEED2Ev
FN:89,_ZN9__gnu_cxx13new_allocatorISt23_Sp_counted_ptr_inplaceIN6rclcpp15QOSEventHandlerISt8functionIFvR36rmw_offered_deadline_missed_status_tEESt10shared_ptrI15rcl_publisher_tEEESaISC_ELNS_12_Lock_policyE2EEED2Ev
FNDA:0,_ZN9__gnu_cxx13new_allocatorISt23_Sp_counted_ptr_inplaceIN6rclcpp15QOSEventHandlerISt8functionIFvR36rmw_offered_deadline_missed_status_tEESt10shared_ptrI15rcl_publisher_tEEESaISC_ELNS_12_Lock_policyE2EEED2Ev
FN:89,_ZN9__gnu_cxx13new_allocatorISt19_Sp_counted_deleterIPN8std_msgs3msg7String_ISaIvEEESt14default_deleteIS6_ES5_LNS_12_Lock_policyE2EEED2Ev
FNDA:0,_ZN9__gnu_cxx13new_allocatorISt19_Sp_counted_deleterIPN8std_msgs3msg7String_ISaIvEEESt14default_deleteIS6_ES5_LNS_12_Lock_policyE2EEED2Ev
FN:89,_ZN9__gnu_cxx13new_allocatorISt23_Sp_counted_ptr_inplaceISaIvESaIS2_ELNS_12_Lock_policyE2EEED2Ev
FNDA:36,_ZN9__gnu_cxx13new_allocatorISt23_Sp_counted_ptr_inplaceISaIvESaIS2_ELNS_12_Lock_policyE2EEED2Ev
FN:89,_ZN9__gnu_cxx13new_allocatorIN6rclcpp15QOSEventHandlerISt8functionIFvR36rmw_offered_deadline_missed_status_tEESt10shared_ptrI15rcl_publisher_tEEEED2Ev
FNDA:0,_ZN9__gnu_cxx13new_allocatorIN6rclcpp15QOSEventHandlerISt8functionIFvR36rmw_offered_deadline_missed_status_tEESt10shared_ptrI15rcl_publisher_tEEEED2Ev
FN:89,_ZN9__gnu_cxx13new_allocatorIcED2Ev
FNDA:0,_ZN9__gnu_cxx13new_allocatorIcED2Ev
FN:89,_ZN9__gnu_cxx13new_allocatorISaIvEED2Ev
FNDA:52,_ZN9__gnu_cxx13new_allocatorISaIvEED2Ev
FN:89,_ZN9__gnu_cxx13new_allocatorIN6rclcpp4NodeEED2Ev
FNDA:16,_ZN9__gnu_cxx13new_allocatorIN6rclcpp4NodeEED2Ev
FN:89,_ZN9__gnu_cxx13new_allocatorIN6rclcpp15QOSEventHandlerISt8functionIFvR35rmw_qos_incompatible_event_status_tEESt10shared_ptrI15rcl_publisher_tEEEED2Ev
FNDA:0,_ZN9__gnu_cxx13new_allocatorIN6rclcpp15QOSEventHandlerISt8functionIFvR35rmw_qos_incompatible_event_status_tEESt10shared_ptrI15rcl_publisher_tEEEED2Ev
FN:89,_ZN9__gnu_cxx13new_allocatorINSt7__cxx1112basic_stringIcSt11char_traitsIcESaIcEEEED2Ev
FNDA:162,_ZN9__gnu_cxx13new_allocatorINSt7__cxx1112basic_stringIcSt11char_traitsIcESaIcEEEED2Ev
FN:89,_ZN9__gnu_cxx13new_allocatorIN6rclcpp9PublisherIN8std_msgs3msg7String_ISaIvEEES6_EEED2Ev
FNDA:8,_ZN9__gnu_cxx13new_allocatorIN6rclcpp9PublisherIN8std_msgs3msg7String_ISaIvEEES6_EEED2Ev
FN:89,_ZN9__gnu_cxx13new_allocatorISt23_Sp_counted_ptr_inplaceIN6rclcpp4NodeESaIS3_ELNS_12_Lock_policyE2EEED2Ev
FNDA:8,_ZN9__gnu_cxx13new_allocatorISt23_Sp_counted_ptr_inplaceIN6rclcpp4NodeESaIS3_ELNS_12_Lock_policyE2EEED2Ev
FN:89,_ZN9__gnu_cxx13new_allocatorIPNSt8__detail15_Hash_node_baseEED2Ev
FNDA:1,_ZN9__gnu_cxx13new_allocatorIPNSt8__detail15_Hash_node_baseEED2Ev
FN:89,_ZN9__gnu_cxx13new_allocatorISt23_Sp_counted_ptr_inplaceIN8std_msgs3msg7String_ISaIvEEESaIS6_ELNS_12_Lock_policyE2EEED2Ev
FNDA:0,_ZN9__gnu_cxx13new_allocatorISt23_Sp_counted_ptr_inplaceIN8std_msgs3msg7String_ISaIvEEESaIS6_ELNS_12_Lock_policyE2EEED2Ev
FN:89,_ZN9__gnu_cxx13new_allocatorIN6rclcpp15QOSEventHandlerIZNS1_9PublisherIN8std_msgs3msg7String_ISaIvEEES7_EC4EPNS1_15node_interfaces17NodeBaseInterfaceERKNSt7__cxx1112basic_stringIcSt11char_traitsIcESaIcEEERKNS1_3QoSERKNS1_29PublisherOptionsWithAllocatorIS7_EEEUlR35rmw_qos_incompatible_event_status_tE_St10shared_ptrI15rcl_publisher_tEEEED2Ev
FNDA:8,_ZN9__gnu_cxx13new_allocatorIN6rclcpp15QOSEventHandlerIZNS1_9PublisherIN8std_msgs3msg7String_ISaIvEEES7_EC4EPNS1_15node_interfaces17NodeBaseInterfaceERKNSt7__cxx1112basic_stringIcSt11char_traitsIcESaIcEEERKNS1_3QoSERKNS1_29PublisherOptionsWithAllocatorIS7_EEEUlR35rmw_qos_incompatible_event_status_tE_St10shared_ptrI15rcl_publisher_tEEEED2Ev
FN:89,_ZN9__gnu_cxx13new_allocatorIN6rclcpp9ParameterEED2Ev
FNDA:5,_ZN9__gnu_cxx13new_allocatorIN6rclcpp9ParameterEED2Ev
FN:89,_ZN9__gnu_cxx13new_allocatorISt23_Sp_counted_ptr_inplaceIN6rclcpp9PublisherIN8std_msgs3msg7String_ISaIvEEES7_EESaIS9_ELNS_12_Lock_policyE2EEED2Ev
FNDA:4,_ZN9__gnu_cxx13new_allocatorISt23_Sp_counted_ptr_inplaceIN6rclcpp9PublisherIN8std_msgs3msg7String_ISaIvEEES7_EESaIS9_ELNS_12_Lock_policyE2EEED2Ev
FN:89,_ZN9__gnu_cxx13new_allocatorISaIN8std_msgs3msg7String_ISaIvEEEEED2Ev
FNDA:8,_ZN9__gnu_cxx13new_allocatorISaIN8std_msgs3msg7String_ISaIvEEEEED2Ev
FN:89,_ZN9__gnu_cxx13new_allocatorIN8std_msgs3msg7String_ISaIvEEEED2Ev
FNDA:4,_ZN9__gnu_cxx13new_allocatorIN8std_msgs3msg7String_ISaIvEEEED2Ev
FN:89,_ZN9__gnu_cxx13new_allocatorIhED2Ev
FNDA:40,_ZN9__gnu_cxx13new_allocatorIhED2Ev
FN:89,_ZN9__gnu_cxx13new_allocatorIN6rclcpp15QOSEventHandlerISt8functionIFvR28rmw_liveliness_lost_status_tEESt10shared_ptrI15rcl_publisher_tEEEED2Ev
FNDA:0,_ZN9__gnu_cxx13new_allocatorIN6rclcpp15QOSEventHandlerISt8functionIFvR28rmw_liveliness_lost_status_tEESt10shared_ptrI15rcl_publisher_tEEEED2Ev
FN:102,_ZN9__gnu_cxx13new_allocatorIPNSt8__detail15_Hash_node_baseEE8allocateEmPKv
FNDA:1,_ZN9__gnu_cxx13new_allocatorIPNSt8__detail15_Hash_node_baseEE8allocateEmPKv
FN:102,_ZN9__gnu_cxx13new_allocatorISt10shared_ptrIN6rclcpp19QOSEventHandlerBaseEEE8allocateEmPKv
FNDA:0,_ZN9__gnu_cxx13new_allocatorISt10shared_ptrIN6rclcpp19QOSEventHandlerBaseEEE8allocateEmPKv
FN:102,_ZN9__gnu_cxx13new_allocatorIN8std_msgs3msg7String_ISaIvEEEE8allocateEmPKv
FNDA:10,_ZN9__gnu_cxx13new_allocatorIN8std_msgs3msg7String_ISaIvEEEE8allocateEmPKv
FN:102,_ZN9__gnu_cxx13new_allocatorISt19_Sp_counted_deleterIPN6rclcpp12experimental19IntraProcessManagerEZNS2_7Context15get_sub_contextIS4_JEEESt10shared_ptrIT_EDpOT0_EUlS5_E_SaIvELNS_12_Lock_policyE2EEE8allocateEmPKv
FNDA:0,_ZN9__gnu_cxx13new_allocatorISt19_Sp_counted_deleterIPN6rclcpp12experimental19IntraProcessManagerEZNS2_7Context15get_sub_contextIS4_JEEESt10shared_ptrIT_EDpOT0_EUlS5_E_SaIvELNS_12_Lock_policyE2EEE8allocateEmPKv
FN:102,_ZN9__gnu_cxx13new_allocatorISt19_Sp_counted_deleterIPN8std_msgs3msg7String_ISaIvEEESt14default_deleteIS6_ES5_LNS_12_Lock_policyE2EEE8allocateEmPKv
FNDA:0,_ZN9__gnu_cxx13new_allocatorISt19_Sp_counted_deleterIPN8std_msgs3msg7String_ISaIvEEESt14default_deleteIS6_ES5_LNS_12_Lock_policyE2EEE8allocateEmPKv
FN:102,_ZN9__gnu_cxx13new_allocatorISt23_Sp_counted_ptr_inplaceISaIN8std_msgs3msg7String_ISaIvEEEESaIS7_ELNS_12_Lock_policyE2EEE8allocateEmPKv
FNDA:2,_ZN9__gnu_cxx13new_allocatorISt23_Sp_counted_ptr_inplaceISaIN8std_msgs3msg7String_ISaIvEEEESaIS7_ELNS_12_Lock_policyE2EEE8allocateEmPKv
FN:102,_ZN9__gnu_cxx13new_allocatorISt23_Sp_counted_ptr_inplaceIN8std_msgs3msg7String_ISaIvEEESaIS6_ELNS_12_Lock_policyE2EEE8allocateEmPKv
FNDA:0,_ZN9__gnu_cxx13new_allocatorISt23_Sp_counted_ptr_inplaceIN8std_msgs3msg7String_ISaIvEEESaIS6_ELNS_12_Lock_policyE2EEE8allocateEmPKv
FN:102,_ZN9__gnu_cxx13new_allocatorISt23_Sp_counted_ptr_inplaceISaIvESaIS2_ELNS_12_Lock_policyE2EEE8allocateEmPKv
FNDA:8,_ZN9__gnu_cxx13new_allocatorISt23_Sp_counted_ptr_inplaceISaIvESaIS2_ELNS_12_Lock_policyE2EEE8allocateEmPKv
FN:102,_ZN9__gnu_cxx13new_allocatorISt23_Sp_counted_ptr_inplaceIN6rclcpp9PublisherIN8std_msgs3msg7String_ISaIvEEES7_EESaIS9_ELNS_12_Lock_policyE2EEE8allocateEmPKv
FNDA:2,_ZN9__gnu_cxx13new_allocatorISt23_Sp_counted_ptr_inplaceIN6rclcpp9PublisherIN8std_msgs3msg7String_ISaIvEEES7_EESaIS9_ELNS_12_Lock_policyE2EEE8allocateEmPKv
FN:102,_ZN9__gnu_cxx13new_allocatorISt23_Sp_counted_ptr_inplaceIN6rclcpp15QOSEventHandlerISt8functionIFvR36rmw_offered_deadline_missed_status_tEESt10shared_ptrI15rcl_publisher_tEEESaISC_ELNS_12_Lock_policyE2EEE8allocateEmPKv
FNDA:0,_ZN9__gnu_cxx13new_allocatorISt23_Sp_counted_ptr_inplaceIN6rclcpp15QOSEventHandlerISt8functionIFvR36rmw_offered_deadline_missed_status_tEESt10shared_ptrI15rcl_publisher_tEEESaISC_ELNS_12_Lock_policyE2EEE8allocateEmPKv
FN:102,_ZN9__gnu_cxx13new_allocatorINSt8__detail10_Hash_nodeISt4pairIKSt10type_indexSt10shared_ptrIvEELb0EEEE8allocateEmPKv
FNDA:0,_ZN9__gnu_cxx13new_allocatorINSt8__detail10_Hash_nodeISt4pairIKSt10type_indexSt10shared_ptrIvEELb0EEEE8allocateEmPKv
FN:102,_ZN9__gnu_cxx13new_allocatorISt23_Sp_counted_ptr_inplaceIN6rclcpp15QOSEventHandlerISt8functionIFvR28rmw_liveliness_lost_status_tEESt10shared_ptrI15rcl_publisher_tEEESaISC_ELNS_12_Lock_policyE2EEE8allocateEmPKv
FNDA:0,_ZN9__gnu_cxx13new_allocatorISt23_Sp_counted_ptr_inplaceIN6rclcpp15QOSEventHandlerISt8functionIFvR28rmw_liveliness_lost_status_tEESt10shared_ptrI15rcl_publisher_tEEESaISC_ELNS_12_Lock_policyE2EEE8allocateEmPKv
FN:102,_ZN9__gnu_cxx13new_allocatorISt23_Sp_counted_ptr_inplaceIN6rclcpp15QOSEventHandlerISt8functionIFvR35rmw_qos_incompatible_event_status_tEESt10shared_ptrI15rcl_publisher_tEEESaISC_ELNS_12_Lock_policyE2EEE8allocateEmPKv
FNDA:0,_ZN9__gnu_cxx13new_allocatorISt23_Sp_counted_ptr_inplaceIN6rclcpp15QOSEventHandlerISt8functionIFvR35rmw_qos_incompatible_event_status_tEESt10shared_ptrI15rcl_publisher_tEEESaISC_ELNS_12_Lock_policyE2EEE8allocateEmPKv
FN:102,_ZN9__gnu_cxx13new_allocatorISt23_Sp_counted_ptr_inplaceIN6rclcpp4NodeESaIS3_ELNS_12_Lock_policyE2EEE8allocateEmPKv
FNDA:4,_ZN9__gnu_cxx13new_allocatorISt23_Sp_counted_ptr_inplaceIN6rclcpp4NodeESaIS3_ELNS_12_Lock_policyE2EEE8allocateEmPKv
FN:102,_ZN9__gnu_cxx13new_allocatorISt23_Sp_counted_ptr_inplaceIN6rclcpp15QOSEventHandlerIZNS2_9PublisherIN8std_msgs3msg7String_ISaIvEEES8_EC4EPNS2_15node_interfaces17NodeBaseInterfaceERKNSt7__cxx1112basic_stringIcSt11char_traitsIcESaIcEEERKNS2_3QoSERKNS2_29PublisherOptionsWithAllocatorIS8_EEEUlR35rmw_qos_incompatible_event_status_tE_St10shared_ptrI15rcl_publisher_tEEESaISZ_ELNS_12_Lock_policyE2EEE8allocateEmPKv
FNDA:2,_ZN9__gnu_cxx13new_allocatorISt23_Sp_counted_ptr_inplaceIN6rclcpp15QOSEventHandlerIZNS2_9PublisherIN8std_msgs3msg7String_ISaIvEEES8_EC4EPNS2_15node_interfaces17NodeBaseInterfaceERKNSt7__cxx1112basic_stringIcSt11char_traitsIcESaIcEEERKNS2_3QoSERKNS2_29PublisherOptionsWithAllocatorIS8_EEEUlR35rmw_qos_incompatible_event_status_tE_St10shared_ptrI15rcl_publisher_tEEESaISZ_ELNS_12_Lock_policyE2EEE8allocateEmPKv
FN:102,_ZN9__gnu_cxx13new_allocatorImE8allocateEmPKv
FNDA:0,_ZN9__gnu_cxx13new_allocatorImE8allocateEmPKv
FN:119,_ZN9__gnu_cxx13new_allocatorIPNSt8__detail15_Hash_node_baseEE10deallocateEPS3_m
FNDA:0,_ZN9__gnu_cxx13new_allocatorIPNSt8__detail15_Hash_node_baseEE10deallocateEPS3_m
FN:119,_ZN9__gnu_cxx13new_allocatorIhE10deallocateEPhm
FNDA:0,_ZN9__gnu_cxx13new_allocatorIhE10deallocateEPhm
FN:119,_ZN9__gnu_cxx13new_allocatorIN8std_msgs3msg7String_ISaIvEEEE10deallocateEPS5_m
FNDA:10,_ZN9__gnu_cxx13new_allocatorIN8std_msgs3msg7String_ISaIvEEEE10deallocateEPS5_m
FN:119,_ZN9__gnu_cxx13new_allocatorISt19_Sp_counted_deleterIPN6rclcpp12experimental19IntraProcessManagerEZNS2_7Context15get_sub_contextIS4_JEEESt10shared_ptrIT_EDpOT0_EUlS5_E_SaIvELNS_12_Lock_policyE2EEE10deallocateEPSH_m
FNDA:0,_ZN9__gnu_cxx13new_allocatorISt19_Sp_counted_deleterIPN6rclcpp12experimental19IntraProcessManagerEZNS2_7Context15get_sub_contextIS4_JEEESt10shared_ptrIT_EDpOT0_EUlS5_E_SaIvELNS_12_Lock_policyE2EEE10deallocateEPSH_m
FN:119,_ZN9__gnu_cxx13new_allocatorISt23_Sp_counted_ptr_inplaceIN6rclcpp9PublisherIN8std_msgs3msg7String_ISaIvEEES7_EESaIS9_ELNS_12_Lock_policyE2EEE10deallocateEPSC_m
FNDA:2,_ZN9__gnu_cxx13new_allocatorISt23_Sp_counted_ptr_inplaceIN6rclcpp9PublisherIN8std_msgs3msg7String_ISaIvEEES7_EESaIS9_ELNS_12_Lock_policyE2EEE10deallocateEPSC_m
FN:119,_ZN9__gnu_cxx13new_allocatorINSt8__detail10_Hash_nodeISt4pairIKSt10type_indexSt10shared_ptrIvEELb0EEEE10deallocateEPS9_m
FNDA:0,_ZN9__gnu_cxx13new_allocatorINSt8__detail10_Hash_nodeISt4pairIKSt10type_indexSt10shared_ptrIvEELb0EEEE10deallocateEPS9_m
FN:119,_ZN9__gnu_cxx13new_allocatorISt23_Sp_counted_ptr_inplaceIN6rclcpp4NodeESaIS3_ELNS_12_Lock_policyE2EEE10deallocateEPS6_m
FNDA:4,_ZN9__gnu_cxx13new_allocatorISt23_Sp_counted_ptr_inplaceIN6rclcpp4NodeESaIS3_ELNS_12_Lock_policyE2EEE10deallocateEPS6_m
FN:119,_ZN9__gnu_cxx13new_allocatorINSt7__cxx1112basic_stringIcSt11char_traitsIcESaIcEEEE10deallocateEPS6_m
FNDA:41,_ZN9__gnu_cxx13new_allocatorINSt7__cxx1112basic_stringIcSt11char_traitsIcESaIcEEEE10deallocateEPS6_m
FN:119,_ZN9__gnu_cxx13new_allocatorImE10deallocateEPmm
FNDA:0,_ZN9__gnu_cxx13new_allocatorImE10deallocateEPmm
FN:119,_ZN9__gnu_cxx13new_allocatorIN6rclcpp9ParameterEE10deallocateEPS2_m
FNDA:0,_ZN9__gnu_cxx13new_allocatorIN6rclcpp9ParameterEE10deallocateEPS2_m
FN:119,_ZN9__gnu_cxx13new_allocatorIdE10deallocateEPdm
FNDA:0,_ZN9__gnu_cxx13new_allocatorIdE10deallocateEPdm
FN:119,_ZN9__gnu_cxx13new_allocatorIlE10deallocateEPlm
FNDA:0,_ZN9__gnu_cxx13new_allocatorIlE10deallocateEPlm
FN:119,_ZN9__gnu_cxx13new_allocatorISt23_Sp_counted_ptr_inplaceIN6rclcpp15QOSEventHandlerISt8functionIFvR36rmw_offered_deadline_missed_status_tEESt10shared_ptrI15rcl_publisher_tEEESaISC_ELNS_12_Lock_policyE2EEE10deallocateEPSF_m
FNDA:0,_ZN9__gnu_cxx13new_allocatorISt23_Sp_counted_ptr_inplaceIN6rclcpp15QOSEventHandlerISt8functionIFvR36rmw_offered_deadline_missed_status_tEESt10shared_ptrI15rcl_publisher_tEEESaISC_ELNS_12_Lock_policyE2EEE10deallocateEPSF_m
FN:119,_ZN9__gnu_cxx13new_allocatorISt23_Sp_counted_ptr_inplaceIN8std_msgs3msg7String_ISaIvEEESaIS6_ELNS_12_Lock_policyE2EEE10deallocateEPS9_m
FNDA:0,_ZN9__gnu_cxx13new_allocatorISt23_Sp_counted_ptr_inplaceIN8std_msgs3msg7String_ISaIvEEESaIS6_ELNS_12_Lock_policyE2EEE10deallocateEPS9_m
FN:119,_ZN9__gnu_cxx13new_allocatorISt23_Sp_counted_ptr_inplaceIN6rclcpp15QOSEventHandlerISt8functionIFvR28rmw_liveliness_lost_status_tEESt10shared_ptrI15rcl_publisher_tEEESaISC_ELNS_12_Lock_policyE2EEE10deallocateEPSF_m
FNDA:0,_ZN9__gnu_cxx13new_allocatorISt23_Sp_counted_ptr_inplaceIN6rclcpp15QOSEventHandlerISt8functionIFvR28rmw_liveliness_lost_status_tEESt10shared_ptrI15rcl_publisher_tEEESaISC_ELNS_12_Lock_policyE2EEE10deallocateEPSF_m
FN:119,_ZN9__gnu_cxx13new_allocatorISt23_Sp_counted_ptr_inplaceISaIvESaIS2_ELNS_12_Lock_policyE2EEE10deallocateEPS5_m
FNDA:28,_ZN9__gnu_cxx13new_allocatorISt23_Sp_counted_ptr_inplaceISaIvESaIS2_ELNS_12_Lock_policyE2EEE10deallocateEPS5_m
FN:119,_ZN9__gnu_cxx13new_allocatorISt19_Sp_counted_deleterIPN8std_msgs3msg7String_ISaIvEEESt14default_deleteIS6_ES5_LNS_12_Lock_policyE2EEE10deallocateEPSB_m
FNDA:0,_ZN9__gnu_cxx13new_allocatorISt19_Sp_counted_deleterIPN8std_msgs3msg7String_ISaIvEEESt14default_deleteIS6_ES5_LNS_12_Lock_policyE2EEE10deallocateEPSB_m
FN:119,_ZN9__gnu_cxx13new_allocatorISt23_Sp_counted_ptr_inplaceIN6rclcpp15QOSEventHandlerISt8functionIFvR35rmw_qos_incompatible_event_status_tEESt10shared_ptrI15rcl_publisher_tEEESaISC_ELNS_12_Lock_policyE2EEE10deallocateEPSF_m
FNDA:0,_ZN9__gnu_cxx13new_allocatorISt23_Sp_counted_ptr_inplaceIN6rclcpp15QOSEventHandlerISt8functionIFvR35rmw_qos_incompatible_event_status_tEESt10shared_ptrI15rcl_publisher_tEEESaISC_ELNS_12_Lock_policyE2EEE10deallocateEPSF_m
FN:119,_ZN9__gnu_cxx13new_allocatorISt23_Sp_counted_ptr_inplaceISaIN8std_msgs3msg7String_ISaIvEEEESaIS7_ELNS_12_Lock_policyE2EEE10deallocateEPSA_m
FNDA:2,_ZN9__gnu_cxx13new_allocatorISt23_Sp_counted_ptr_inplaceISaIN8std_msgs3msg7String_ISaIvEEEESaIS7_ELNS_12_Lock_policyE2EEE10deallocateEPSA_m
FN:119,_ZN9__gnu_cxx13new_allocatorISt10shared_ptrIN6rclcpp19QOSEventHandlerBaseEEE10deallocateEPS4_m
FNDA:0,_ZN9__gnu_cxx13new_allocatorISt10shared_ptrIN6rclcpp19QOSEventHandlerBaseEEE10deallocateEPS4_m
FN:119,_ZN9__gnu_cxx13new_allocatorISt23_Sp_counted_ptr_inplaceIN6rclcpp15QOSEventHandlerIZNS2_9PublisherIN8std_msgs3msg7String_ISaIvEEES8_EC4EPNS2_15node_interfaces17NodeBaseInterfaceERKNSt7__cxx1112basic_stringIcSt11char_traitsIcESaIcEEERKNS2_3QoSERKNS2_29PublisherOptionsWithAllocatorIS8_EEEUlR35rmw_qos_incompatible_event_status_tE_St10shared_ptrI15rcl_publisher_tEEESaISZ_ELNS_12_Lock_policyE2EEE10deallocateEPS12_m
FNDA:2,_ZN9__gnu_cxx13new_allocatorISt23_Sp_counted_ptr_inplaceIN6rclcpp15QOSEventHandlerIZNS2_9PublisherIN8std_msgs3msg7String_ISaIvEEES8_EC4EPNS2_15node_interfaces17NodeBaseInterfaceERKNSt7__cxx1112basic_stringIcSt11char_traitsIcESaIcEEERKNS2_3QoSERKNS2_29PublisherOptionsWithAllocatorIS8_EEEUlR35rmw_qos_incompatible_event_status_tE_St10shared_ptrI15rcl_publisher_tEEESaISZ_ELNS_12_Lock_policyE2EEE10deallocateEPS12_m
FN:132,_ZNK9__gnu_cxx13new_allocatorISt23_Sp_counted_ptr_inplaceIN6rclcpp15QOSEventHandlerISt8functionIFvR36rmw_offered_deadline_missed_status_tEESt10shared_ptrI15rcl_publisher_tEEESaISC_ELNS_12_Lock_policyE2EEE8max_sizeEv
FNDA:0,_ZNK9__gnu_cxx13new_allocatorISt23_Sp_counted_ptr_inplaceIN6rclcpp15QOSEventHandlerISt8functionIFvR36rmw_offered_deadline_missed_status_tEESt10shared_ptrI15rcl_publisher_tEEESaISC_ELNS_12_Lock_policyE2EEE8max_sizeEv
FN:132,_ZNK9__gnu_cxx13new_allocatorISt23_Sp_counted_ptr_inplaceIN6rclcpp4NodeESaIS3_ELNS_12_Lock_policyE2EEE8max_sizeEv
FNDA:4,_ZNK9__gnu_cxx13new_allocatorISt23_Sp_counted_ptr_inplaceIN6rclcpp4NodeESaIS3_ELNS_12_Lock_policyE2EEE8max_sizeEv
FN:132,_ZNK9__gnu_cxx13new_allocatorISt23_Sp_counted_ptr_inplaceISaIN8std_msgs3msg7String_ISaIvEEEESaIS7_ELNS_12_Lock_policyE2EEE8max_sizeEv
FNDA:2,_ZNK9__gnu_cxx13new_allocatorISt23_Sp_counted_ptr_inplaceISaIN8std_msgs3msg7String_ISaIvEEEESaIS7_ELNS_12_Lock_policyE2EEE8max_sizeEv
FN:132,_ZNK9__gnu_cxx13new_allocatorISt23_Sp_counted_ptr_inplaceISaIvESaIS2_ELNS_12_Lock_policyE2EEE8max_sizeEv
FNDA:8,_ZNK9__gnu_cxx13new_allocatorISt23_Sp_counted_ptr_inplaceISaIvESaIS2_ELNS_12_Lock_policyE2EEE8max_sizeEv
FN:132,_ZNK9__gnu_cxx13new_allocatorIPNSt8__detail15_Hash_node_baseEE8max_sizeEv
FNDA:1,_ZNK9__gnu_cxx13new_allocatorIPNSt8__detail15_Hash_node_baseEE8max_sizeEv
FN:132,_ZNK9__gnu_cxx13new_allocatorImE8max_sizeEv
FNDA:0,_ZNK9__gnu_cxx13new_allocatorImE8max_sizeEv
FN:132,_ZNK9__gnu_cxx13new_allocatorISt23_Sp_counted_ptr_inplaceIN6rclcpp15QOSEventHandlerISt8functionIFvR28rmw_liveliness_lost_status_tEESt10shared_ptrI15rcl_publisher_tEEESaISC_ELNS_12_Lock_policyE2EEE8max_sizeEv
FNDA:0,_ZNK9__gnu_cxx13new_allocatorISt23_Sp_counted_ptr_inplaceIN6rclcpp15QOSEventHandlerISt8functionIFvR28rmw_liveliness_lost_status_tEESt10shared_ptrI15rcl_publisher_tEEESaISC_ELNS_12_Lock_policyE2EEE8max_sizeEv
FN:132,_ZNK9__gnu_cxx13new_allocatorISt23_Sp_counted_ptr_inplaceIN6rclcpp15QOSEventHandlerISt8functionIFvR35rmw_qos_incompatible_event_status_tEESt10shared_ptrI15rcl_publisher_tEEESaISC_ELNS_12_Lock_policyE2EEE8max_sizeEv
FNDA:0,_ZNK9__gnu_cxx13new_allocatorISt23_Sp_counted_ptr_inplaceIN6rclcpp15QOSEventHandlerISt8functionIFvR35rmw_qos_incompatible_event_status_tEESt10shared_ptrI15rcl_publisher_tEEESaISC_ELNS_12_Lock_policyE2EEE8max_sizeEv
FN:132,_ZNK9__gnu_cxx13new_allocatorISt23_Sp_counted_ptr_inplaceIN6rclcpp15QOSEventHandlerIZNS2_9PublisherIN8std_msgs3msg7String_ISaIvEEES8_EC4EPNS2_15node_interfaces17NodeBaseInterfaceERKNSt7__cxx1112basic_stringIcSt11char_traitsIcESaIcEEERKNS2_3QoSERKNS2_29PublisherOptionsWithAllocatorIS8_EEEUlR35rmw_qos_incompatible_event_status_tE_St10shared_ptrI15rcl_publisher_tEEESaISZ_ELNS_12_Lock_policyE2EEE8max_sizeEv
FNDA:2,_ZNK9__gnu_cxx13new_allocatorISt23_Sp_counted_ptr_inplaceIN6rclcpp15QOSEventHandlerIZNS2_9PublisherIN8std_msgs3msg7String_ISaIvEEES8_EC4EPNS2_15node_interfaces17NodeBaseInterfaceERKNSt7__cxx1112basic_stringIcSt11char_traitsIcESaIcEEERKNS2_3QoSERKNS2_29PublisherOptionsWithAllocatorIS8_EEEUlR35rmw_qos_incompatible_event_status_tE_St10shared_ptrI15rcl_publisher_tEEESaISZ_ELNS_12_Lock_policyE2EEE8max_sizeEv
FN:132,_ZNK9__gnu_cxx13new_allocatorISt19_Sp_counted_deleterIPN8std_msgs3msg7String_ISaIvEEESt14default_deleteIS6_ES5_LNS_12_Lock_policyE2EEE8max_sizeEv
FNDA:0,_ZNK9__gnu_cxx13new_allocatorISt19_Sp_counted_deleterIPN8std_msgs3msg7String_ISaIvEEESt14default_deleteIS6_ES5_LNS_12_Lock_policyE2EEE8max_sizeEv
FN:132,_ZNK9__gnu_cxx13new_allocatorISt23_Sp_counted_ptr_inplaceIN8std_msgs3msg7String_ISaIvEEESaIS6_ELNS_12_Lock_policyE2EEE8max_sizeEv
FNDA:0,_ZNK9__gnu_cxx13new_allocatorISt23_Sp_counted_ptr_inplaceIN8std_msgs3msg7String_ISaIvEEESaIS6_ELNS_12_Lock_policyE2EEE8max_sizeEv
FN:132,_ZNK9__gnu_cxx13new_allocatorISt10shared_ptrIN6rclcpp19QOSEventHandlerBaseEEE8max_sizeEv
FNDA:0,_ZNK9__gnu_cxx13new_allocatorISt10shared_ptrIN6rclcpp19QOSEventHandlerBaseEEE8max_sizeEv
FN:132,_ZNK9__gnu_cxx13new_allocatorISt19_Sp_counted_deleterIPN6rclcpp12experimental19IntraProcessManagerEZNS2_7Context15get_sub_contextIS4_JEEESt10shared_ptrIT_EDpOT0_EUlS5_E_SaIvELNS_12_Lock_policyE2EEE8max_sizeEv
FNDA:0,_ZNK9__gnu_cxx13new_allocatorISt19_Sp_counted_deleterIPN6rclcpp12experimental19IntraProcessManagerEZNS2_7Context15get_sub_contextIS4_JEEESt10shared_ptrIT_EDpOT0_EUlS5_E_SaIvELNS_12_Lock_policyE2EEE8max_sizeEv
FN:132,_ZNK9__gnu_cxx13new_allocatorINSt8__detail10_Hash_nodeISt4pairIKSt10type_indexSt10shared_ptrIvEELb0EEEE8max_sizeEv
FNDA:0,_ZNK9__gnu_cxx13new_allocatorINSt8__detail10_Hash_nodeISt4pairIKSt10type_indexSt10shared_ptrIvEELb0EEEE8max_sizeEv
FN:132,_ZNK9__gnu_cxx13new_allocatorISt23_Sp_counted_ptr_inplaceIN6rclcpp9PublisherIN8std_msgs3msg7String_ISaIvEEES7_EESaIS9_ELNS_12_Lock_policyE2EEE8max_sizeEv
FNDA:2,_ZNK9__gnu_cxx13new_allocatorISt23_Sp_counted_ptr_inplaceIN6rclcpp9PublisherIN8std_msgs3msg7String_ISaIvEEES7_EESaIS9_ELNS_12_Lock_policyE2EEE8max_sizeEv
FN:132,_ZNK9__gnu_cxx13new_allocatorIN8std_msgs3msg7String_ISaIvEEEE8max_sizeEv
FNDA:10,_ZNK9__gnu_cxx13new_allocatorIN8std_msgs3msg7String_ISaIvEEEE8max_sizeEv
FN:144,_ZN9__gnu_cxx13new_allocatorIN6rclcpp15QOSEventHandlerISt8functionIFvR36rmw_offered_deadline_missed_status_tEESt10shared_ptrI15rcl_publisher_tEEEE9constructISB_JRKS7_RFiP11rcl_event_tPKS9_26rcl_publisher_event_type_tERSA_RKSK_EEEvPT_DpOT0_
FNDA:0,_ZN9__gnu_cxx13new_allocatorIN6rclcpp15QOSEventHandlerISt8functionIFvR36rmw_offered_deadline_missed_status_tEESt10shared_ptrI15rcl_publisher_tEEEE9constructISB_JRKS7_RFiP11rcl_event_tPKS9_26rcl_publisher_event_type_tERSA_RKSK_EEEvPT_DpOT0_
FN:144,_ZN9__gnu_cxx13new_allocatorIN8std_msgs3msg7String_ISaIvEEEE9constructIS5_JRKS5_EEEvPT_DpOT0_
FNDA:0,_ZN9__gnu_cxx13new_allocatorIN8std_msgs3msg7String_ISaIvEEEE9constructIS5_JRKS5_EEEvPT_DpOT0_
FN:144,_ZN9__gnu_cxx13new_allocatorIN8std_msgs3msg7String_ISaIvEEEE9constructIS5_JRS5_EEEvPT_DpOT0_
FNDA:0,_ZN9__gnu_cxx13new_allocatorIN8std_msgs3msg7String_ISaIvEEEE9constructIS5_JRS5_EEEvPT_DpOT0_
FN:144,_ZN9__gnu_cxx13new_allocatorISt19_Sp_counted_deleterIPN8std_msgs3msg7String_ISaIvEEESt14default_deleteIS6_ES5_LNS_12_Lock_policyE2EEE9constructISB_JS7_RS9_EEEvPT_DpOT0_
FNDA:0,_ZN9__gnu_cxx13new_allocatorISt19_Sp_counted_deleterIPN8std_msgs3msg7String_ISaIvEEESt14default_deleteIS6_ES5_LNS_12_Lock_policyE2EEE9constructISB_JS7_RS9_EEEvPT_DpOT0_
FN:144,_ZN9__gnu_cxx13new_allocatorISt10shared_ptrIN6rclcpp19QOSEventHandlerBaseEEE9constructIS4_JRS1_INS2_15QOSEventHandlerISt8functionIFvR35rmw_qos_incompatible_event_status_tEES1_I15rcl_publisher_tEEEEEEEvPT_DpOT0_
FNDA:0,_ZN9__gnu_cxx13new_allocatorISt10shared_ptrIN6rclcpp19QOSEventHandlerBaseEEE9constructIS4_JRS1_INS2_15QOSEventHandlerISt8functionIFvR35rmw_qos_incompatible_event_status_tEES1_I15rcl_publisher_tEEEEEEEvPT_DpOT0_
FN:144,_ZN9__gnu_cxx13new_allocatorISt10shared_ptrIN6rclcpp19QOSEventHandlerBaseEEE9constructIS4_JRS1_INS2_15QOSEventHandlerISt8functionIFvR28rmw_liveliness_lost_status_tEES1_I15rcl_publisher_tEEEEEEEvPT_DpOT0_
FNDA:0,_ZN9__gnu_cxx13new_allocatorISt10shared_ptrIN6rclcpp19QOSEventHandlerBaseEEE9constructIS4_JRS1_INS2_15QOSEventHandlerISt8functionIFvR28rmw_liveliness_lost_status_tEES1_I15rcl_publisher_tEEEEEEEvPT_DpOT0_
FN:144,_ZN9__gnu_cxx13new_allocatorISt10shared_ptrIN6rclcpp19QOSEventHandlerBaseEEE9constructIS4_JRS1_INS2_15QOSEventHandlerIZNS2_9PublisherIN8std_msgs3msg7String_ISaIvEEESC_EC4EPNS2_15node_interfaces17NodeBaseInterfaceERKNSt7__cxx1112basic_stringIcSt11char_traitsIcESaIcEEERKNS2_3QoSERKNS2_29PublisherOptionsWithAllocatorISC_EEEUlR35rmw_qos_incompatible_event_status_tE_S1_I15rcl_publisher_tEEEEEEEvPT_DpOT0_
FNDA:0,_ZN9__gnu_cxx13new_allocatorISt10shared_ptrIN6rclcpp19QOSEventHandlerBaseEEE9constructIS4_JRS1_INS2_15QOSEventHandlerIZNS2_9PublisherIN8std_msgs3msg7String_ISaIvEEESC_EC4EPNS2_15node_interfaces17NodeBaseInterfaceERKNSt7__cxx1112basic_stringIcSt11char_traitsIcESaIcEEERKNS2_3QoSERKNS2_29PublisherOptionsWithAllocatorISC_EEEUlR35rmw_qos_incompatible_event_status_tE_S1_I15rcl_publisher_tEEEEEEEvPT_DpOT0_
FN:144,_ZN9__gnu_cxx13new_allocatorISt10shared_ptrIN6rclcpp19QOSEventHandlerBaseEEE9constructIS4_JRS1_INS2_15QOSEventHandlerISt8functionIFvR36rmw_offered_deadline_missed_status_tEES1_I15rcl_publisher_tEEEEEEEvPT_DpOT0_
FNDA:0,_ZN9__gnu_cxx13new_allocatorISt10shared_ptrIN6rclcpp19QOSEventHandlerBaseEEE9constructIS4_JRS1_INS2_15QOSEventHandlerISt8functionIFvR36rmw_offered_deadline_missed_status_tEES1_I15rcl_publisher_tEEEEEEEvPT_DpOT0_
FN:144,_ZN9__gnu_cxx13new_allocatorISt10shared_ptrIN6rclcpp19QOSEventHandlerBaseEEE9constructIS4_JS4_EEEvPT_DpOT0_
FNDA:0,_ZN9__gnu_cxx13new_allocatorISt10shared_ptrIN6rclcpp19QOSEventHandlerBaseEEE9constructIS4_JS4_EEEvPT_DpOT0_
FN:144,_ZN9__gnu_cxx13new_allocatorINSt8__detail10_Hash_nodeISt4pairIKSt10type_indexSt10shared_ptrIvEELb0EEEE9constructIS8_JRKSt21piecewise_construct_tSt5tupleIJRS5_EESF_IJEEEEEvPT_DpOT0_
FNDA:0,_ZN9__gnu_cxx13new_allocatorINSt8__detail10_Hash_nodeISt4pairIKSt10type_indexSt10shared_ptrIvEELb0EEEE9constructIS8_JRKSt21piecewise_construct_tSt5tupleIJRS5_EESF_IJEEEEEvPT_DpOT0_
FN:144,_ZN9__gnu_cxx13new_allocatorIN6rclcpp15QOSEventHandlerIZNS1_9PublisherIN8std_msgs3msg7String_ISaIvEEES7_EC4EPNS1_15node_interfaces17NodeBaseInterfaceERKNSt7__cxx1112basic_stringIcSt11char_traitsIcESaIcEEERKNS1_3QoSERKNS1_29PublisherOptionsWithAllocatorIS7_EEEUlR35rmw_qos_incompatible_event_status_tE_St10shared_ptrI15rcl_publisher_tEEEE9constructISY_JRKSU_RFiP11rcl_event_tPKSW_26rcl_publisher_event_type_tERSX_RKS17_EEEvPT_DpOT0_
FNDA:2,_ZN9__gnu_cxx13new_allocatorIN6rclcpp15QOSEventHandlerIZNS1_9PublisherIN8std_msgs3msg7String_ISaIvEEES7_EC4EPNS1_15node_interfaces17NodeBaseInterfaceERKNSt7__cxx1112basic_stringIcSt11char_traitsIcESaIcEEERKNS1_3QoSERKNS1_29PublisherOptionsWithAllocatorIS7_EEEUlR35rmw_qos_incompatible_event_status_tE_St10shared_ptrI15rcl_publisher_tEEEE9constructISY_JRKSU_RFiP11rcl_event_tPKSW_26rcl_publisher_event_type_tERSX_RKS17_EEEvPT_DpOT0_
FN:144,_ZN9__gnu_cxx13new_allocatorIN6rclcpp15QOSEventHandlerISt8functionIFvR35rmw_qos_incompatible_event_status_tEESt10shared_ptrI15rcl_publisher_tEEEE9constructISB_JRKS7_RFiP11rcl_event_tPKS9_26rcl_publisher_event_type_tERSA_RKSK_EEEvPT_DpOT0_
FNDA:0,_ZN9__gnu_cxx13new_allocatorIN6rclcpp15QOSEventHandlerISt8functionIFvR35rmw_qos_incompatible_event_status_tEESt10shared_ptrI15rcl_publisher_tEEEE9constructISB_JRKS7_RFiP11rcl_event_tPKS9_26rcl_publisher_event_type_tERSA_RKSK_EEEvPT_DpOT0_
FN:144,_ZN9__gnu_cxx13new_allocatorIN6rclcpp9PublisherIN8std_msgs3msg7String_ISaIvEEES6_EEE9constructIS8_JRPNS1_15node_interfaces17NodeBaseInterfaceERKNSt7__cxx1112basic_stringIcSt11char_traitsIcESaIcEEERKNS1_3QoSERKNS1_29PublisherOptionsWithAllocatorIS6_EEEEEvPT_DpOT0_
FNDA:2,_ZN9__gnu_cxx13new_allocatorIN6rclcpp9PublisherIN8std_msgs3msg7String_ISaIvEEES6_EEE9constructIS8_JRPNS1_15node_interfaces17NodeBaseInterfaceERKNSt7__cxx1112basic_stringIcSt11char_traitsIcESaIcEEERKNS1_3QoSERKNS1_29PublisherOptionsWithAllocatorIS6_EEEEEvPT_DpOT0_
FN:144,_ZN9__gnu_cxx13new_allocatorIN6rclcpp4NodeEE9constructIS2_JRA18_KcEEEvPT_DpOT0_
FNDA:1,_ZN9__gnu_cxx13new_allocatorIN6rclcpp4NodeEE9constructIS2_JRA18_KcEEEvPT_DpOT0_
FN:144,_ZN9__gnu_cxx13new_allocatorISaIN8std_msgs3msg7String_ISaIvEEEEE9constructIS6_JRS4_EEEvPT_DpOT0_
FNDA:2,_ZN9__gnu_cxx13new_allocatorISaIN8std_msgs3msg7String_ISaIvEEEEE9constructIS6_JRS4_EEEvPT_DpOT0_
FN:144,_ZN9__gnu_cxx13new_allocatorIN6rclcpp15QOSEventHandlerISt8functionIFvR28rmw_liveliness_lost_status_tEESt10shared_ptrI15rcl_publisher_tEEEE9constructISB_JRKS7_RFiP11rcl_event_tPKS9_26rcl_publisher_event_type_tERSA_RKSK_EEEvPT_DpOT0_
FNDA:0,_ZN9__gnu_cxx13new_allocatorIN6rclcpp15QOSEventHandlerISt8functionIFvR28rmw_liveliness_lost_status_tEESt10shared_ptrI15rcl_publisher_tEEEE9constructISB_JRKS7_RFiP11rcl_event_tPKS9_26rcl_publisher_event_type_tERSA_RKSK_EEEvPT_DpOT0_
FN:144,_ZN9__gnu_cxx13new_allocatorISaIvEE9constructIS1_JEEEvPT_DpOT0_
FNDA:8,_ZN9__gnu_cxx13new_allocatorISaIvEE9constructIS1_JEEEvPT_DpOT0_
FN:150,_ZN9__gnu_cxx13new_allocatorIN8std_msgs3msg7String_ISaIvEEEE7destroyIS5_EEvPT_
FNDA:0,_ZN9__gnu_cxx13new_allocatorIN8std_msgs3msg7String_ISaIvEEEE7destroyIS5_EEvPT_
FN:150,_ZN9__gnu_cxx13new_allocatorIN6rclcpp4NodeEE7destroyIS2_EEvPT_
FNDA:4,_ZN9__gnu_cxx13new_allocatorIN6rclcpp4NodeEE7destroyIS2_EEvPT_
FN:150,_ZN9__gnu_cxx13new_allocatorIN6rclcpp9PublisherIN8std_msgs3msg7String_ISaIvEEES6_EEE7destroyIS8_EEvPT_
FNDA:2,_ZN9__gnu_cxx13new_allocatorIN6rclcpp9PublisherIN8std_msgs3msg7String_ISaIvEEES6_EEE7destroyIS8_EEvPT_
FN:150,_ZN9__gnu_cxx13new_allocatorISaIN8std_msgs3msg7String_ISaIvEEEEE7destroyIS6_EEvPT_
FNDA:2,_ZN9__gnu_cxx13new_allocatorISaIN8std_msgs3msg7String_ISaIvEEEEE7destroyIS6_EEvPT_
FN:150,_ZN9__gnu_cxx13new_allocatorISaIvEE7destroyIS1_EEvPT_
FNDA:28,_ZN9__gnu_cxx13new_allocatorISaIvEE7destroyIS1_EEvPT_
FN:150,_ZN9__gnu_cxx13new_allocatorIN6rclcpp15QOSEventHandlerISt8functionIFvR36rmw_offered_deadline_missed_status_tEESt10shared_ptrI15rcl_publisher_tEEEE7destroyISB_EEvPT_
FNDA:0,_ZN9__gnu_cxx13new_allocatorIN6rclcpp15QOSEventHandlerISt8functionIFvR36rmw_offered_deadline_missed_status_tEESt10shared_ptrI15rcl_publisher_tEEEE7destroyISB_EEvPT_
FN:150,_ZN9__gnu_cxx13new_allocatorIN6rclcpp15QOSEventHandlerISt8functionIFvR28rmw_liveliness_lost_status_tEESt10shared_ptrI15rcl_publisher_tEEEE7destroyISB_EEvPT_
FNDA:0,_ZN9__gnu_cxx13new_allocatorIN6rclcpp15QOSEventHandlerISt8functionIFvR28rmw_liveliness_lost_status_tEESt10shared_ptrI15rcl_publisher_tEEEE7destroyISB_EEvPT_
FN:150,_ZN9__gnu_cxx13new_allocatorIN6rclcpp15QOSEventHandlerISt8functionIFvR35rmw_qos_incompatible_event_status_tEESt10shared_ptrI15rcl_publisher_tEEEE7destroyISB_EEvPT_
FNDA:0,_ZN9__gnu_cxx13new_allocatorIN6rclcpp15QOSEventHandlerISt8functionIFvR35rmw_qos_incompatible_event_status_tEESt10shared_ptrI15rcl_publisher_tEEEE7destroyISB_EEvPT_
FN:150,_ZN9__gnu_cxx13new_allocatorIN6rclcpp15QOSEventHandlerIZNS1_9PublisherIN8std_msgs3msg7String_ISaIvEEES7_EC4EPNS1_15node_interfaces17NodeBaseInterfaceERKNSt7__cxx1112basic_stringIcSt11char_traitsIcESaIcEEERKNS1_3QoSERKNS1_29PublisherOptionsWithAllocatorIS7_EEEUlR35rmw_qos_incompatible_event_status_tE_St10shared_ptrI15rcl_publisher_tEEEE7destroyISY_EEvPT_
FNDA:0,_ZN9__gnu_cxx13new_allocatorIN6rclcpp15QOSEventHandlerIZNS1_9PublisherIN8std_msgs3msg7String_ISaIvEEES7_EC4EPNS1_15node_interfaces17NodeBaseInterfaceERKNSt7__cxx1112basic_stringIcSt11char_traitsIcESaIcEEERKNS1_3QoSERKNS1_29PublisherOptionsWithAllocatorIS7_EEEUlR35rmw_qos_incompatible_event_status_tE_St10shared_ptrI15rcl_publisher_tEEEE7destroyISY_EEvPT_
FN:150,_ZN9__gnu_cxx13new_allocatorISt10shared_ptrIN6rclcpp19QOSEventHandlerBaseEEE7destroyIS4_EEvPT_
FNDA:0,_ZN9__gnu_cxx13new_allocatorISt10shared_ptrIN6rclcpp19QOSEventHandlerBaseEEE7destroyIS4_EEvPT_
FN:150,_ZN9__gnu_cxx13new_allocatorINSt8__detail10_Hash_nodeISt4pairIKSt10type_indexSt10shared_ptrIvEELb0EEEE7destroyIS8_EEvPT_
FNDA:0,_ZN9__gnu_cxx13new_allocatorINSt8__detail10_Hash_nodeISt4pairIKSt10type_indexSt10shared_ptrIvEELb0EEEE7destroyIS8_EEvPT_
DA:80,0
DA:80,0
DA:80,4
DA:80,2
DA:80,8
DA:80,4
DA:80,0
DA:80,4
DA:80,1
DA:80,2
DA:80,8
DA:80,0
DA:80,0
DA:80,0
DA:80,2
DA:80,4
DA:80,36
DA:80,0
DA:80,0
DA:80,0
DA:80,2
DA:80,0
DA:83,0
DA:83,6
DA:83,0
DA:83,0
DA:83,0
DA:83,24
DA:83,6
DA:83,6
DA:83,12
DA:83,0
DA:83,0
DA:89,1
DA:89,0
DA:89,162
DA:89,40
DA:89,40
DA:89,40
DA:89,40
DA:89,5
DA:89,16
DA:89,8
DA:89,8
DA:89,4
DA:89,0
DA:89,4
DA:89,0
DA:89,8
DA:89,52
DA:89,0
DA:89,0
DA:89,0
DA:89,8
DA:89,4
DA:89,36
DA:89,0
DA:89,0
DA:89,0
DA:89,2
DA:89,0
DA:102,0
DA:104,0
DA:105,0
DA:114,0
DA:102,0
DA:104,0
DA:105,0
DA:114,0
DA:102,2
DA:104,2
DA:105,0
DA:114,2
DA:102,0
DA:104,0
DA:105,0
DA:114,0
DA:102,0
DA:104,0
DA:105,0
DA:114,0
DA:102,0
DA:104,0
DA:105,0
DA:114,0
DA:102,8
DA:104,8
DA:105,0
DA:114,8
DA:102,2
DA:104,2
DA:105,0
DA:114,2
DA:102,0
DA:104,0
DA:105,0
DA:114,0
DA:102,10
DA:104,10
DA:105,0
DA:114,10
DA:102,1
DA:104,1
DA:105,0
DA:114,1
DA:102,0
DA:104,0
DA:105,0
DA:114,0
DA:102,2
DA:104,2
DA:105,0
DA:114,2
DA:102,0
DA:104,0
DA:105,0
DA:114,0
DA:102,4
DA:104,4
DA:105,0
DA:114,4
DA:102,0
DA:104,0
DA:105,0
DA:114,0
DA:119,0
DA:128,0
DA:119,41
DA:128,41
DA:119,0
DA:128,0
DA:119,0
DA:128,0
DA:119,0
DA:128,0
DA:119,0
DA:128,0
DA:119,0
DA:128,0
DA:119,4
DA:128,4
DA:119,0
DA:128,0
DA:119,2
DA:128,2
DA:119,0
DA:128,0
DA:119,0
DA:128,0
DA:119,10
DA:128,10
DA:119,0
DA:128,0
DA:119,2
DA:128,2
DA:119,28
DA:128,28
DA:119,0
DA:128,0
DA:119,0
DA:128,0
DA:119,0
DA:128,0
DA:119,2
DA:128,2
DA:119,0
DA:128,0
DA:132,0
DA:135,0
DA:132,0
DA:135,0
DA:132,2
DA:135,2
DA:132,0
DA:135,0
DA:132,0
DA:135,0
DA:132,0
DA:135,0
DA:132,8
DA:135,8
DA:132,2
DA:135,2
DA:132,0
DA:135,0
DA:132,10
DA:135,10
DA:132,1
DA:135,1
DA:132,0
DA:135,0
DA:132,2
DA:135,2
DA:132,0
DA:135,0
DA:132,4
DA:135,4
DA:132,0
DA:135,0
DA:144,8
DA:146,8
DA:144,1
DA:146,1
DA:144,0
DA:146,0
DA:144,2
DA:146,2
DA:144,0
DA:146,0
DA:144,0
DA:146,0
DA:144,0
DA:146,0
DA:144,0
DA:146,0
DA:144,2
DA:146,2
DA:144,0
DA:146,0
DA:144,0
DA:146,0
DA:144,0
DA:146,0
DA:144,0
DA:146,0
DA:144,2
DA:146,4
DA:144,0
DA:146,0
DA:144,0
DA:146,0
DA:144,0
DA:146,0
DA:150,0
DA:152,0
DA:150,4
DA:152,4
DA:150,2
DA:152,2
DA:150,2
DA:152,2
DA:150,28
DA:152,28
DA:150,0
DA:152,0
DA:150,0
DA:152,0
DA:150,0
DA:152,0
DA:150,0
DA:152,0
DA:150,0
DA:152,0
DA:150,0
DA:152,0
end_of_record
SF:/opt/ros/foxy/src/gtest_vendor/include/gtest/gtest-message.h
end_of_record
SF:/usr/include/c++/9/bits/cpp_type_traits.h
FN:428,_ZSt12__miter_baseIN9__gnu_cxx17__normal_iteratorIPKmSt6vectorImSaImEEEEET_S8_
FNDA:0,_ZSt12__miter_baseIN9__gnu_cxx17__normal_iteratorIPKmSt6vectorImSaImEEEEET_S8_
FN:428,_ZSt12__miter_baseIPmET_S1_
FNDA:0,_ZSt12__miter_baseIPmET_S1_
DA:428,0
DA:429,0
DA:428,0
DA:429,0
end_of_record
SF:/opt/ros/foxy/include/rclcpp/allocator/allocator_deleter.hpp
FN:80,_ZN6rclcpp9allocator25set_allocator_for_deleterIN8std_msgs3msg7String_ISaIvEEES6_EEvPSt14default_deleteIT_EPSaIT0_E
FNDA:2,_ZN6rclcpp9allocator25set_allocator_for_deleterIN8std_msgs3msg7String_ISaIvEEES6_EEvPSt14default_deleteIT_EPSaIT0_E
DA:80,2
DA:84,2
end_of_record
SF:/usr/include/c++/9/bits/stl_vector.h
FN:94,_ZNSt12_Vector_baseImSaImEE17_Vector_impl_dataC2Ev
FNDA:0,_ZNSt12_Vector_baseImSaImEE17_Vector_impl_dataC2Ev
FN:133,_ZNSt12_Vector_baseImSaImEE12_Vector_implC2ERKS0_
FNDA:0,_ZNSt12_Vector_baseImSaImEE12_Vector_implC2ERKS0_
FN:273,_ZNSt12_Vector_baseIhSaIhEE19_M_get_Tp_allocatorEv
FNDA:40,_ZNSt12_Vector_baseIhSaIhEE19_M_get_Tp_allocatorEv
FN:273,_ZNSt12_Vector_baseIlSaIlEE19_M_get_Tp_allocatorEv
FNDA:40,_ZNSt12_Vector_baseIlSaIlEE19_M_get_Tp_allocatorEv
FN:273,_ZNSt12_Vector_baseIdSaIdEE19_M_get_Tp_allocatorEv
FNDA:40,_ZNSt12_Vector_baseIdSaIdEE19_M_get_Tp_allocatorEv
FN:273,_ZNSt12_Vector_baseINSt7__cxx1112basic_stringIcSt11char_traitsIcESaIcEEESaIS5_EE19_M_get_Tp_allocatorEv
FNDA:198,_ZNSt12_Vector_baseINSt7__cxx1112basic_stringIcSt11char_traitsIcESaIcEEESaIS5_EE19_M_get_Tp_allocatorEv
FN:273,_ZNSt12_Vector_baseISt10shared_ptrIN6rclcpp19QOSEventHandlerBaseEESaIS3_EE19_M_get_Tp_allocatorEv
FNDA:0,_ZNSt12_Vector_baseISt10shared_ptrIN6rclcpp19QOSEventHandlerBaseEESaIS3_EE19_M_get_Tp_allocatorEv
FN:273,_ZNSt12_Vector_baseImSaImEE19_M_get_Tp_allocatorEv
FNDA:0,_ZNSt12_Vector_baseImSaImEE19_M_get_Tp_allocatorEv
FN:273,_ZNSt12_Vector_baseIN6rclcpp9ParameterESaIS1_EE19_M_get_Tp_allocatorEv
FNDA:5,_ZNSt12_Vector_baseIN6rclcpp9ParameterESaIS1_EE19_M_get_Tp_allocatorEv
FN:277,_ZNKSt12_Vector_baseISt10shared_ptrIN6rclcpp19QOSEventHandlerBaseEESaIS3_EE19_M_get_Tp_allocatorEv
FNDA:0,_ZNKSt12_Vector_baseISt10shared_ptrIN6rclcpp19QOSEventHandlerBaseEESaIS3_EE19_M_get_Tp_allocatorEv
FN:277,_ZNKSt12_Vector_baseImSaImEE19_M_get_Tp_allocatorEv
FNDA:0,_ZNKSt12_Vector_baseImSaImEE19_M_get_Tp_allocatorEv
FN:300,_ZNSt12_Vector_baseImSaImEEC2EmRKS0_
FNDA:0,_ZNSt12_Vector_baseImSaImEEC2EmRKS0_
FN:330,_ZNSt12_Vector_baseIhSaIhEED2Ev
FNDA:40,_ZNSt12_Vector_baseIhSaIhEED2Ev
FN:330,_ZNSt12_Vector_baseIN6rclcpp9ParameterESaIS1_EED2Ev
FNDA:5,_ZNSt12_Vector_baseIN6rclcpp9ParameterESaIS1_EED2Ev
FN:330,_ZNSt12_Vector_baseIdSaIdEED2Ev
FNDA:40,_ZNSt12_Vector_baseIdSaIdEED2Ev
FN:330,_ZNSt12_Vector_baseIlSaIlEED2Ev
FNDA:40,_ZNSt12_Vector_baseIlSaIlEED2Ev
FN:330,_ZNSt12_Vector_baseINSt7__cxx1112basic_stringIcSt11char_traitsIcESaIcEEESaIS5_EED2Ev
FNDA:86,_ZNSt12_Vector_baseINSt7__cxx1112basic_stringIcSt11char_traitsIcESaIcEEESaIS5_EED2Ev
FN:330,_ZNSt12_Vector_baseImSaImEED2Ev
FNDA:0,_ZNSt12_Vector_baseImSaImEED2Ev
FN:340,_ZNSt12_Vector_baseImSaImEE11_M_allocateEm
FNDA:0,_ZNSt12_Vector_baseImSaImEE11_M_allocateEm
FN:340,_ZNSt12_Vector_baseISt10shared_ptrIN6rclcpp19QOSEventHandlerBaseEESaIS3_EE11_M_allocateEm
FNDA:0,_ZNSt12_Vector_baseISt10shared_ptrIN6rclcpp19QOSEventHandlerBaseEESaIS3_EE11_M_allocateEm
FN:347,_ZNSt12_Vector_baseIhSaIhEE13_M_deallocateEPhm
FNDA:40,_ZNSt12_Vector_baseIhSaIhEE13_M_deallocateEPhm
FN:347,_ZNSt12_Vector_baseIlSaIlEE13_M_deallocateEPlm
FNDA:40,_ZNSt12_Vector_baseIlSaIlEE13_M_deallocateEPlm
FN:347,_ZNSt12_Vector_baseIdSaIdEE13_M_deallocateEPdm
FNDA:40,_ZNSt12_Vector_baseIdSaIdEE13_M_deallocateEPdm
FN:347,_ZNSt12_Vector_baseIN6rclcpp9ParameterESaIS1_EE13_M_deallocateEPS1_m
FNDA:5,_ZNSt12_Vector_baseIN6rclcpp9ParameterESaIS1_EE13_M_deallocateEPS1_m
FN:347,_ZNSt12_Vector_baseINSt7__cxx1112basic_stringIcSt11char_traitsIcESaIcEEESaIS5_EE13_M_deallocateEPS5_m
FNDA:104,_ZNSt12_Vector_baseINSt7__cxx1112basic_stringIcSt11char_traitsIcESaIcEEESaIS5_EE13_M_deallocateEPS5_m
FN:347,_ZNSt12_Vector_baseImSaImEE13_M_deallocateEPmm
FNDA:0,_ZNSt12_Vector_baseImSaImEE13_M_deallocateEPmm
FN:347,_ZNSt12_Vector_baseISt10shared_ptrIN6rclcpp19QOSEventHandlerBaseEESaIS3_EE13_M_deallocateEPS3_m
FNDA:0,_ZNSt12_Vector_baseISt10shared_ptrIN6rclcpp19QOSEventHandlerBaseEESaIS3_EE13_M_deallocateEPS3_m
FN:356,_ZNSt12_Vector_baseImSaImEE17_M_create_storageEm
FNDA:0,_ZNSt12_Vector_baseImSaImEE17_M_create_storageEm
FN:450,_ZNSt6vectorISt10shared_ptrIN6rclcpp19QOSEventHandlerBaseEESaIS3_EE14_S_do_relocateEPS3_S6_S6_RS4_St17integral_constantIbLb1EE
FNDA:0,_ZNSt6vectorISt10shared_ptrIN6rclcpp19QOSEventHandlerBaseEESaIS3_EE14_S_do_relocateEPS3_S6_S6_RS4_St17integral_constantIbLb1EE
FN:462,_ZNSt6vectorISt10shared_ptrIN6rclcpp19QOSEventHandlerBaseEESaIS3_EE11_S_relocateEPS3_S6_S6_RS4_
FNDA:0,_ZNSt6vectorISt10shared_ptrIN6rclcpp19QOSEventHandlerBaseEESaIS3_EE11_S_relocateEPS3_S6_S6_RS4_
FN:550,_ZNSt6vectorImSaImEEC2ERKS1_
FNDA:0,_ZNSt6vectorImSaImEEC2ERKS1_
FN:675,_ZNSt6vectorINSt7__cxx1112basic_stringIcSt11char_traitsIcESaIcEEESaIS5_EED2Ev
FNDA:86,_ZNSt6vectorINSt7__cxx1112basic_stringIcSt11char_traitsIcESaIcEEESaIS5_EED2Ev
FN:675,_ZNSt6vectorIhSaIhEED2Ev
FNDA:40,_ZNSt6vectorIhSaIhEED2Ev
FN:675,_ZNSt6vectorIN6rclcpp9ParameterESaIS1_EED2Ev
FNDA:5,_ZNSt6vectorIN6rclcpp9ParameterESaIS1_EED2Ev
FN:675,_ZNSt6vectorIlSaIlEED2Ev
FNDA:40,_ZNSt6vectorIlSaIlEED2Ev
FN:675,_ZNSt6vectorImSaImEED2Ev
FNDA:0,_ZNSt6vectorImSaImEED2Ev
FN:675,_ZNSt6vectorIdSaIdEED2Ev
FNDA:40,_ZNSt6vectorIdSaIdEED2Ev
FN:808,_ZNSt6vectorISt10shared_ptrIN6rclcpp19QOSEventHandlerBaseEESaIS3_EE5beginEv
FNDA:0,_ZNSt6vectorISt10shared_ptrIN6rclcpp19QOSEventHandlerBaseEESaIS3_EE5beginEv
FN:808,_ZNSt6vectorImSaImEE5beginEv
FNDA:0,_ZNSt6vectorImSaImEE5beginEv
FN:817,_ZNKSt6vectorImSaImEE5beginEv
FNDA:0,_ZNKSt6vectorImSaImEE5beginEv
FN:826,_ZNSt6vectorISt10shared_ptrIN6rclcpp19QOSEventHandlerBaseEESaIS3_EE3endEv
FNDA:0,_ZNSt6vectorISt10shared_ptrIN6rclcpp19QOSEventHandlerBaseEESaIS3_EE3endEv
FN:826,_ZNSt6vectorImSaImEE3endEv
FNDA:0,_ZNSt6vectorImSaImEE3endEv
FN:835,_ZNKSt6vectorImSaImEE3endEv
FNDA:0,_ZNKSt6vectorImSaImEE3endEv
FN:881,_ZNKSt6vectorImSaImEE6cbeginEv
FNDA:0,_ZNKSt6vectorImSaImEE6cbeginEv
FN:915,_ZNKSt6vectorISt10shared_ptrIN6rclcpp19QOSEventHandlerBaseEESaIS3_EE4sizeEv
FNDA:0,_ZNKSt6vectorISt10shared_ptrIN6rclcpp19QOSEventHandlerBaseEESaIS3_EE4sizeEv
FN:915,_ZNKSt6vectorImSaImEE4sizeEv
FNDA:0,_ZNKSt6vectorImSaImEE4sizeEv
FN:920,_ZNKSt6vectorISt10shared_ptrIN6rclcpp19QOSEventHandlerBaseEESaIS3_EE8max_sizeEv
FNDA:0,_ZNKSt6vectorISt10shared_ptrIN6rclcpp19QOSEventHandlerBaseEESaIS3_EE8max_sizeEv
FN:920,_ZNKSt6vectorImSaImEE8max_sizeEv
FNDA:0,_ZNKSt6vectorImSaImEE8max_sizeEv
FN:1004,_ZNKSt6vectorImSaImEE5emptyEv
FNDA:0,_ZNKSt6vectorImSaImEE5emptyEv
FN:1140,_ZNSt6vectorISt10shared_ptrIN6rclcpp19QOSEventHandlerBaseEESaIS3_EE4backEv
FNDA:0,_ZNSt6vectorISt10shared_ptrIN6rclcpp19QOSEventHandlerBaseEESaIS3_EE4backEv
FN:1376,_ZNSt6vectorImSaImEE6insertIN9__gnu_cxx17__normal_iteratorIPKmS1_EEvEENS4_IPmS1_EES7_T_SA_
FNDA:0,_ZNSt6vectorImSaImEE6insertIN9__gnu_cxx17__normal_iteratorIPKmS1_EEvEENS4_IPmS1_EES7_T_SA_
FN:1659,_ZNSt6vectorImSaImEE18_M_insert_dispatchIN9__gnu_cxx17__normal_iteratorIPKmS1_EEEEvNS4_IPmS1_EET_SA_St12__false_type
FNDA:0,_ZNSt6vectorImSaImEE18_M_insert_dispatchIN9__gnu_cxx17__normal_iteratorIPKmS1_EEEEvNS4_IPmS1_EET_SA_St12__false_type
FN:1753,_ZNKSt6vectorISt10shared_ptrIN6rclcpp19QOSEventHandlerBaseEESaIS3_EE12_M_check_lenEmPKc
FNDA:0,_ZNKSt6vectorISt10shared_ptrIN6rclcpp19QOSEventHandlerBaseEESaIS3_EE12_M_check_lenEmPKc
FN:1753,_ZNKSt6vectorImSaImEE12_M_check_lenEmPKc
FNDA:0,_ZNKSt6vectorImSaImEE12_M_check_lenEmPKc
FN:1773,_ZNSt6vectorImSaImEE11_S_max_sizeERKS0_
FNDA:0,_ZNSt6vectorImSaImEE11_S_max_sizeERKS0_
FN:1773,_ZNSt6vectorISt10shared_ptrIN6rclcpp19QOSEventHandlerBaseEESaIS3_EE11_S_max_sizeERKS4_
FNDA:0,_ZNSt6vectorISt10shared_ptrIN6rclcpp19QOSEventHandlerBaseEESaIS3_EE11_S_max_sizeERKS4_
DA:94,0
DA:95,0
DA:96,0
DA:133,0
DA:134,0
DA:135,0
DA:273,0
DA:274,0
DA:273,5
DA:274,5
DA:273,0
DA:274,0
DA:273,40
DA:274,40
DA:273,40
DA:274,40
DA:273,40
DA:274,40
DA:273,198
DA:274,198
DA:277,0
DA:278,0
DA:277,0
DA:278,0
DA:300,0
DA:301,0
DA:302,0
DA:330,0
DA:332,0
DA:333,0
DA:334,0
DA:330,5
DA:332,5
DA:333,5
DA:334,5
DA:330,40
DA:332,40
DA:333,40
DA:334,40
DA:330,40
DA:332,40
DA:333,40
DA:334,40
DA:330,40
DA:332,40
DA:333,40
DA:334,40
DA:330,86
DA:332,86
DA:333,86
DA:334,86
DA:340,0
DA:343,0
DA:340,0
DA:343,0
DA:347,0
DA:350,0
DA:351,0
DA:352,0
DA:347,0
DA:350,0
DA:351,0
DA:352,0
DA:347,5
DA:350,5
DA:351,0
DA:352,5
DA:347,40
DA:350,40
DA:351,0
DA:352,40
DA:347,40
DA:350,40
DA:351,0
DA:352,40
DA:347,40
DA:350,40
DA:351,0
DA:352,40
DA:347,104
DA:350,104
DA:351,41
DA:352,104
DA:356,0
DA:358,0
DA:359,0
DA:360,0
DA:361,0
DA:450,0
DA:453,0
DA:462,0
DA:466,0
DA:550,0
DA:552,0
DA:554,0
DA:555,0
DA:557,0
DA:558,0
DA:675,0
DA:677,0
DA:678,0
DA:680,0
DA:675,5
DA:677,5
DA:678,5
DA:680,5
DA:675,40
DA:677,40
DA:678,40
DA:680,40
DA:675,40
DA:677,40
DA:678,40
DA:680,40
DA:675,40
DA:677,40
DA:678,40
DA:680,40
DA:675,86
DA:677,86
DA:678,86
DA:680,86
DA:808,0
DA:809,0
DA:808,0
DA:809,0
DA:817,0
DA:818,0
DA:826,0
DA:827,0
DA:826,0
DA:827,0
DA:835,0
DA:836,0
DA:881,0
DA:882,0
DA:915,0
DA:916,0
DA:915,0
DA:916,0
DA:920,0
DA:921,0
DA:920,0
DA:921,0
DA:1004,0
DA:1005,0
DA:1140,0
DA:1143,0
DA:1376,0
DA:1379,0
DA:1380,0
DA:1382,0
DA:1659,0
DA:1662,0
DA:1663,0
DA:1664,0
DA:1753,0
DA:1755,0
DA:1756,0
DA:1758,0
DA:1759,0
DA:1753,0
DA:1755,0
DA:1756,0
DA:1758,0
DA:1759,0
DA:1773,0
DA:1778,0
DA:1780,0
DA:1781,0
DA:1773,0
DA:1778,0
DA:1780,0
DA:1781,0
end_of_record
SF:/usr/include/c++/9/utility
FN:174,_ZNSt10__pair_getILm0EE5__getIKmN6rclcpp12experimental19IntraProcessManager16SubscriptionInfoEEERT_RSt4pairIS7_T0_E
FNDA:0,_ZNSt10__pair_getILm0EE5__getIKmN6rclcpp12experimental19IntraProcessManager16SubscriptionInfoEEERT_RSt4pairIS7_T0_E
FN:174,_ZNSt10__pair_getILm0EE5__getIKmN6rclcpp12experimental19IntraProcessManager21SplittedSubscriptionsEEERT_RSt4pairIS7_T0_E
FNDA:0,_ZNSt10__pair_getILm0EE5__getIKmN6rclcpp12experimental19IntraProcessManager21SplittedSubscriptionsEEERT_RSt4pairIS7_T0_E
FN:174,_ZNSt10__pair_getILm0EE5__getIKSt10type_indexSt10shared_ptrIvEEERT_RSt4pairIS6_T0_E
FNDA:5,_ZNSt10__pair_getILm0EE5__getIKSt10type_indexSt10shared_ptrIvEEERT_RSt4pairIS6_T0_E
FN:184,_ZNSt10__pair_getILm0EE11__const_getIKmN6rclcpp12experimental19IntraProcessManager16SubscriptionInfoEEERKT_RKSt4pairIS7_T0_E
FNDA:0,_ZNSt10__pair_getILm0EE11__const_getIKmN6rclcpp12experimental19IntraProcessManager16SubscriptionInfoEEERKT_RKSt4pairIS7_T0_E
FN:184,_ZNSt10__pair_getILm0EE11__const_getIKmN6rclcpp12experimental19IntraProcessManager21SplittedSubscriptionsEEERKT_RKSt4pairIS7_T0_E
FNDA:0,_ZNSt10__pair_getILm0EE11__const_getIKmN6rclcpp12experimental19IntraProcessManager21SplittedSubscriptionsEEERKT_RKSt4pairIS7_T0_E
FN:184,_ZNSt10__pair_getILm0EE11__const_getIKSt10type_indexSt10shared_ptrIvEEERKT_RKSt4pairIS6_T0_E
FNDA:0,_ZNSt10__pair_getILm0EE11__const_getIKSt10type_indexSt10shared_ptrIvEEERKT_RKSt4pairIS6_T0_E
FN:219,_ZSt3getILm0EKmN6rclcpp12experimental19IntraProcessManager16SubscriptionInfoEERNSt13tuple_elementIXT_ESt4pairIT0_T1_EE4typeERS9_
FNDA:0,_ZSt3getILm0EKmN6rclcpp12experimental19IntraProcessManager16SubscriptionInfoEERNSt13tuple_elementIXT_ESt4pairIT0_T1_EE4typeERS9_
FN:219,_ZSt3getILm0EKmN6rclcpp12experimental19IntraProcessManager21SplittedSubscriptionsEERNSt13tuple_elementIXT_ESt4pairIT0_T1_EE4typeERS9_
FNDA:0,_ZSt3getILm0EKmN6rclcpp12experimental19IntraProcessManager21SplittedSubscriptionsEERNSt13tuple_elementIXT_ESt4pairIT0_T1_EE4typeERS9_
FN:219,_ZSt3getILm0EKSt10type_indexSt10shared_ptrIvEERNSt13tuple_elementIXT_ESt4pairIT0_T1_EE4typeERS8_
FNDA:5,_ZSt3getILm0EKSt10type_indexSt10shared_ptrIvEERNSt13tuple_elementIXT_ESt4pairIT0_T1_EE4typeERS8_
FN:229,_ZSt3getILm0EKmN6rclcpp12experimental19IntraProcessManager16SubscriptionInfoEERKNSt13tuple_elementIXT_ESt4pairIT0_T1_EE4typeERKS9_
FNDA:0,_ZSt3getILm0EKmN6rclcpp12experimental19IntraProcessManager16SubscriptionInfoEERKNSt13tuple_elementIXT_ESt4pairIT0_T1_EE4typeERKS9_
FN:229,_ZSt3getILm0EKmN6rclcpp12experimental19IntraProcessManager21SplittedSubscriptionsEERKNSt13tuple_elementIXT_ESt4pairIT0_T1_EE4typeERKS9_
FNDA:0,_ZSt3getILm0EKmN6rclcpp12experimental19IntraProcessManager21SplittedSubscriptionsEERKNSt13tuple_elementIXT_ESt4pairIT0_T1_EE4typeERKS9_
FN:229,_ZSt3getILm0EKSt10type_indexSt10shared_ptrIvEERKNSt13tuple_elementIXT_ESt4pairIT0_T1_EE4typeERKS8_
FNDA:0,_ZSt3getILm0EKSt10type_indexSt10shared_ptrIvEERKNSt13tuple_elementIXT_ESt4pairIT0_T1_EE4typeERKS8_
DA:174,0
DA:175,0
DA:174,0
DA:175,0
DA:174,5
DA:175,5
DA:184,0
DA:185,0
DA:184,0
DA:185,0
DA:184,0
DA:185,0
DA:219,0
DA:220,0
DA:219,0
DA:220,0
DA:219,5
DA:220,5
DA:229,0
DA:230,0
DA:229,0
DA:230,0
DA:229,0
DA:230,0
end_of_record
SF:/usr/include/c++/9/iostream
end_of_record
SF:/usr/include/c++/9/bits/hashtable_policy.h
FN:92,_ZNKSt8__detail10_Select1stclIRKSt4pairIKmN6rclcpp12experimental19IntraProcessManager16SubscriptionInfoEEEEDTcl3getILi0EEcl7forwardIT_Efp_EEEOSB_
FNDA:0,_ZNKSt8__detail10_Select1stclIRKSt4pairIKmN6rclcpp12experimental19IntraProcessManager16SubscriptionInfoEEEEDTcl3getILi0EEcl7forwardIT_Efp_EEEOSB_
FN:92,_ZNKSt8__detail10_Select1stclIRSt4pairIKSt10type_indexSt10shared_ptrIvEEEEDTcl3getILi0EEcl7forwardIT_Efp_EEEOS9_
FNDA:5,_ZNKSt8__detail10_Select1stclIRSt4pairIKSt10type_indexSt10shared_ptrIvEEEEDTcl3getILi0EEcl7forwardIT_Efp_EEEOS9_
FN:92,_ZNKSt8__detail10_Select1stclIRSt4pairIKmN6rclcpp12experimental19IntraProcessManager16SubscriptionInfoEEEEDTcl3getILi0EEcl7forwardIT_Efp_EEEOSA_
FNDA:0,_ZNKSt8__detail10_Select1stclIRSt4pairIKmN6rclcpp12experimental19IntraProcessManager16SubscriptionInfoEEEEDTcl3getILi0EEcl7forwardIT_Efp_EEEOSA_
FN:92,_ZNKSt8__detail10_Select1stclIRKSt4pairIKSt10type_indexSt10shared_ptrIvEEEEDTcl3getILi0EEcl7forwardIT_Efp_EEEOSA_
FNDA:0,_ZNKSt8__detail10_Select1stclIRKSt4pairIKSt10type_indexSt10shared_ptrIvEEEEDTcl3getILi0EEcl7forwardIT_Efp_EEEOSA_
FN:92,_ZNKSt8__detail10_Select1stclIRSt4pairIKmN6rclcpp12experimental19IntraProcessManager21SplittedSubscriptionsEEEEDTcl3getILi0EEcl7forwardIT_Efp_EEEOSA_
FNDA:0,_ZNKSt8__detail10_Select1stclIRSt4pairIKmN6rclcpp12experimental19IntraProcessManager21SplittedSubscriptionsEEEEDTcl3getILi0EEcl7forwardIT_Efp_EEEOSA_
FN:92,_ZNKSt8__detail10_Select1stclIRKSt4pairIKmN6rclcpp12experimental19IntraProcessManager21SplittedSubscriptionsEEEEDTcl3getILi0EEcl7forwardIT_Efp_EEEOSB_
FNDA:0,_ZNKSt8__detail10_Select1stclIRKSt4pairIKmN6rclcpp12experimental19IntraProcessManager21SplittedSubscriptionsEEEEDTcl3getILi0EEcl7forwardIT_Efp_EEEOSB_
FN:218,_ZNSt8__detail15_Hash_node_baseC2Ev
FNDA:0,_ZNSt8__detail15_Hash_node_baseC2Ev
FN:236,_ZNSt8__detail21_Hash_node_value_baseISt4pairIKmN6rclcpp12experimental19IntraProcessManager16SubscriptionInfoEEE9_M_valptrEv
FNDA:0,_ZNSt8__detail21_Hash_node_value_baseISt4pairIKmN6rclcpp12experimental19IntraProcessManager16SubscriptionInfoEEE9_M_valptrEv
FN:236,_ZNSt8__detail21_Hash_node_value_baseISt4pairIKSt10type_indexSt10shared_ptrIvEEE9_M_valptrEv
FNDA:5,_ZNSt8__detail21_Hash_node_value_baseISt4pairIKSt10type_indexSt10shared_ptrIvEEE9_M_valptrEv
FN:236,_ZNSt8__detail21_Hash_node_value_baseISt4pairIKmN6rclcpp12experimental19IntraProcessManager21SplittedSubscriptionsEEE9_M_valptrEv
FNDA:0,_ZNSt8__detail21_Hash_node_value_baseISt4pairIKmN6rclcpp12experimental19IntraProcessManager21SplittedSubscriptionsEEE9_M_valptrEv
FN:240,_ZNKSt8__detail21_Hash_node_value_baseISt4pairIKmN6rclcpp12experimental19IntraProcessManager21SplittedSubscriptionsEEE9_M_valptrEv
FNDA:0,_ZNKSt8__detail21_Hash_node_value_baseISt4pairIKmN6rclcpp12experimental19IntraProcessManager21SplittedSubscriptionsEEE9_M_valptrEv
FN:240,_ZNKSt8__detail21_Hash_node_value_baseISt4pairIKmN6rclcpp12experimental19IntraProcessManager16SubscriptionInfoEEE9_M_valptrEv
FNDA:0,_ZNKSt8__detail21_Hash_node_value_baseISt4pairIKmN6rclcpp12experimental19IntraProcessManager16SubscriptionInfoEEE9_M_valptrEv
FN:240,_ZNKSt8__detail21_Hash_node_value_baseISt4pairIKSt10type_indexSt10shared_ptrIvEEE9_M_valptrEv
FNDA:0,_ZNKSt8__detail21_Hash_node_value_baseISt4pairIKSt10type_indexSt10shared_ptrIvEEE9_M_valptrEv
FN:244,_ZNSt8__detail21_Hash_node_value_baseISt4pairIKSt10type_indexSt10shared_ptrIvEEE4_M_vEv
FNDA:5,_ZNSt8__detail21_Hash_node_value_baseISt4pairIKSt10type_indexSt10shared_ptrIvEEE4_M_vEv
FN:244,_ZNSt8__detail21_Hash_node_value_baseISt4pairIKmN6rclcpp12experimental19IntraProcessManager16SubscriptionInfoEEE4_M_vEv
FNDA:0,_ZNSt8__detail21_Hash_node_value_baseISt4pairIKmN6rclcpp12experimental19IntraProcessManager16SubscriptionInfoEEE4_M_vEv
FN:244,_ZNSt8__detail21_Hash_node_value_baseISt4pairIKmN6rclcpp12experimental19IntraProcessManager21SplittedSubscriptionsEEE4_M_vEv
FNDA:0,_ZNSt8__detail21_Hash_node_value_baseISt4pairIKmN6rclcpp12experimental19IntraProcessManager21SplittedSubscriptionsEEE4_M_vEv
FN:248,_ZNKSt8__detail21_Hash_node_value_baseISt4pairIKSt10type_indexSt10shared_ptrIvEEE4_M_vEv
FNDA:0,_ZNKSt8__detail21_Hash_node_value_baseISt4pairIKSt10type_indexSt10shared_ptrIvEEE4_M_vEv
FN:248,_ZNKSt8__detail21_Hash_node_value_baseISt4pairIKmN6rclcpp12experimental19IntraProcessManager16SubscriptionInfoEEE4_M_vEv
FNDA:0,_ZNKSt8__detail21_Hash_node_value_baseISt4pairIKmN6rclcpp12experimental19IntraProcessManager16SubscriptionInfoEEE4_M_vEv
FN:248,_ZNKSt8__detail21_Hash_node_value_baseISt4pairIKmN6rclcpp12experimental19IntraProcessManager21SplittedSubscriptionsEEE4_M_vEv
FNDA:0,_ZNKSt8__detail21_Hash_node_value_baseISt4pairIKmN6rclcpp12experimental19IntraProcessManager21SplittedSubscriptionsEEE4_M_vEv
FN:282,_ZNKSt8__detail10_Hash_nodeISt4pairIKmN6rclcpp12experimental19IntraProcessManager16SubscriptionInfoEELb0EE7_M_nextEv
FNDA:0,_ZNKSt8__detail10_Hash_nodeISt4pairIKmN6rclcpp12experimental19IntraProcessManager16SubscriptionInfoEELb0EE7_M_nextEv
FN:282,_ZNKSt8__detail10_Hash_nodeISt4pairIKSt10type_indexSt10shared_ptrIvEELb0EE7_M_nextEv
FNDA:0,_ZNKSt8__detail10_Hash_nodeISt4pairIKSt10type_indexSt10shared_ptrIvEELb0EE7_M_nextEv
FN:282,_ZNKSt8__detail10_Hash_nodeISt4pairIKmN6rclcpp12experimental19IntraProcessManager21SplittedSubscriptionsEELb0EE7_M_nextEv
FNDA:0,_ZNKSt8__detail10_Hash_nodeISt4pairIKmN6rclcpp12experimental19IntraProcessManager21SplittedSubscriptionsEELb0EE7_M_nextEv
FN:294,_ZNSt8__detail19_Node_iterator_baseISt4pairIKSt10type_indexSt10shared_ptrIvEELb0EEC2EPNS_10_Hash_nodeIS6_Lb0EEE
FNDA:1,_ZNSt8__detail19_Node_iterator_baseISt4pairIKSt10type_indexSt10shared_ptrIvEELb0EEC2EPNS_10_Hash_nodeIS6_Lb0EEE
FN:294,_ZNSt8__detail19_Node_iterator_baseISt4pairIKmN6rclcpp12experimental19IntraProcessManager16SubscriptionInfoEELb0EEC2EPNS_10_Hash_nodeIS7_Lb0EEE
FNDA:0,_ZNSt8__detail19_Node_iterator_baseISt4pairIKmN6rclcpp12experimental19IntraProcessManager16SubscriptionInfoEELb0EEC2EPNS_10_Hash_nodeIS7_Lb0EEE
FN:294,_ZNSt8__detail19_Node_iterator_baseISt4pairIKmN6rclcpp12experimental19IntraProcessManager21SplittedSubscriptionsEELb0EEC2EPNS_10_Hash_nodeIS7_Lb0EEE
FNDA:0,_ZNSt8__detail19_Node_iterator_baseISt4pairIKmN6rclcpp12experimental19IntraProcessManager21SplittedSubscriptionsEELb0EEC2EPNS_10_Hash_nodeIS7_Lb0EEE
FN:304,_ZNSt8__detaileqISt4pairIKmN6rclcpp12experimental19IntraProcessManager21SplittedSubscriptionsEELb0EEEbRKNS_19_Node_iterator_baseIT_XT0_EEESC_
FNDA:0,_ZNSt8__detaileqISt4pairIKmN6rclcpp12experimental19IntraProcessManager21SplittedSubscriptionsEELb0EEEbRKNS_19_Node_iterator_baseIT_XT0_EEESC_
FN:304,_ZNSt8__detaileqISt4pairIKmN6rclcpp12experimental19IntraProcessManager16SubscriptionInfoEELb0EEEbRKNS_19_Node_iterator_baseIT_XT0_EEESC_
FNDA:0,_ZNSt8__detaileqISt4pairIKmN6rclcpp12experimental19IntraProcessManager16SubscriptionInfoEELb0EEEbRKNS_19_Node_iterator_baseIT_XT0_EEESC_
FN:304,_ZNSt8__detaileqISt4pairIKSt10type_indexSt10shared_ptrIvEELb0EEEbRKNS_19_Node_iterator_baseIT_XT0_EEESB_
FNDA:0,_ZNSt8__detaileqISt4pairIKSt10type_indexSt10shared_ptrIvEELb0EEEbRKNS_19_Node_iterator_baseIT_XT0_EEESB_
FN:340,_ZNSt8__detail14_Node_iteratorISt4pairIKmN6rclcpp12experimental19IntraProcessManager16SubscriptionInfoEELb0ELb0EEC2EPNS_10_Hash_nodeIS7_Lb0EEE
FNDA:0,_ZNSt8__detail14_Node_iteratorISt4pairIKmN6rclcpp12experimental19IntraProcessManager16SubscriptionInfoEELb0ELb0EEC2EPNS_10_Hash_nodeIS7_Lb0EEE
FN:340,_ZNSt8__detail14_Node_iteratorISt4pairIKSt10type_indexSt10shared_ptrIvEELb0ELb0EEC2EPNS_10_Hash_nodeIS6_Lb0EEE
FNDA:1,_ZNSt8__detail14_Node_iteratorISt4pairIKSt10type_indexSt10shared_ptrIvEELb0ELb0EEC2EPNS_10_Hash_nodeIS6_Lb0EEE
FN:340,_ZNSt8__detail14_Node_iteratorISt4pairIKmN6rclcpp12experimental19IntraProcessManager21SplittedSubscriptionsEELb0ELb0EEC2EPNS_10_Hash_nodeIS7_Lb0EEE
FNDA:0,_ZNSt8__detail14_Node_iteratorISt4pairIKmN6rclcpp12experimental19IntraProcessManager21SplittedSubscriptionsEELb0ELb0EEC2EPNS_10_Hash_nodeIS7_Lb0EEE
FN:348,_ZNKSt8__detail14_Node_iteratorISt4pairIKmN6rclcpp12experimental19IntraProcessManager16SubscriptionInfoEELb0ELb0EEptEv
FNDA:0,_ZNKSt8__detail14_Node_iteratorISt4pairIKmN6rclcpp12experimental19IntraProcessManager16SubscriptionInfoEELb0ELb0EEptEv
FN:348,_ZNKSt8__detail14_Node_iteratorISt4pairIKmN6rclcpp12experimental19IntraProcessManager21SplittedSubscriptionsEELb0ELb0EEptEv
FNDA:0,_ZNKSt8__detail14_Node_iteratorISt4pairIKmN6rclcpp12experimental19IntraProcessManager21SplittedSubscriptionsEELb0ELb0EEptEv
FN:348,_ZNKSt8__detail14_Node_iteratorISt4pairIKSt10type_indexSt10shared_ptrIvEELb0ELb0EEptEv
FNDA:0,_ZNKSt8__detail14_Node_iteratorISt4pairIKSt10type_indexSt10shared_ptrIvEELb0ELb0EEptEv
FN:431,_ZNKSt8__detail18_Mod_range_hashingclEmm
FNDA:1,_ZNKSt8__detail18_Mod_range_hashingclEmm
FN:476,_ZNKSt8__detail20_Prime_rehash_policy8_M_stateEv
FNDA:1,_ZNKSt8__detail20_Prime_rehash_policy8_M_stateEv
FN:484,_ZNSt8__detail20_Prime_rehash_policy8_M_resetEm
FNDA:0,_ZNSt8__detail20_Prime_rehash_policy8_M_resetEm
FN:689,_ZNSt8__detail9_Map_baseISt10type_indexSt4pairIKS1_St10shared_ptrIvEESaIS6_ENS_10_Select1stESt8equal_toIS1_ESt4hashIS1_ENS_18_Mod_range_hashingENS_20_Default_ranged_hashENS_20_Prime_rehash_policyENS_17_Hashtable_traitsILb0ELb0ELb1EEELb1EEixERS3_
FNDA:0,_ZNSt8__detail9_Map_baseISt10type_indexSt4pairIKS1_St10shared_ptrIvEESaIS6_ENS_10_Select1stESt8equal_toIS1_ESt4hashIS1_ENS_18_Mod_range_hashingENS_20_Default_ranged_hashENS_20_Prime_rehash_policyENS_17_Hashtable_traitsILb0ELb0ELb1EEELb1EEixERS3_
FN:1104,_ZNSt8__detail21_Hashtable_ebo_helperILi0ESt8equal_toISt10type_indexELb1EE7_S_cgetERKS4_
FNDA:4,_ZNSt8__detail21_Hashtable_ebo_helperILi0ESt8equal_toISt10type_indexELb1EE7_S_cgetERKS4_
FN:1104,_ZNSt8__detail21_Hashtable_ebo_helperILi2ENS_18_Mod_range_hashingELb1EE7_S_cgetERKS2_
FNDA:1,_ZNSt8__detail21_Hashtable_ebo_helperILi2ENS_18_Mod_range_hashingELb1EE7_S_cgetERKS2_
FN:1104,_ZNSt8__detail21_Hashtable_ebo_helperILi0ENS_10_Select1stELb1EE7_S_cgetERKS2_
FNDA:4,_ZNSt8__detail21_Hashtable_ebo_helperILi0ENS_10_Select1stELb1EE7_S_cgetERKS2_
FN:1104,_ZNSt8__detail21_Hashtable_ebo_helperILi1ESt4hashISt10type_indexELb1EE7_S_cgetERKS4_
FNDA:0,_ZNSt8__detail21_Hashtable_ebo_helperILi1ESt4hashISt10type_indexELb1EE7_S_cgetERKS4_
FN:1104,_ZNSt8__detail21_Hashtable_ebo_helperILi0ESt8equal_toImELb1EE7_S_cgetERKS3_
FNDA:0,_ZNSt8__detail21_Hashtable_ebo_helperILi0ESt8equal_toImELb1EE7_S_cgetERKS3_
FN:1104,_ZNSt8__detail21_Hashtable_ebo_helperILi1ESt4hashImELb1EE7_S_cgetERKS3_
FNDA:0,_ZNSt8__detail21_Hashtable_ebo_helperILi1ESt4hashImELb1EE7_S_cgetERKS3_
FN:1108,_ZNSt8__detail21_Hashtable_ebo_helperILi0ENS_10_Select1stELb1EE6_S_getERS2_
FNDA:1,_ZNSt8__detail21_Hashtable_ebo_helperILi0ENS_10_Select1stELb1EE6_S_getERS2_
FN:1108,_ZNSt8__detail21_Hashtable_ebo_helperILi0ESaINS_10_Hash_nodeISt4pairIKSt10type_indexSt10shared_ptrIvEELb0EEEELb1EE6_S_getERSA_
FNDA:1,_ZNSt8__detail21_Hashtable_ebo_helperILi0ESaINS_10_Hash_nodeISt4pairIKSt10type_indexSt10shared_ptrIvEELb0EEEELb1EE6_S_getERSA_
FN:1288,_ZNKSt8__detail15_Hash_code_baseISt10type_indexSt4pairIKS1_St10shared_ptrIvEENS_10_Select1stESt4hashIS1_ENS_18_Mod_range_hashingENS_20_Default_ranged_hashELb0EE12_M_hash_codeERS3_
FNDA:0,_ZNKSt8__detail15_Hash_code_baseISt10type_indexSt4pairIKS1_St10shared_ptrIvEENS_10_Select1stESt4hashIS1_ENS_18_Mod_range_hashingENS_20_Default_ranged_hashELb0EE12_M_hash_codeERS3_
FN:1288,_ZNKSt8__detail15_Hash_code_baseImSt4pairIKmN6rclcpp12experimental19IntraProcessManager21SplittedSubscriptionsEENS_10_Select1stESt4hashImENS_18_Mod_range_hashingENS_20_Default_ranged_hashELb0EE12_M_hash_codeERS2_
FNDA:0,_ZNKSt8__detail15_Hash_code_baseImSt4pairIKmN6rclcpp12experimental19IntraProcessManager21SplittedSubscriptionsEENS_10_Select1stESt4hashImENS_18_Mod_range_hashingENS_20_Default_ranged_hashELb0EE12_M_hash_codeERS2_
FN:1288,_ZNKSt8__detail15_Hash_code_baseImSt4pairIKmN6rclcpp12experimental19IntraProcessManager16SubscriptionInfoEENS_10_Select1stESt4hashImENS_18_Mod_range_hashingENS_20_Default_ranged_hashELb0EE12_M_hash_codeERS2_
FNDA:0,_ZNKSt8__detail15_Hash_code_baseImSt4pairIKmN6rclcpp12experimental19IntraProcessManager16SubscriptionInfoEENS_10_Select1stESt4hashImENS_18_Mod_range_hashingENS_20_Default_ranged_hashELb0EE12_M_hash_codeERS2_
FN:1296,_ZNKSt8__detail15_Hash_code_baseISt10type_indexSt4pairIKS1_St10shared_ptrIvEENS_10_Select1stESt4hashIS1_ENS_18_Mod_range_hashingENS_20_Default_ranged_hashELb0EE15_M_bucket_indexERS3_mm
FNDA:1,_ZNKSt8__detail15_Hash_code_baseISt10type_indexSt4pairIKS1_St10shared_ptrIvEENS_10_Select1stESt4hashIS1_ENS_18_Mod_range_hashingENS_20_Default_ranged_hashELb0EE15_M_bucket_indexERS3_mm
FN:1296,_ZNKSt8__detail15_Hash_code_baseImSt4pairIKmN6rclcpp12experimental19IntraProcessManager21SplittedSubscriptionsEENS_10_Select1stESt4hashImENS_18_Mod_range_hashingENS_20_Default_ranged_hashELb0EE15_M_bucket_indexERS2_mm
FNDA:0,_ZNKSt8__detail15_Hash_code_baseImSt4pairIKmN6rclcpp12experimental19IntraProcessManager21SplittedSubscriptionsEENS_10_Select1stESt4hashImENS_18_Mod_range_hashingENS_20_Default_ranged_hashELb0EE15_M_bucket_indexERS2_mm
FN:1296,_ZNKSt8__detail15_Hash_code_baseImSt4pairIKmN6rclcpp12experimental19IntraProcessManager16SubscriptionInfoEENS_10_Select1stESt4hashImENS_18_Mod_range_hashingENS_20_Default_ranged_hashELb0EE15_M_bucket_indexERS2_mm
FNDA:0,_ZNKSt8__detail15_Hash_code_baseImSt4pairIKmN6rclcpp12experimental19IntraProcessManager16SubscriptionInfoEENS_10_Select1stESt4hashImENS_18_Mod_range_hashingENS_20_Default_ranged_hashELb0EE15_M_bucket_indexERS2_mm
FN:1300,_ZNKSt8__detail15_Hash_code_baseImSt4pairIKmN6rclcpp12experimental19IntraProcessManager16SubscriptionInfoEENS_10_Select1stESt4hashImENS_18_Mod_range_hashingENS_20_Default_ranged_hashELb0EE15_M_bucket_indexEPKNS_10_Hash_nodeIS7_Lb0EEEm
FNDA:0,_ZNKSt8__detail15_Hash_code_baseImSt4pairIKmN6rclcpp12experimental19IntraProcessManager16SubscriptionInfoEENS_10_Select1stESt4hashImENS_18_Mod_range_hashingENS_20_Default_ranged_hashELb0EE15_M_bucket_indexEPKNS_10_Hash_nodeIS7_Lb0EEEm
FN:1300,_ZNKSt8__detail15_Hash_code_baseImSt4pairIKmN6rclcpp12experimental19IntraProcessManager21SplittedSubscriptionsEENS_10_Select1stESt4hashImENS_18_Mod_range_hashingENS_20_Default_ranged_hashELb0EE15_M_bucket_indexEPKNS_10_Hash_nodeIS7_Lb0EEEm
FNDA:0,_ZNKSt8__detail15_Hash_code_baseImSt4pairIKmN6rclcpp12experimental19IntraProcessManager21SplittedSubscriptionsEENS_10_Select1stESt4hashImENS_18_Mod_range_hashingENS_20_Default_ranged_hashELb0EE15_M_bucket_indexEPKNS_10_Hash_nodeIS7_Lb0EEEm
FN:1300,_ZNKSt8__detail15_Hash_code_baseISt10type_indexSt4pairIKS1_St10shared_ptrIvEENS_10_Select1stESt4hashIS1_ENS_18_Mod_range_hashingENS_20_Default_ranged_hashELb0EE15_M_bucket_indexEPKNS_10_Hash_nodeIS6_Lb0EEEm
FNDA:0,_ZNKSt8__detail15_Hash_code_baseISt10type_indexSt4pairIKS1_St10shared_ptrIvEENS_10_Select1stESt4hashIS1_ENS_18_Mod_range_hashingENS_20_Default_ranged_hashELb0EE15_M_bucket_indexEPKNS_10_Hash_nodeIS6_Lb0EEEm
FN:1307,_ZNKSt8__detail15_Hash_code_baseISt10type_indexSt4pairIKS1_St10shared_ptrIvEENS_10_Select1stESt4hashIS1_ENS_18_Mod_range_hashingENS_20_Default_ranged_hashELb0EE13_M_store_codeEPNS_10_Hash_nodeIS6_Lb0EEEm
FNDA:1,_ZNKSt8__detail15_Hash_code_baseISt10type_indexSt4pairIKS1_St10shared_ptrIvEENS_10_Select1stESt4hashIS1_ENS_18_Mod_range_hashingENS_20_Default_ranged_hashELb0EE13_M_store_codeEPNS_10_Hash_nodeIS6_Lb0EEEm
FN:1323,_ZNKSt8__detail15_Hash_code_baseImSt4pairIKmN6rclcpp12experimental19IntraProcessManager16SubscriptionInfoEENS_10_Select1stESt4hashImENS_18_Mod_range_hashingENS_20_Default_ranged_hashELb0EE10_M_extractEv
FNDA:0,_ZNKSt8__detail15_Hash_code_baseImSt4pairIKmN6rclcpp12experimental19IntraProcessManager16SubscriptionInfoEENS_10_Select1stESt4hashImENS_18_Mod_range_hashingENS_20_Default_ranged_hashELb0EE10_M_extractEv
FN:1323,_ZNKSt8__detail15_Hash_code_baseISt10type_indexSt4pairIKS1_St10shared_ptrIvEENS_10_Select1stESt4hashIS1_ENS_18_Mod_range_hashingENS_20_Default_ranged_hashELb0EE10_M_extractEv
FNDA:4,_ZNKSt8__detail15_Hash_code_baseISt10type_indexSt4pairIKS1_St10shared_ptrIvEENS_10_Select1stESt4hashIS1_ENS_18_Mod_range_hashingENS_20_Default_ranged_hashELb0EE10_M_extractEv
FN:1323,_ZNKSt8__detail15_Hash_code_baseImSt4pairIKmN6rclcpp12experimental19IntraProcessManager21SplittedSubscriptionsEENS_10_Select1stESt4hashImENS_18_Mod_range_hashingENS_20_Default_ranged_hashELb0EE10_M_extractEv
FNDA:0,_ZNKSt8__detail15_Hash_code_baseImSt4pairIKmN6rclcpp12experimental19IntraProcessManager21SplittedSubscriptionsEENS_10_Select1stESt4hashImENS_18_Mod_range_hashingENS_20_Default_ranged_hashELb0EE10_M_extractEv
FN:1326,_ZNSt8__detail15_Hash_code_baseISt10type_indexSt4pairIKS1_St10shared_ptrIvEENS_10_Select1stESt4hashIS1_ENS_18_Mod_range_hashingENS_20_Default_ranged_hashELb0EE10_M_extractEv
FNDA:1,_ZNSt8__detail15_Hash_code_baseISt10type_indexSt4pairIKS1_St10shared_ptrIvEENS_10_Select1stESt4hashIS1_ENS_18_Mod_range_hashingENS_20_Default_ranged_hashELb0EE10_M_extractEv
FN:1329,_ZNKSt8__detail15_Hash_code_baseImSt4pairIKmN6rclcpp12experimental19IntraProcessManager16SubscriptionInfoEENS_10_Select1stESt4hashImENS_18_Mod_range_hashingENS_20_Default_ranged_hashELb0EE5_M_h1Ev
FNDA:0,_ZNKSt8__detail15_Hash_code_baseImSt4pairIKmN6rclcpp12experimental19IntraProcessManager16SubscriptionInfoEENS_10_Select1stESt4hashImENS_18_Mod_range_hashingENS_20_Default_ranged_hashELb0EE5_M_h1Ev
FN:1329,_ZNKSt8__detail15_Hash_code_baseISt10type_indexSt4pairIKS1_St10shared_ptrIvEENS_10_Select1stESt4hashIS1_ENS_18_Mod_range_hashingENS_20_Default_ranged_hashELb0EE5_M_h1Ev
FNDA:0,_ZNKSt8__detail15_Hash_code_baseISt10type_indexSt4pairIKS1_St10shared_ptrIvEENS_10_Select1stESt4hashIS1_ENS_18_Mod_range_hashingENS_20_Default_ranged_hashELb0EE5_M_h1Ev
FN:1329,_ZNKSt8__detail15_Hash_code_baseImSt4pairIKmN6rclcpp12experimental19IntraProcessManager21SplittedSubscriptionsEENS_10_Select1stESt4hashImENS_18_Mod_range_hashingENS_20_Default_ranged_hashELb0EE5_M_h1Ev
FNDA:0,_ZNKSt8__detail15_Hash_code_baseImSt4pairIKmN6rclcpp12experimental19IntraProcessManager21SplittedSubscriptionsEENS_10_Select1stESt4hashImENS_18_Mod_range_hashingENS_20_Default_ranged_hashELb0EE5_M_h1Ev
FN:1335,_ZNKSt8__detail15_Hash_code_baseImSt4pairIKmN6rclcpp12experimental19IntraProcessManager21SplittedSubscriptionsEENS_10_Select1stESt4hashImENS_18_Mod_range_hashingENS_20_Default_ranged_hashELb0EE5_M_h2Ev
FNDA:0,_ZNKSt8__detail15_Hash_code_baseImSt4pairIKmN6rclcpp12experimental19IntraProcessManager21SplittedSubscriptionsEENS_10_Select1stESt4hashImENS_18_Mod_range_hashingENS_20_Default_ranged_hashELb0EE5_M_h2Ev
FN:1335,_ZNKSt8__detail15_Hash_code_baseISt10type_indexSt4pairIKS1_St10shared_ptrIvEENS_10_Select1stESt4hashIS1_ENS_18_Mod_range_hashingENS_20_Default_ranged_hashELb0EE5_M_h2Ev
FNDA:1,_ZNKSt8__detail15_Hash_code_baseISt10type_indexSt4pairIKS1_St10shared_ptrIvEENS_10_Select1stESt4hashIS1_ENS_18_Mod_range_hashingENS_20_Default_ranged_hashELb0EE5_M_h2Ev
FN:1335,_ZNKSt8__detail15_Hash_code_baseImSt4pairIKmN6rclcpp12experimental19IntraProcessManager16SubscriptionInfoEENS_10_Select1stESt4hashImENS_18_Mod_range_hashingENS_20_Default_ranged_hashELb0EE5_M_h2Ev
FNDA:0,_ZNKSt8__detail15_Hash_code_baseImSt4pairIKmN6rclcpp12experimental19IntraProcessManager16SubscriptionInfoEENS_10_Select1stESt4hashImENS_18_Mod_range_hashingENS_20_Default_ranged_hashELb0EE5_M_h2Ev
FN:1459,_ZNSt8__detail13_Equal_helperImSt4pairIKmN6rclcpp12experimental19IntraProcessManager16SubscriptionInfoEENS_10_Select1stESt8equal_toImEmLb0EE9_S_equalsERKSA_RKS8_RS2_mPNS_10_Hash_nodeIS7_Lb0EEE
FNDA:0,_ZNSt8__detail13_Equal_helperImSt4pairIKmN6rclcpp12experimental19IntraProcessManager16SubscriptionInfoEENS_10_Select1stESt8equal_toImEmLb0EE9_S_equalsERKSA_RKS8_RS2_mPNS_10_Hash_nodeIS7_Lb0EEE
FN:1459,_ZNSt8__detail13_Equal_helperImSt4pairIKmN6rclcpp12experimental19IntraProcessManager21SplittedSubscriptionsEENS_10_Select1stESt8equal_toImEmLb0EE9_S_equalsERKSA_RKS8_RS2_mPNS_10_Hash_nodeIS7_Lb0EEE
FNDA:0,_ZNSt8__detail13_Equal_helperImSt4pairIKmN6rclcpp12experimental19IntraProcessManager21SplittedSubscriptionsEENS_10_Select1stESt8equal_toImEmLb0EE9_S_equalsERKSA_RKS8_RS2_mPNS_10_Hash_nodeIS7_Lb0EEE
FN:1459,_ZNSt8__detail13_Equal_helperISt10type_indexSt4pairIKS1_St10shared_ptrIvEENS_10_Select1stESt8equal_toIS1_EmLb0EE9_S_equalsERKS9_RKS7_RS3_mPNS_10_Hash_nodeIS6_Lb0EEE
FNDA:4,_ZNSt8__detail13_Equal_helperISt10type_indexSt4pairIKS1_St10shared_ptrIvEENS_10_Select1stESt8equal_toIS1_EmLb0EE9_S_equalsERKS9_RKS7_RS3_mPNS_10_Hash_nodeIS6_Lb0EEE
FN:1829,_ZNKSt8__detail15_Hashtable_baseImSt4pairIKmN6rclcpp12experimental19IntraProcessManager16SubscriptionInfoEENS_10_Select1stESt8equal_toImESt4hashImENS_18_Mod_range_hashingENS_20_Default_ranged_hashENS_17_Hashtable_traitsILb0ELb0ELb1EEEE9_M_equalsERS2_mPNS_10_Hash_nodeIS7_Lb0EEE
FNDA:0,_ZNKSt8__detail15_Hashtable_baseImSt4pairIKmN6rclcpp12experimental19IntraProcessManager16SubscriptionInfoEENS_10_Select1stESt8equal_toImESt4hashImENS_18_Mod_range_hashingENS_20_Default_ranged_hashENS_17_Hashtable_traitsILb0ELb0ELb1EEEE9_M_equalsERS2_mPNS_10_Hash_nodeIS7_Lb0EEE
FN:1829,_ZNKSt8__detail15_Hashtable_baseISt10type_indexSt4pairIKS1_St10shared_ptrIvEENS_10_Select1stESt8equal_toIS1_ESt4hashIS1_ENS_18_Mod_range_hashingENS_20_Default_ranged_hashENS_17_Hashtable_traitsILb0ELb0ELb1EEEE9_M_equalsERS3_mPNS_10_Hash_nodeIS6_Lb0EEE
FNDA:4,_ZNKSt8__detail15_Hashtable_baseISt10type_indexSt4pairIKS1_St10shared_ptrIvEENS_10_Select1stESt8equal_toIS1_ESt4hashIS1_ENS_18_Mod_range_hashingENS_20_Default_ranged_hashENS_17_Hashtable_traitsILb0ELb0ELb1EEEE9_M_equalsERS3_mPNS_10_Hash_nodeIS6_Lb0EEE
FN:1829,_ZNKSt8__detail15_Hashtable_baseImSt4pairIKmN6rclcpp12experimental19IntraProcessManager21SplittedSubscriptionsEENS_10_Select1stESt8equal_toImESt4hashImENS_18_Mod_range_hashingENS_20_Default_ranged_hashENS_17_Hashtable_traitsILb0ELb0ELb1EEEE9_M_equalsERS2_mPNS_10_Hash_nodeIS7_Lb0EEE
FNDA:0,_ZNKSt8__detail15_Hashtable_baseImSt4pairIKmN6rclcpp12experimental19IntraProcessManager21SplittedSubscriptionsEENS_10_Select1stESt8equal_toImESt4hashImENS_18_Mod_range_hashingENS_20_Default_ranged_hashENS_17_Hashtable_traitsILb0ELb0ELb1EEEE9_M_equalsERS2_mPNS_10_Hash_nodeIS7_Lb0EEE
FN:1846,_ZNKSt8__detail15_Hashtable_baseImSt4pairIKmN6rclcpp12experimental19IntraProcessManager16SubscriptionInfoEENS_10_Select1stESt8equal_toImESt4hashImENS_18_Mod_range_hashingENS_20_Default_ranged_hashENS_17_Hashtable_traitsILb0ELb0ELb1EEEE5_M_eqEv
FNDA:0,_ZNKSt8__detail15_Hashtable_baseImSt4pairIKmN6rclcpp12experimental19IntraProcessManager16SubscriptionInfoEENS_10_Select1stESt8equal_toImESt4hashImENS_18_Mod_range_hashingENS_20_Default_ranged_hashENS_17_Hashtable_traitsILb0ELb0ELb1EEEE5_M_eqEv
FN:1846,_ZNKSt8__detail15_Hashtable_baseISt10type_indexSt4pairIKS1_St10shared_ptrIvEENS_10_Select1stESt8equal_toIS1_ESt4hashIS1_ENS_18_Mod_range_hashingENS_20_Default_ranged_hashENS_17_Hashtable_traitsILb0ELb0ELb1EEEE5_M_eqEv
FNDA:4,_ZNKSt8__detail15_Hashtable_baseISt10type_indexSt4pairIKS1_St10shared_ptrIvEENS_10_Select1stESt8equal_toIS1_ESt4hashIS1_ENS_18_Mod_range_hashingENS_20_Default_ranged_hashENS_17_Hashtable_traitsILb0ELb0ELb1EEEE5_M_eqEv
FN:1846,_ZNKSt8__detail15_Hashtable_baseImSt4pairIKmN6rclcpp12experimental19IntraProcessManager21SplittedSubscriptionsEENS_10_Select1stESt8equal_toImESt4hashImENS_18_Mod_range_hashingENS_20_Default_ranged_hashENS_17_Hashtable_traitsILb0ELb0ELb1EEEE5_M_eqEv
FNDA:0,_ZNKSt8__detail15_Hashtable_baseImSt4pairIKmN6rclcpp12experimental19IntraProcessManager21SplittedSubscriptionsEENS_10_Select1stESt8equal_toImESt4hashImENS_18_Mod_range_hashingENS_20_Default_ranged_hashENS_17_Hashtable_traitsILb0ELb0ELb1EEEE5_M_eqEv
FN:2046,_ZNSt8__detail16_Hashtable_allocISaINS_10_Hash_nodeISt4pairIKSt10type_indexSt10shared_ptrIvEELb0EEEEE17_M_node_allocatorEv
FNDA:1,_ZNSt8__detail16_Hashtable_allocISaINS_10_Hash_nodeISt4pairIKSt10type_indexSt10shared_ptrIvEELb0EEEEE17_M_node_allocatorEv
FN:2079,_ZNSt8__detail16_Hashtable_allocISaINS_10_Hash_nodeISt4pairIKSt10type_indexSt10shared_ptrIvEELb0EEEEE16_M_allocate_nodeIJRKSt21piecewise_construct_tSt5tupleIJRS4_EESF_IJEEEEEPS8_DpOT_
FNDA:0,_ZNSt8__detail16_Hashtable_allocISaINS_10_Hash_nodeISt4pairIKSt10type_indexSt10shared_ptrIvEELb0EEEEE16_M_allocate_nodeIJRKSt21piecewise_construct_tSt5tupleIJRS4_EESF_IJEEEEEPS8_DpOT_
FN:2100,_ZNSt8__detail16_Hashtable_allocISaINS_10_Hash_nodeISt4pairIKSt10type_indexSt10shared_ptrIvEELb0EEEEE18_M_deallocate_nodeEPS8_
FNDA:0,_ZNSt8__detail16_Hashtable_allocISaINS_10_Hash_nodeISt4pairIKSt10type_indexSt10shared_ptrIvEELb0EEEEE18_M_deallocate_nodeEPS8_
FN:2108,_ZNSt8__detail16_Hashtable_allocISaINS_10_Hash_nodeISt4pairIKSt10type_indexSt10shared_ptrIvEELb0EEEEE22_M_deallocate_node_ptrEPS8_
FNDA:0,_ZNSt8__detail16_Hashtable_allocISaINS_10_Hash_nodeISt4pairIKSt10type_indexSt10shared_ptrIvEELb0EEEEE22_M_deallocate_node_ptrEPS8_
FN:2130,_ZNSt8__detail16_Hashtable_allocISaINS_10_Hash_nodeISt4pairIKSt10type_indexSt10shared_ptrIvEELb0EEEEE19_M_allocate_bucketsEm
FNDA:1,_ZNSt8__detail16_Hashtable_allocISaINS_10_Hash_nodeISt4pairIKSt10type_indexSt10shared_ptrIvEELb0EEEEE19_M_allocate_bucketsEm
FN:2142,_ZNSt8__detail16_Hashtable_allocISaINS_10_Hash_nodeISt4pairIKSt10type_indexSt10shared_ptrIvEELb0EEEEE21_M_deallocate_bucketsEPPNS_15_Hash_node_baseEm
FNDA:0,_ZNSt8__detail16_Hashtable_allocISaINS_10_Hash_nodeISt4pairIKSt10type_indexSt10shared_ptrIvEELb0EEEEE21_M_deallocate_bucketsEPPNS_15_Hash_node_baseEm
DA:92,0
DA:94,0
DA:92,0
DA:94,0
DA:92,0
DA:94,0
DA:92,0
DA:94,0
DA:92,0
DA:94,0
DA:92,5
DA:94,5
DA:218,0
DA:236,0
DA:237,0
DA:236,0
DA:237,0
DA:236,5
DA:237,5
DA:240,0
DA:241,0
DA:240,0
DA:241,0
DA:240,0
DA:241,0
DA:244,0
DA:245,0
DA:244,0
DA:245,0
DA:244,5
DA:245,5
DA:248,0
DA:249,0
DA:248,0
DA:249,0
DA:248,0
DA:249,0
DA:282,0
DA:283,0
DA:282,0
DA:283,0
DA:282,0
DA:283,0
DA:294,0
DA:295,0
DA:294,0
DA:295,0
DA:294,1
DA:295,1
DA:304,0
DA:307,0
DA:304,0
DA:307,0
DA:304,0
DA:307,0
DA:340,0
DA:341,0
DA:340,0
DA:341,0
DA:340,1
DA:341,1
DA:348,0
DA:349,0
DA:348,0
DA:349,0
DA:348,0
DA:349,0
DA:431,1
DA:433,1
DA:476,1
DA:477,1
DA:484,0
DA:485,0
DA:689,0
DA:694,0
DA:695,0
DA:696,0
DA:697,0
DA:699,0
DA:701,0
DA:704,0
DA:707,0
DA:1104,0
DA:1105,0
DA:1104,0
DA:1105,0
DA:1104,4
DA:1105,4
DA:1104,4
DA:1105,4
DA:1104,1
DA:1105,1
DA:1104,0
DA:1105,0
DA:1108,1
DA:1109,1
DA:1108,1
DA:1109,1
DA:1288,0
DA:1292,0
DA:1288,0
DA:1292,0
DA:1288,0
DA:1292,0
DA:1296,0
DA:1297,0
DA:1296,0
DA:1297,0
DA:1296,1
DA:1297,1
DA:1300,0
DA:1304,0
DA:1300,0
DA:1304,0
DA:1300,0
DA:1304,0
DA:1307,1
DA:1308,1
DA:1323,0
DA:1323,0
DA:1323,4
DA:1326,1
DA:1329,0
DA:1329,0
DA:1329,0
DA:1335,0
DA:1335,0
DA:1335,1
DA:1459,0
DA:1461,0
DA:1459,0
DA:1461,0
DA:1459,4
DA:1461,4
DA:1829,0
DA:1834,0
DA:1835,0
DA:1829,0
DA:1834,0
DA:1835,0
DA:1829,4
DA:1834,4
DA:1835,4
DA:1846,0
DA:1846,0
DA:1846,4
DA:2046,1
DA:2047,1
DA:2079,0
DA:2081,0
DA:2082,0
DA:2085,0
DA:2086,0
DA:2089,0
DA:2091,0
DA:2093,0
DA:2094,0
DA:2100,0
DA:2102,0
DA:2103,0
DA:2104,0
DA:2108,0
DA:2111,0
DA:2112,0
DA:2113,0
DA:2114,0
DA:2130,1
DA:2132,1
DA:2134,1
DA:2135,1
DA:2136,1
DA:2137,2
DA:2142,0
DA:2146,0
DA:2147,0
DA:2148,0
DA:2149,0
end_of_record
SF:/opt/ros/foxy/include/rclcpp/node_impl.hpp
FN:60,_ZN6rclcpp30extend_name_with_sub_namespaceERKNSt7__cxx1112basic_stringIcSt11char_traitsIcESaIcEEES7_
FNDA:4,_ZN6rclcpp30extend_name_with_sub_namespaceERKNSt7__cxx1112basic_stringIcSt11char_traitsIcESaIcEEES7_
FN:71,_ZN6rclcpp4Node16create_publisherIN8std_msgs3msg7String_ISaIvEEES5_NS_9PublisherIS6_S5_EEEESt10shared_ptrIT1_ERKNSt7__cxx1112basic_stringIcSt11char_traitsIcESaIcEEERKNS_3QoSERKNS_29PublisherOptionsWithAllocatorIT0_EE
FNDA:2,_ZN6rclcpp4Node16create_publisherIN8std_msgs3msg7String_ISaIvEEES5_NS_9PublisherIS6_S5_EEEESt10shared_ptrIT1_ERKNSt7__cxx1112basic_stringIcSt11char_traitsIcESaIcEEERKNS_3QoSERKNS_29PublisherOptionsWithAllocatorIT0_EE
DA:60,4
DA:62,4
DA:63,4
DA:64,0
DA:66,4
DA:71,2
DA:80,2
end_of_record
SF:/usr/include/c++/9/bits/char_traits.h
FN:100,_ZN9__gnu_cxx11char_traitsIcE2eqERKcS3_
FNDA:0,_ZN9__gnu_cxx11char_traitsIcE2eqERKcS3_
FN:161,_ZN9__gnu_cxx11char_traitsIcE6lengthEPKc
FNDA:0,_ZN9__gnu_cxx11char_traitsIcE6lengthEPKc
FN:336,_ZNSt11char_traitsIcE6lengthEPKc
FNDA:0,_ZNSt11char_traitsIcE6lengthEPKc
FN:368,_ZNSt11char_traitsIcE4copyEPcPKcm
FNDA:0,_ZNSt11char_traitsIcE4copyEPcPKcm
DA:100,0
DA:101,0
DA:161,0
DA:164,0
DA:165,0
DA:166,0
DA:167,0
DA:236,0
DA:336,0
DA:339,0
DA:340,0
DA:342,0
DA:368,0
DA:370,0
DA:371,0
DA:372,0
end_of_record
SF:/opt/ros/foxy/include/rclcpp/context.hpp
FN:310,_ZN6rclcpp7Context15get_sub_contextINS_12experimental19IntraProcessManagerEJEEESt10shared_ptrIT_EDpOT0_
FNDA:0,_ZN6rclcpp7Context15get_sub_contextINS_12experimental19IntraProcessManagerEJEEESt10shared_ptrIT_EDpOT0_
FN:321,_ZZN6rclcpp7Context15get_sub_contextINS_12experimental19IntraProcessManagerEJEEESt10shared_ptrIT_EDpOT0_ENKUlPS3_E_clESA_
FNDA:0,_ZZN6rclcpp7Context15get_sub_contextINS_12experimental19IntraProcessManagerEJEEESt10shared_ptrIT_EDpOT0_ENKUlPS3_E_clESA_
DA:310,0
DA:312,0
DA:314,0
DA:315,0
DA:316,0
DA:317,0
DA:319,0
DA:320,0
DA:321,0
DA:322,0
DA:324,0
DA:327,0
DA:329,0
end_of_record
SF:/usr/include/c++/9/bits/atomic_base.h
FN:279,_ZNSt13__atomic_baseIbEC1Eb
FNDA:4,_ZNSt13__atomic_baseIbEC1Eb
DA:279,4
end_of_record
SF:/usr/include/c++/9/ext/atomicity.h
FN:48,_ZN9__gnu_cxxL18__exchange_and_addEPVii
FNDA:0,_ZN9__gnu_cxxL18__exchange_and_addEPVii
FN:52,_ZN9__gnu_cxxL12__atomic_addEPVii
FNDA:30,_ZN9__gnu_cxxL12__atomic_addEPVii
FN:65,_ZN9__gnu_cxxL25__exchange_and_add_singleEPii
FNDA:0,_ZN9__gnu_cxxL25__exchange_and_add_singleEPii
FN:73,_ZN9__gnu_cxxL19__atomic_add_singleEPii
FNDA:0,_ZN9__gnu_cxxL19__atomic_add_singleEPii
FN:78,_ZN9__gnu_cxxL27__exchange_and_add_dispatchEPii
FNDA:0,_ZN9__gnu_cxxL27__exchange_and_add_dispatchEPii
FN:92,_ZN9__gnu_cxxL21__atomic_add_dispatchEPii
FNDA:30,_ZN9__gnu_cxxL21__atomic_add_dispatchEPii
DA:48,0
DA:49,0
DA:52,30
DA:53,30
DA:65,0
DA:67,0
DA:68,0
DA:69,0
DA:73,0
DA:74,0
DA:78,0
DA:81,0
DA:82,0
DA:84,0
DA:92,30
DA:95,30
DA:96,30
DA:98,0
DA:102,30
end_of_record
SF:/opt/ros/foxy/include/rclcpp/qos_event.hpp
FN:110,_ZN6rclcpp15QOSEventHandlerIZNS_9PublisherIN8std_msgs3msg7String_ISaIvEEES5_EC4EPNS_15node_interfaces17NodeBaseInterfaceERKNSt7__cxx1112basic_stringIcSt11char_traitsIcESaIcEEERKNS_3QoSERKNS_29PublisherOptionsWithAllocatorIS5_EEEUlR35rmw_qos_incompatible_event_status_tE_St10shared_ptrI15rcl_publisher_tEEC2IPFiP11rcl_event_tPKSU_26rcl_publisher_event_type_tES12_EERKSS_T_SV_T0_
FNDA:2,_ZN6rclcpp15QOSEventHandlerIZNS_9PublisherIN8std_msgs3msg7String_ISaIvEEES5_EC4EPNS_15node_interfaces17NodeBaseInterfaceERKNSt7__cxx1112basic_stringIcSt11char_traitsIcESaIcEEERKNS_3QoSERKNS_29PublisherOptionsWithAllocatorIS5_EEEUlR35rmw_qos_incompatible_event_status_tE_St10shared_ptrI15rcl_publisher_tEEC2IPFiP11rcl_event_tPKSU_26rcl_publisher_event_type_tES12_EERKSS_T_SV_T0_
FN:110,_ZN6rclcpp15QOSEventHandlerISt8functionIFvR35rmw_qos_incompatible_event_status_tEESt10shared_ptrI15rcl_publisher_tEEC2IPFiP11rcl_event_tPKS7_26rcl_publisher_event_type_tESF_EERKS5_T_S8_T0_
FNDA:0,_ZN6rclcpp15QOSEventHandlerISt8functionIFvR35rmw_qos_incompatible_event_status_tEESt10shared_ptrI15rcl_publisher_tEEC2IPFiP11rcl_event_tPKS7_26rcl_publisher_event_type_tESF_EERKS5_T_S8_T0_
FN:110,_ZN6rclcpp15QOSEventHandlerISt8functionIFvR28rmw_liveliness_lost_status_tEESt10shared_ptrI15rcl_publisher_tEEC2IPFiP11rcl_event_tPKS7_26rcl_publisher_event_type_tESF_EERKS5_T_S8_T0_
FNDA:0,_ZN6rclcpp15QOSEventHandlerISt8functionIFvR28rmw_liveliness_lost_status_tEESt10shared_ptrI15rcl_publisher_tEEC2IPFiP11rcl_event_tPKS7_26rcl_publisher_event_type_tESF_EERKS5_T_S8_T0_
FN:110,_ZN6rclcpp15QOSEventHandlerISt8functionIFvR36rmw_offered_deadline_missed_status_tEESt10shared_ptrI15rcl_publisher_tEEC2IPFiP11rcl_event_tPKS7_26rcl_publisher_event_type_tESF_EERKS5_T_S8_T0_
FNDA:0,_ZN6rclcpp15QOSEventHandlerISt8functionIFvR36rmw_offered_deadline_missed_status_tEESt10shared_ptrI15rcl_publisher_tEEC2IPFiP11rcl_event_tPKS7_26rcl_publisher_event_type_tESF_EERKS5_T_S8_T0_
FN:133,_ZN6rclcpp15QOSEventHandlerISt8functionIFvR36rmw_offered_deadline_missed_status_tEESt10shared_ptrI15rcl_publisher_tEE7executeEv
FNDA:0,_ZN6rclcpp15QOSEventHandlerISt8functionIFvR36rmw_offered_deadline_missed_status_tEESt10shared_ptrI15rcl_publisher_tEE7executeEv
FN:133,_ZN6rclcpp15QOSEventHandlerISt8functionIFvR28rmw_liveliness_lost_status_tEESt10shared_ptrI15rcl_publisher_tEE7executeEv
FNDA:0,_ZN6rclcpp15QOSEventHandlerISt8functionIFvR28rmw_liveliness_lost_status_tEESt10shared_ptrI15rcl_publisher_tEE7executeEv
FN:133,_ZN6rclcpp15QOSEventHandlerISt8functionIFvR35rmw_qos_incompatible_event_status_tEESt10shared_ptrI15rcl_publisher_tEE7executeEv
FNDA:0,_ZN6rclcpp15QOSEventHandlerISt8functionIFvR35rmw_qos_incompatible_event_status_tEESt10shared_ptrI15rcl_publisher_tEE7executeEv
FN:133,_ZN6rclcpp15QOSEventHandlerIZNS_9PublisherIN8std_msgs3msg7String_ISaIvEEES5_EC4EPNS_15node_interfaces17NodeBaseInterfaceERKNSt7__cxx1112basic_stringIcSt11char_traitsIcESaIcEEERKNS_3QoSERKNS_29PublisherOptionsWithAllocatorIS5_EEEUlR35rmw_qos_incompatible_event_status_tE_St10shared_ptrI15rcl_publisher_tEE7executeEv
FNDA:0,_ZN6rclcpp15QOSEventHandlerIZNS_9PublisherIN8std_msgs3msg7String_ISaIvEEES5_EC4EPNS_15node_interfaces17NodeBaseInterfaceERKNSt7__cxx1112basic_stringIcSt11char_traitsIcESaIcEEERKNS_3QoSERKNS_29PublisherOptionsWithAllocatorIS5_EEEUlR35rmw_qos_incompatible_event_status_tE_St10shared_ptrI15rcl_publisher_tEE7executeEv
DA:110,2
DA:115,6
DA:117,2
DA:118,2
DA:119,2
DA:120,2
DA:121,2
DA:122,6
DA:123,2
DA:124,2
DA:126,0
DA:129,0
DA:110,0
DA:115,0
DA:117,0
DA:118,0
DA:119,0
DA:120,0
DA:121,0
DA:122,0
DA:123,0
DA:124,0
DA:126,0
DA:129,0
DA:110,0
DA:115,0
DA:117,0
DA:118,0
DA:119,0
DA:120,0
DA:121,0
DA:122,0
DA:123,0
DA:124,0
DA:126,0
DA:129,0
DA:110,0
DA:115,0
DA:117,0
DA:118,0
DA:119,0
DA:120,0
DA:121,0
DA:122,0
DA:123,0
DA:124,0
DA:126,0
DA:129,0
DA:133,0
DA:137,0
DA:138,0
DA:139,0
DA:142,0
DA:145,0
DA:133,0
DA:137,0
DA:138,0
DA:139,0
DA:142,0
DA:145,0
DA:133,0
DA:137,0
DA:138,0
DA:139,0
DA:142,0
DA:145,0
DA:133,0
DA:137,0
DA:138,0
DA:139,0
DA:142,0
DA:145,0
end_of_record
SF:/opt/ros/foxy/include/rclcpp/publisher_options.hpp
FN:62,_ZN6rclcpp29PublisherOptionsWithAllocatorISaIvEEC2Ev
FNDA:4,_ZN6rclcpp29PublisherOptionsWithAllocatorISaIvEEC2Ev
FN:72,_ZNK6rclcpp29PublisherOptionsWithAllocatorISaIvEE24to_rcl_publisher_optionsIN8std_msgs3msg7String_IS1_EEEE23rcl_publisher_options_tRKNS_3QoSE
FNDA:2,_ZNK6rclcpp29PublisherOptionsWithAllocatorISaIvEE24to_rcl_publisher_optionsIN8std_msgs3msg7String_IS1_EEEE23rcl_publisher_options_tRKNS_3QoSE
FN:92,_ZNK6rclcpp29PublisherOptionsWithAllocatorISaIvEE13get_allocatorEv
FNDA:8,_ZNK6rclcpp29PublisherOptionsWithAllocatorISaIvEE13get_allocatorEv
DA:62,4
DA:72,2
DA:74,2
DA:77,4
DA:78,2
DA:79,2
DA:82,2
DA:83,0
DA:86,4
DA:92,8
DA:94,8
DA:95,8
DA:97,0
end_of_record
SF:/usr/include/c++/9/bits/exception.h
FN:63,_ZNSt9exceptionC2Ev
FNDA:0,_ZNSt9exceptionC2Ev
DA:63,0
end_of_record
SF:/usr/include/c++/9/bits/std_mutex.h
FN:158,_ZNSt10lock_guardISt15recursive_mutexEC2ERS0_
FNDA:0,_ZNSt10lock_guardISt15recursive_mutexEC2ERS0_
FN:164,_ZNSt10lock_guardISt15recursive_mutexED2Ev
FNDA:0,_ZNSt10lock_guardISt15recursive_mutexED2Ev
DA:158,0
DA:159,0
DA:164,0
DA:165,0
end_of_record
SF:/opt/ros/foxy/include/rclcpp/publisher_factory.hpp
FN:66,_ZN6rclcpp24create_publisher_factoryIN8std_msgs3msg7String_ISaIvEEES4_NS_9PublisherIS5_S4_EEEENS_16PublisherFactoryERKNS_29PublisherOptionsWithAllocatorIT0_EE
FNDA:2,_ZN6rclcpp24create_publisher_factoryIN8std_msgs3msg7String_ISaIvEEES4_NS_9PublisherIS5_S4_EEEENS_16PublisherFactoryERKNS_29PublisherOptionsWithAllocatorIT0_EE
FN:70,_ZZN6rclcpp24create_publisher_factoryIN8std_msgs3msg7String_ISaIvEEES4_NS_9PublisherIS5_S4_EEEENS_16PublisherFactoryERKNS_29PublisherOptionsWithAllocatorIT0_EEENKUlPNS_15node_interfaces17NodeBaseInterfaceERKNSt7__cxx1112basic_stringIcSt11char_traitsIcESaIcEEERKNS_3QoSEE_clESG_SO_SR_
FNDA:2,_ZZN6rclcpp24create_publisher_factoryIN8std_msgs3msg7String_ISaIvEEES4_NS_9PublisherIS5_S4_EEEENS_16PublisherFactoryERKNS_29PublisherOptionsWithAllocatorIT0_EEENKUlPNS_15node_interfaces17NodeBaseInterfaceERKNSt7__cxx1112basic_stringIcSt11char_traitsIcESaIcEEERKNS_3QoSEE_clESG_SO_SR_
DA:66,2
DA:68,2
DA:70,2
DA:76,4
DA:80,2
DA:81,4
DA:86,2
end_of_record
SF:/opt/ros/foxy/include/rclcpp/publisher_base.hpp
FN:199,_ZN6rclcpp13PublisherBase17add_event_handlerIZNS_9PublisherIN8std_msgs3msg7String_ISaIvEEES6_EC4EPNS_15node_interfaces17NodeBaseInterfaceERKNSt7__cxx1112basic_stringIcSt11char_traitsIcESaIcEEERKNS_3QoSERKNS_29PublisherOptionsWithAllocatorIS6_EEEUlR35rmw_qos_incompatible_event_status_tE_EEvRKT_26rcl_publisher_event_type_t
FNDA:2,_ZN6rclcpp13PublisherBase17add_event_handlerIZNS_9PublisherIN8std_msgs3msg7String_ISaIvEEES6_EC4EPNS_15node_interfaces17NodeBaseInterfaceERKNSt7__cxx1112basic_stringIcSt11char_traitsIcESaIcEEERKNS_3QoSERKNS_29PublisherOptionsWithAllocatorIS6_EEEUlR35rmw_qos_incompatible_event_status_tE_EEvRKT_26rcl_publisher_event_type_t
FN:199,_ZN6rclcpp13PublisherBase17add_event_handlerISt8functionIFvR35rmw_qos_incompatible_event_status_tEEEEvRKT_26rcl_publisher_event_type_t
FNDA:0,_ZN6rclcpp13PublisherBase17add_event_handlerISt8functionIFvR35rmw_qos_incompatible_event_status_tEEEEvRKT_26rcl_publisher_event_type_t
FN:199,_ZN6rclcpp13PublisherBase17add_event_handlerISt8functionIFvR28rmw_liveliness_lost_status_tEEEEvRKT_26rcl_publisher_event_type_t
FNDA:0,_ZN6rclcpp13PublisherBase17add_event_handlerISt8functionIFvR28rmw_liveliness_lost_status_tEEEEvRKT_26rcl_publisher_event_type_t
FN:199,_ZN6rclcpp13PublisherBase17add_event_handlerISt8functionIFvR36rmw_offered_deadline_missed_status_tEEEEvRKT_26rcl_publisher_event_type_t
FNDA:0,_ZN6rclcpp13PublisherBase17add_event_handlerISt8functionIFvR36rmw_offered_deadline_missed_status_tEEEEvRKT_26rcl_publisher_event_type_t
DA:199,2
DA:203,0
DA:207,2
DA:209,0
DA:210,0
DA:199,0
DA:203,0
DA:207,0
DA:209,0
DA:210,0
DA:199,0
DA:203,0
DA:207,0
DA:209,0
DA:210,0
DA:199,0
DA:203,0
DA:207,0
DA:209,0
DA:210,0
end_of_record
SF:/opt/ros/foxy/src/gtest_vendor/include/gtest/internal/gtest-internal.h
FN:435,_ZN7testing8internal9GetTypeIdI16TaskManipulationEEPKvv
FNDA:1,_ZN7testing8internal9GetTypeIdI16TaskManipulationEEPKvv
FN:454,_ZN7testing8internal15TestFactoryBaseD0Ev
FNDA:0,_ZN7testing8internal15TestFactoryBaseD0Ev
FN:454,_ZN7testing8internal15TestFactoryBaseD2Ev
FNDA:3,_ZN7testing8internal15TestFactoryBaseD2Ev
FN:461,_ZN7testing8internal15TestFactoryBaseC2Ev
FNDA:3,_ZN7testing8internal15TestFactoryBaseC2Ev
FN:472,_ZN7testing8internal15TestFactoryImplI41TaskManipulation_test_num_publishers_TestE10CreateTestEv
FNDA:1,_ZN7testing8internal15TestFactoryImplI41TaskManipulation_test_num_publishers_TestE10CreateTestEv
FN:493,_ZN7testing8internal12CodeLocationC2ERKNSt7__cxx1112basic_stringIcSt11char_traitsIcESaIcEEEi
FNDA:3,_ZN7testing8internal12CodeLocationC2ERKNSt7__cxx1112basic_stringIcSt11char_traitsIcESaIcEEEi
DA:435,1
DA:440,1
DA:454,0
DA:454,3
DA:461,3
DA:472,1
DA:493,3
DA:494,3
end_of_record
SF:/usr/include/c++/9/bits/shared_ptr_base.h
FN:83,_ZSt20__throw_bad_weak_ptrv
FNDA:0,_ZSt20__throw_bad_weak_ptrv
FN:117,_ZNSt16_Sp_counted_baseILN9__gnu_cxx12_Lock_policyE2EEC2Ev
FNDA:30,_ZNSt16_Sp_counted_baseILN9__gnu_cxx12_Lock_policyE2EEC2Ev
FN:121,_ZNSt16_Sp_counted_baseILN9__gnu_cxx12_Lock_policyE2EED2Ev
FNDA:65,_ZNSt16_Sp_counted_baseILN9__gnu_cxx12_Lock_policyE2EED2Ev
FN:121,_ZNSt16_Sp_counted_baseILN9__gnu_cxx12_Lock_policyE2EED0Ev
FNDA:0,_ZNSt16_Sp_counted_baseILN9__gnu_cxx12_Lock_policyE2EED0Ev
FN:131,_ZNSt16_Sp_counted_baseILN9__gnu_cxx12_Lock_policyE2EE10_M_destroyEv
FNDA:0,_ZNSt16_Sp_counted_baseILN9__gnu_cxx12_Lock_policyE2EE10_M_destroyEv
FN:138,_ZNSt16_Sp_counted_baseILN9__gnu_cxx12_Lock_policyE2EE15_M_add_ref_copyEv
FNDA:22,_ZNSt16_Sp_counted_baseILN9__gnu_cxx12_Lock_policyE2EE15_M_add_ref_copyEv
FN:148,_ZNSt16_Sp_counted_baseILN9__gnu_cxx12_Lock_policyE2EE10_M_releaseEv
FNDA:0,_ZNSt16_Sp_counted_baseILN9__gnu_cxx12_Lock_policyE2EE10_M_releaseEv
FN:177,_ZNSt16_Sp_counted_baseILN9__gnu_cxx12_Lock_policyE2EE15_M_weak_add_refEv
FNDA:8,_ZNSt16_Sp_counted_baseILN9__gnu_cxx12_Lock_policyE2EE15_M_weak_add_refEv
FN:181,_ZNSt16_Sp_counted_baseILN9__gnu_cxx12_Lock_policyE2EE15_M_weak_releaseEv
FNDA:0,_ZNSt16_Sp_counted_baseILN9__gnu_cxx12_Lock_policyE2EE15_M_weak_releaseEv
FN:199,_ZNKSt16_Sp_counted_baseILN9__gnu_cxx12_Lock_policyE2EE16_M_get_use_countEv
FNDA:0,_ZNKSt16_Sp_counted_baseILN9__gnu_cxx12_Lock_policyE2EE16_M_get_use_countEv
FN:239,_ZNSt16_Sp_counted_baseILN9__gnu_cxx12_Lock_policyE2EE15_M_add_ref_lockEv
FNDA:0,_ZNSt16_Sp_counted_baseILN9__gnu_cxx12_Lock_policyE2EE15_M_add_ref_lockEv
FN:283,_ZNSt16_Sp_counted_baseILN9__gnu_cxx12_Lock_policyE2EE23_M_add_ref_lock_nothrowEv
FNDA:0,_ZNSt16_Sp_counted_baseILN9__gnu_cxx12_Lock_policyE2EE23_M_add_ref_lock_nothrowEv
FN:372,_ZNSt15_Sp_counted_ptrIPSaIN8std_msgs3msg7String_ISaIvEEEELN9__gnu_cxx12_Lock_policyE2EEC2ES6_
FNDA:2,_ZNSt15_Sp_counted_ptrIPSaIN8std_msgs3msg7String_ISaIvEEEELN9__gnu_cxx12_Lock_policyE2EEC2ES6_
FN:376,_ZNSt15_Sp_counted_ptrIPSaIN8std_msgs3msg7String_ISaIvEEEELN9__gnu_cxx12_Lock_policyE2EE10_M_disposeEv
FNDA:2,_ZNSt15_Sp_counted_ptrIPSaIN8std_msgs3msg7String_ISaIvEEEELN9__gnu_cxx12_Lock_policyE2EE10_M_disposeEv
FN:380,_ZNSt15_Sp_counted_ptrIPSaIN8std_msgs3msg7String_ISaIvEEEELN9__gnu_cxx12_Lock_policyE2EE10_M_destroyEv
FNDA:2,_ZNSt15_Sp_counted_ptrIPSaIN8std_msgs3msg7String_ISaIvEEEELN9__gnu_cxx12_Lock_policyE2EE10_M_destroyEv
FN:384,_ZNSt15_Sp_counted_ptrIPSaIN8std_msgs3msg7String_ISaIvEEEELN9__gnu_cxx12_Lock_policyE2EE14_M_get_deleterERKSt9type_info
FNDA:0,_ZNSt15_Sp_counted_ptrIPSaIN8std_msgs3msg7String_ISaIvEEEELN9__gnu_cxx12_Lock_policyE2EE14_M_get_deleterERKSt9type_info
FN:414,_ZNSt14_Sp_ebo_helperILi0ESaIN6rclcpp9PublisherIN8std_msgs3msg7String_ISaIvEEES5_EEELb1EEC2ERKS8_
FNDA:2,_ZNSt14_Sp_ebo_helperILi0ESaIN6rclcpp9PublisherIN8std_msgs3msg7String_ISaIvEEES5_EEELb1EEC2ERKS8_
FN:414,_ZNSt14_Sp_ebo_helperILi0ESaIN6rclcpp15QOSEventHandlerIZNS0_9PublisherIN8std_msgs3msg7String_ISaIvEEES6_EC4EPNS0_15node_interfaces17NodeBaseInterfaceERKNSt7__cxx1112basic_stringIcSt11char_traitsIcESaIcEEERKNS0_3QoSERKNS0_29PublisherOptionsWithAllocatorIS6_EEEUlR35rmw_qos_incompatible_event_status_tE_St10shared_ptrI15rcl_publisher_tEEEELb1EEC2ERKSY_
FNDA:2,_ZNSt14_Sp_ebo_helperILi0ESaIN6rclcpp15QOSEventHandlerIZNS0_9PublisherIN8std_msgs3msg7String_ISaIvEEES6_EC4EPNS0_15node_interfaces17NodeBaseInterfaceERKNSt7__cxx1112basic_stringIcSt11char_traitsIcESaIcEEERKNS0_3QoSERKNS0_29PublisherOptionsWithAllocatorIS6_EEEUlR35rmw_qos_incompatible_event_status_tE_St10shared_ptrI15rcl_publisher_tEEEELb1EEC2ERKSY_
FN:414,_ZNSt14_Sp_ebo_helperILi0ESaIN6rclcpp15QOSEventHandlerISt8functionIFvR35rmw_qos_incompatible_event_status_tEESt10shared_ptrI15rcl_publisher_tEEEELb1EEC2ERKSB_
FNDA:0,_ZNSt14_Sp_ebo_helperILi0ESaIN6rclcpp15QOSEventHandlerISt8functionIFvR35rmw_qos_incompatible_event_status_tEESt10shared_ptrI15rcl_publisher_tEEEELb1EEC2ERKSB_
FN:414,_ZNSt14_Sp_ebo_helperILi0ESaIN6rclcpp15QOSEventHandlerISt8functionIFvR28rmw_liveliness_lost_status_tEESt10shared_ptrI15rcl_publisher_tEEEELb1EEC2ERKSB_
FNDA:0,_ZNSt14_Sp_ebo_helperILi0ESaIN6rclcpp15QOSEventHandlerISt8functionIFvR28rmw_liveliness_lost_status_tEESt10shared_ptrI15rcl_publisher_tEEEELb1EEC2ERKSB_
FN:414,_ZNSt14_Sp_ebo_helperILi0ESaIN6rclcpp15QOSEventHandlerISt8functionIFvR36rmw_offered_deadline_missed_status_tEESt10shared_ptrI15rcl_publisher_tEEEELb1EEC2ERKSB_
FNDA:0,_ZNSt14_Sp_ebo_helperILi0ESaIN6rclcpp15QOSEventHandlerISt8functionIFvR36rmw_offered_deadline_missed_status_tEESt10shared_ptrI15rcl_publisher_tEEEELb1EEC2ERKSB_
FN:414,_ZNSt14_Sp_ebo_helperILi0ESaISaIN8std_msgs3msg7String_ISaIvEEEEELb1EEC2ERKS6_
FNDA:2,_ZNSt14_Sp_ebo_helperILi0ESaISaIN8std_msgs3msg7String_ISaIvEEEEELb1EEC2ERKS6_
FN:414,_ZNSt14_Sp_ebo_helperILi0ESaISaIvEELb1EEC2ERKS1_
FNDA:8,_ZNSt14_Sp_ebo_helperILi0ESaISaIvEELb1EEC2ERKS1_
FN:414,_ZNSt14_Sp_ebo_helperILi1ESaIvELb1EEC2ERKS0_
FNDA:0,_ZNSt14_Sp_ebo_helperILi1ESaIvELb1EEC2ERKS0_
FN:414,_ZNSt14_Sp_ebo_helperILi0ESaIN8std_msgs3msg7String_ISaIvEEEELb1EEC2ERKS5_
FNDA:0,_ZNSt14_Sp_ebo_helperILi0ESaIN8std_msgs3msg7String_ISaIvEEEELb1EEC2ERKS5_
FN:414,_ZNSt14_Sp_ebo_helperILi0ESaIN6rclcpp4NodeEELb1EEC2ERKS2_
FNDA:4,_ZNSt14_Sp_ebo_helperILi0ESaIN6rclcpp4NodeEELb1EEC2ERKS2_
FN:415,_ZNSt14_Sp_ebo_helperILi0EZN6rclcpp7Context15get_sub_contextINS0_12experimental19IntraProcessManagerEJEEESt10shared_ptrIT_EDpOT0_EUlPS4_E_Lb1EEC2EOSC_
FNDA:0,_ZNSt14_Sp_ebo_helperILi0EZN6rclcpp7Context15get_sub_contextINS0_12experimental19IntraProcessManagerEJEEESt10shared_ptrIT_EDpOT0_EUlPS4_E_Lb1EEC2EOSC_
FN:415,_ZNSt14_Sp_ebo_helperILi0ESt14default_deleteIN8std_msgs3msg7String_ISaIvEEEELb1EEC2EOS6_
FNDA:0,_ZNSt14_Sp_ebo_helperILi0ESt14default_deleteIN8std_msgs3msg7String_ISaIvEEEELb1EEC2EOS6_
FN:418,_ZNSt14_Sp_ebo_helperILi0ESaIN6rclcpp4NodeEELb1EE6_S_getERS3_
FNDA:8,_ZNSt14_Sp_ebo_helperILi0ESaIN6rclcpp4NodeEELb1EE6_S_getERS3_
FN:418,_ZNSt14_Sp_ebo_helperILi0ESaIN6rclcpp9PublisherIN8std_msgs3msg7String_ISaIvEEES5_EEELb1EE6_S_getERS9_
FNDA:4,_ZNSt14_Sp_ebo_helperILi0ESaIN6rclcpp9PublisherIN8std_msgs3msg7String_ISaIvEEES5_EEELb1EE6_S_getERS9_
FN:418,_ZNSt14_Sp_ebo_helperILi1ESaIvELb1EE6_S_getERS1_
FNDA:0,_ZNSt14_Sp_ebo_helperILi1ESaIvELb1EE6_S_getERS1_
FN:418,_ZNSt14_Sp_ebo_helperILi0EZN6rclcpp7Context15get_sub_contextINS0_12experimental19IntraProcessManagerEJEEESt10shared_ptrIT_EDpOT0_EUlPS4_E_Lb1EE6_S_getERSD_
FNDA:0,_ZNSt14_Sp_ebo_helperILi0EZN6rclcpp7Context15get_sub_contextINS0_12experimental19IntraProcessManagerEJEEESt10shared_ptrIT_EDpOT0_EUlPS4_E_Lb1EE6_S_getERSD_
FN:418,_ZNSt14_Sp_ebo_helperILi0ESaISaIN8std_msgs3msg7String_ISaIvEEEEELb1EE6_S_getERS7_
FNDA:4,_ZNSt14_Sp_ebo_helperILi0ESaISaIN8std_msgs3msg7String_ISaIvEEEEELb1EE6_S_getERS7_
FN:418,_ZNSt14_Sp_ebo_helperILi0ESaISaIvEELb1EE6_S_getERS2_
FNDA:56,_ZNSt14_Sp_ebo_helperILi0ESaISaIvEELb1EE6_S_getERS2_
FN:418,_ZNSt14_Sp_ebo_helperILi0ESaIN6rclcpp15QOSEventHandlerISt8functionIFvR36rmw_offered_deadline_missed_status_tEESt10shared_ptrI15rcl_publisher_tEEEELb1EE6_S_getERSC_
FNDA:0,_ZNSt14_Sp_ebo_helperILi0ESaIN6rclcpp15QOSEventHandlerISt8functionIFvR36rmw_offered_deadline_missed_status_tEESt10shared_ptrI15rcl_publisher_tEEEELb1EE6_S_getERSC_
FN:418,_ZNSt14_Sp_ebo_helperILi0ESaIN6rclcpp15QOSEventHandlerISt8functionIFvR28rmw_liveliness_lost_status_tEESt10shared_ptrI15rcl_publisher_tEEEELb1EE6_S_getERSC_
FNDA:0,_ZNSt14_Sp_ebo_helperILi0ESaIN6rclcpp15QOSEventHandlerISt8functionIFvR28rmw_liveliness_lost_status_tEESt10shared_ptrI15rcl_publisher_tEEEELb1EE6_S_getERSC_
FN:418,_ZNSt14_Sp_ebo_helperILi0ESaIN6rclcpp15QOSEventHandlerISt8functionIFvR35rmw_qos_incompatible_event_status_tEESt10shared_ptrI15rcl_publisher_tEEEELb1EE6_S_getERSC_
FNDA:0,_ZNSt14_Sp_ebo_helperILi0ESaIN6rclcpp15QOSEventHandlerISt8functionIFvR35rmw_qos_incompatible_event_status_tEESt10shared_ptrI15rcl_publisher_tEEEELb1EE6_S_getERSC_
FN:418,_ZNSt14_Sp_ebo_helperILi0ESaIN6rclcpp15QOSEventHandlerIZNS0_9PublisherIN8std_msgs3msg7String_ISaIvEEES6_EC4EPNS0_15node_interfaces17NodeBaseInterfaceERKNSt7__cxx1112basic_stringIcSt11char_traitsIcESaIcEEERKNS0_3QoSERKNS0_29PublisherOptionsWithAllocatorIS6_EEEUlR35rmw_qos_incompatible_event_status_tE_St10shared_ptrI15rcl_publisher_tEEEELb1EE6_S_getERSZ_
FNDA:0,_ZNSt14_Sp_ebo_helperILi0ESaIN6rclcpp15QOSEventHandlerIZNS0_9PublisherIN8std_msgs3msg7String_ISaIvEEES6_EC4EPNS0_15node_interfaces17NodeBaseInterfaceERKNSt7__cxx1112basic_stringIcSt11char_traitsIcESaIcEEERKNS0_3QoSERKNS0_29PublisherOptionsWithAllocatorIS6_EEEUlR35rmw_qos_incompatible_event_status_tE_St10shared_ptrI15rcl_publisher_tEEEELb1EE6_S_getERSZ_
FN:418,_ZNSt14_Sp_ebo_helperILi0ESaIN8std_msgs3msg7String_ISaIvEEEELb1EE6_S_getERS6_
FNDA:0,_ZNSt14_Sp_ebo_helperILi0ESaIN8std_msgs3msg7String_ISaIvEEEELb1EE6_S_getERS6_
FN:418,_ZNSt14_Sp_ebo_helperILi0ESt14default_deleteIN8std_msgs3msg7String_ISaIvEEEELb1EE6_S_getERS7_
FNDA:0,_ZNSt14_Sp_ebo_helperILi0ESt14default_deleteIN8std_msgs3msg7String_ISaIvEEEELb1EE6_S_getERS7_
FN:446,_ZNSt19_Sp_counted_deleterIPN6rclcpp12experimental19IntraProcessManagerEZNS0_7Context15get_sub_contextIS2_JEEESt10shared_ptrIT_EDpOT0_EUlS3_E_SaIvELN9__gnu_cxx12_Lock_policyE2EE5_ImplC2ES3_SC_RKSD_
FNDA:0,_ZNSt19_Sp_counted_deleterIPN6rclcpp12experimental19IntraProcessManagerEZNS0_7Context15get_sub_contextIS2_JEEESt10shared_ptrIT_EDpOT0_EUlS3_E_SaIvELN9__gnu_cxx12_Lock_policyE2EE5_ImplC2ES3_SC_RKSD_
FN:446,_ZNSt19_Sp_counted_deleterIPN8std_msgs3msg7String_ISaIvEEESt14default_deleteIS4_ES3_LN9__gnu_cxx12_Lock_policyE2EE5_ImplC2ES5_S7_RKS3_
FNDA:0,_ZNSt19_Sp_counted_deleterIPN8std_msgs3msg7String_ISaIvEEESt14default_deleteIS4_ES3_LN9__gnu_cxx12_Lock_policyE2EE5_ImplC2ES5_S7_RKS3_
FN:450,_ZNSt19_Sp_counted_deleterIPN6rclcpp12experimental19IntraProcessManagerEZNS0_7Context15get_sub_contextIS2_JEEESt10shared_ptrIT_EDpOT0_EUlS3_E_SaIvELN9__gnu_cxx12_Lock_policyE2EE5_Impl6_M_delEv
FNDA:0,_ZNSt19_Sp_counted_deleterIPN6rclcpp12experimental19IntraProcessManagerEZNS0_7Context15get_sub_contextIS2_JEEESt10shared_ptrIT_EDpOT0_EUlS3_E_SaIvELN9__gnu_cxx12_Lock_policyE2EE5_Impl6_M_delEv
FN:450,_ZNSt19_Sp_counted_deleterIPN8std_msgs3msg7String_ISaIvEEESt14default_deleteIS4_ES3_LN9__gnu_cxx12_Lock_policyE2EE5_Impl6_M_delEv
FNDA:0,_ZNSt19_Sp_counted_deleterIPN8std_msgs3msg7String_ISaIvEEESt14default_deleteIS4_ES3_LN9__gnu_cxx12_Lock_policyE2EE5_Impl6_M_delEv
FN:451,_ZNSt19_Sp_counted_deleterIPN6rclcpp12experimental19IntraProcessManagerEZNS0_7Context15get_sub_contextIS2_JEEESt10shared_ptrIT_EDpOT0_EUlS3_E_SaIvELN9__gnu_cxx12_Lock_policyE2EE5_Impl8_M_allocEv
FNDA:0,_ZNSt19_Sp_counted_deleterIPN6rclcpp12experimental19IntraProcessManagerEZNS0_7Context15get_sub_contextIS2_JEEESt10shared_ptrIT_EDpOT0_EUlS3_E_SaIvELN9__gnu_cxx12_Lock_policyE2EE5_Impl8_M_allocEv
FN:451,_ZNSt19_Sp_counted_deleterIPN8std_msgs3msg7String_ISaIvEEESt14default_deleteIS4_ES3_LN9__gnu_cxx12_Lock_policyE2EE5_Impl8_M_allocEv
FNDA:0,_ZNSt19_Sp_counted_deleterIPN8std_msgs3msg7String_ISaIvEEESt14default_deleteIS4_ES3_LN9__gnu_cxx12_Lock_policyE2EE5_Impl8_M_allocEv
FN:460,_ZNSt19_Sp_counted_deleterIPN8std_msgs3msg7String_ISaIvEEESt14default_deleteIS4_ES3_LN9__gnu_cxx12_Lock_policyE2EEC2ES5_S7_
FNDA:0,_ZNSt19_Sp_counted_deleterIPN8std_msgs3msg7String_ISaIvEEESt14default_deleteIS4_ES3_LN9__gnu_cxx12_Lock_policyE2EEC2ES5_S7_
FN:464,_ZNSt19_Sp_counted_deleterIPN6rclcpp12experimental19IntraProcessManagerEZNS0_7Context15get_sub_contextIS2_JEEESt10shared_ptrIT_EDpOT0_EUlS3_E_SaIvELN9__gnu_cxx12_Lock_policyE2EEC2ES3_SC_RKSD_
FNDA:0,_ZNSt19_Sp_counted_deleterIPN6rclcpp12experimental19IntraProcessManagerEZNS0_7Context15get_sub_contextIS2_JEEESt10shared_ptrIT_EDpOT0_EUlS3_E_SaIvELN9__gnu_cxx12_Lock_policyE2EEC2ES3_SC_RKSD_
FN:467,_ZNSt19_Sp_counted_deleterIPN6rclcpp12experimental19IntraProcessManagerEZNS0_7Context15get_sub_contextIS2_JEEESt10shared_ptrIT_EDpOT0_EUlS3_E_SaIvELN9__gnu_cxx12_Lock_policyE2EED2Ev
FNDA:0,_ZNSt19_Sp_counted_deleterIPN6rclcpp12experimental19IntraProcessManagerEZNS0_7Context15get_sub_contextIS2_JEEESt10shared_ptrIT_EDpOT0_EUlS3_E_SaIvELN9__gnu_cxx12_Lock_policyE2EED2Ev
FN:467,_ZNSt19_Sp_counted_deleterIPN8std_msgs3msg7String_ISaIvEEESt14default_deleteIS4_ES3_LN9__gnu_cxx12_Lock_policyE2EED2Ev
FNDA:0,_ZNSt19_Sp_counted_deleterIPN8std_msgs3msg7String_ISaIvEEESt14default_deleteIS4_ES3_LN9__gnu_cxx12_Lock_policyE2EED2Ev
FN:467,_ZNSt19_Sp_counted_deleterIPN8std_msgs3msg7String_ISaIvEEESt14default_deleteIS4_ES3_LN9__gnu_cxx12_Lock_policyE2EED0Ev
FNDA:0,_ZNSt19_Sp_counted_deleterIPN8std_msgs3msg7String_ISaIvEEESt14default_deleteIS4_ES3_LN9__gnu_cxx12_Lock_policyE2EED0Ev
FN:467,_ZNSt19_Sp_counted_deleterIPN6rclcpp12experimental19IntraProcessManagerEZNS0_7Context15get_sub_contextIS2_JEEESt10shared_ptrIT_EDpOT0_EUlS3_E_SaIvELN9__gnu_cxx12_Lock_policyE2EED0Ev
FNDA:0,_ZNSt19_Sp_counted_deleterIPN6rclcpp12experimental19IntraProcessManagerEZNS0_7Context15get_sub_contextIS2_JEEESt10shared_ptrIT_EDpOT0_EUlS3_E_SaIvELN9__gnu_cxx12_Lock_policyE2EED0Ev
FN:470,_ZNSt19_Sp_counted_deleterIPN8std_msgs3msg7String_ISaIvEEESt14default_deleteIS4_ES3_LN9__gnu_cxx12_Lock_policyE2EE10_M_disposeEv
FNDA:0,_ZNSt19_Sp_counted_deleterIPN8std_msgs3msg7String_ISaIvEEESt14default_deleteIS4_ES3_LN9__gnu_cxx12_Lock_policyE2EE10_M_disposeEv
FN:470,_ZNSt19_Sp_counted_deleterIPN6rclcpp12experimental19IntraProcessManagerEZNS0_7Context15get_sub_contextIS2_JEEESt10shared_ptrIT_EDpOT0_EUlS3_E_SaIvELN9__gnu_cxx12_Lock_policyE2EE10_M_disposeEv
FNDA:0,_ZNSt19_Sp_counted_deleterIPN6rclcpp12experimental19IntraProcessManagerEZNS0_7Context15get_sub_contextIS2_JEEESt10shared_ptrIT_EDpOT0_EUlS3_E_SaIvELN9__gnu_cxx12_Lock_policyE2EE10_M_disposeEv
FN:474,_ZNSt19_Sp_counted_deleterIPN8std_msgs3msg7String_ISaIvEEESt14default_deleteIS4_ES3_LN9__gnu_cxx12_Lock_policyE2EE10_M_destroyEv
FNDA:0,_ZNSt19_Sp_counted_deleterIPN8std_msgs3msg7String_ISaIvEEESt14default_deleteIS4_ES3_LN9__gnu_cxx12_Lock_policyE2EE10_M_destroyEv
FN:474,_ZNSt19_Sp_counted_deleterIPN6rclcpp12experimental19IntraProcessManagerEZNS0_7Context15get_sub_contextIS2_JEEESt10shared_ptrIT_EDpOT0_EUlS3_E_SaIvELN9__gnu_cxx12_Lock_policyE2EE10_M_destroyEv
FNDA:0,_ZNSt19_Sp_counted_deleterIPN6rclcpp12experimental19IntraProcessManagerEZNS0_7Context15get_sub_contextIS2_JEEESt10shared_ptrIT_EDpOT0_EUlS3_E_SaIvELN9__gnu_cxx12_Lock_policyE2EE10_M_destroyEv
FN:482,_ZNSt19_Sp_counted_deleterIPN8std_msgs3msg7String_ISaIvEEESt14default_deleteIS4_ES3_LN9__gnu_cxx12_Lock_policyE2EE14_M_get_deleterERKSt9type_info
FNDA:0,_ZNSt19_Sp_counted_deleterIPN8std_msgs3msg7String_ISaIvEEESt14default_deleteIS4_ES3_LN9__gnu_cxx12_Lock_policyE2EE14_M_get_deleterERKSt9type_info
FN:482,_ZNSt19_Sp_counted_deleterIPN6rclcpp12experimental19IntraProcessManagerEZNS0_7Context15get_sub_contextIS2_JEEESt10shared_ptrIT_EDpOT0_EUlS3_E_SaIvELN9__gnu_cxx12_Lock_policyE2EE14_M_get_deleterERKSt9type_info
FNDA:0,_ZNSt19_Sp_counted_deleterIPN6rclcpp12experimental19IntraProcessManagerEZNS0_7Context15get_sub_contextIS2_JEEESt10shared_ptrIT_EDpOT0_EUlS3_E_SaIvELN9__gnu_cxx12_Lock_policyE2EE14_M_get_deleterERKSt9type_info
FN:508,_ZNSt19_Sp_make_shared_tag5_S_tiEv
FNDA:0,_ZNSt19_Sp_make_shared_tag5_S_tiEv
FN:531,_ZNSt23_Sp_counted_ptr_inplaceIN6rclcpp15QOSEventHandlerISt8functionIFvR28rmw_liveliness_lost_status_tEESt10shared_ptrI15rcl_publisher_tEEESaISA_ELN9__gnu_cxx12_Lock_policyE2EE5_ImplC2ESB_
FNDA:0,_ZNSt23_Sp_counted_ptr_inplaceIN6rclcpp15QOSEventHandlerISt8functionIFvR28rmw_liveliness_lost_status_tEESt10shared_ptrI15rcl_publisher_tEEESaISA_ELN9__gnu_cxx12_Lock_policyE2EE5_ImplC2ESB_
FN:531,_ZNSt23_Sp_counted_ptr_inplaceIN6rclcpp15QOSEventHandlerISt8functionIFvR36rmw_offered_deadline_missed_status_tEESt10shared_ptrI15rcl_publisher_tEEESaISA_ELN9__gnu_cxx12_Lock_policyE2EE5_ImplC2ESB_
FNDA:0,_ZNSt23_Sp_counted_ptr_inplaceIN6rclcpp15QOSEventHandlerISt8functionIFvR36rmw_offered_deadline_missed_status_tEESt10shared_ptrI15rcl_publisher_tEEESaISA_ELN9__gnu_cxx12_Lock_policyE2EE5_ImplC2ESB_
FN:531,_ZNSt23_Sp_counted_ptr_inplaceISaIvESaIS0_ELN9__gnu_cxx12_Lock_policyE2EE5_ImplC2ES1_
FNDA:8,_ZNSt23_Sp_counted_ptr_inplaceISaIvESaIS0_ELN9__gnu_cxx12_Lock_policyE2EE5_ImplC2ES1_
FN:531,_ZNSt23_Sp_counted_ptr_inplaceISaIN8std_msgs3msg7String_ISaIvEEEESaIS5_ELN9__gnu_cxx12_Lock_policyE2EE5_ImplC2ES6_
FNDA:2,_ZNSt23_Sp_counted_ptr_inplaceISaIN8std_msgs3msg7String_ISaIvEEEESaIS5_ELN9__gnu_cxx12_Lock_policyE2EE5_ImplC2ES6_
FN:531,_ZNSt23_Sp_counted_ptr_inplaceIN6rclcpp15QOSEventHandlerISt8functionIFvR35rmw_qos_incompatible_event_status_tEESt10shared_ptrI15rcl_publisher_tEEESaISA_ELN9__gnu_cxx12_Lock_policyE2EE5_ImplC2ESB_
FNDA:0,_ZNSt23_Sp_counted_ptr_inplaceIN6rclcpp15QOSEventHandlerISt8functionIFvR35rmw_qos_incompatible_event_status_tEESt10shared_ptrI15rcl_publisher_tEEESaISA_ELN9__gnu_cxx12_Lock_policyE2EE5_ImplC2ESB_
FN:531,_ZNSt23_Sp_counted_ptr_inplaceIN6rclcpp15QOSEventHandlerIZNS0_9PublisherIN8std_msgs3msg7String_ISaIvEEES6_EC4EPNS0_15node_interfaces17NodeBaseInterfaceERKNSt7__cxx1112basic_stringIcSt11char_traitsIcESaIcEEERKNS0_3QoSERKNS0_29PublisherOptionsWithAllocatorIS6_EEEUlR35rmw_qos_incompatible_event_status_tE_St10shared_ptrI15rcl_publisher_tEEESaISX_ELN9__gnu_cxx12_Lock_policyE2EE5_ImplC2ESY_
FNDA:2,_ZNSt23_Sp_counted_ptr_inplaceIN6rclcpp15QOSEventHandlerIZNS0_9PublisherIN8std_msgs3msg7String_ISaIvEEES6_EC4EPNS0_15node_interfaces17NodeBaseInterfaceERKNSt7__cxx1112basic_stringIcSt11char_traitsIcESaIcEEERKNS0_3QoSERKNS0_29PublisherOptionsWithAllocatorIS6_EEEUlR35rmw_qos_incompatible_event_status_tE_St10shared_ptrI15rcl_publisher_tEEESaISX_ELN9__gnu_cxx12_Lock_policyE2EE5_ImplC2ESY_
FN:531,_ZNSt23_Sp_counted_ptr_inplaceIN6rclcpp9PublisherIN8std_msgs3msg7String_ISaIvEEES5_EESaIS7_ELN9__gnu_cxx12_Lock_policyE2EE5_ImplC2ES8_
FNDA:2,_ZNSt23_Sp_counted_ptr_inplaceIN6rclcpp9PublisherIN8std_msgs3msg7String_ISaIvEEES5_EESaIS7_ELN9__gnu_cxx12_Lock_policyE2EE5_ImplC2ES8_
FN:531,_ZNSt23_Sp_counted_ptr_inplaceIN6rclcpp4NodeESaIS1_ELN9__gnu_cxx12_Lock_policyE2EE5_ImplC2ES2_
FNDA:4,_ZNSt23_Sp_counted_ptr_inplaceIN6rclcpp4NodeESaIS1_ELN9__gnu_cxx12_Lock_policyE2EE5_ImplC2ES2_
FN:531,_ZNSt23_Sp_counted_ptr_inplaceIN8std_msgs3msg7String_ISaIvEEESaIS4_ELN9__gnu_cxx12_Lock_policyE2EE5_ImplC2ES5_
FNDA:0,_ZNSt23_Sp_counted_ptr_inplaceIN8std_msgs3msg7String_ISaIvEEESaIS4_ELN9__gnu_cxx12_Lock_policyE2EE5_ImplC2ES5_
FN:533,_ZNSt23_Sp_counted_ptr_inplaceISaIvESaIS0_ELN9__gnu_cxx12_Lock_policyE2EE5_Impl8_M_allocEv
FNDA:56,_ZNSt23_Sp_counted_ptr_inplaceISaIvESaIS0_ELN9__gnu_cxx12_Lock_policyE2EE5_Impl8_M_allocEv
FN:533,_ZNSt23_Sp_counted_ptr_inplaceIN6rclcpp15QOSEventHandlerIZNS0_9PublisherIN8std_msgs3msg7String_ISaIvEEES6_EC4EPNS0_15node_interfaces17NodeBaseInterfaceERKNSt7__cxx1112basic_stringIcSt11char_traitsIcESaIcEEERKNS0_3QoSERKNS0_29PublisherOptionsWithAllocatorIS6_EEEUlR35rmw_qos_incompatible_event_status_tE_St10shared_ptrI15rcl_publisher_tEEESaISX_ELN9__gnu_cxx12_Lock_policyE2EE5_Impl8_M_allocEv
FNDA:0,_ZNSt23_Sp_counted_ptr_inplaceIN6rclcpp15QOSEventHandlerIZNS0_9PublisherIN8std_msgs3msg7String_ISaIvEEES6_EC4EPNS0_15node_interfaces17NodeBaseInterfaceERKNSt7__cxx1112basic_stringIcSt11char_traitsIcESaIcEEERKNS0_3QoSERKNS0_29PublisherOptionsWithAllocatorIS6_EEEUlR35rmw_qos_incompatible_event_status_tE_St10shared_ptrI15rcl_publisher_tEEESaISX_ELN9__gnu_cxx12_Lock_policyE2EE5_Impl8_M_allocEv
FN:533,_ZNSt23_Sp_counted_ptr_inplaceIN6rclcpp15QOSEventHandlerISt8functionIFvR35rmw_qos_incompatible_event_status_tEESt10shared_ptrI15rcl_publisher_tEEESaISA_ELN9__gnu_cxx12_Lock_policyE2EE5_Impl8_M_allocEv
FNDA:0,_ZNSt23_Sp_counted_ptr_inplaceIN6rclcpp15QOSEventHandlerISt8functionIFvR35rmw_qos_incompatible_event_status_tEESt10shared_ptrI15rcl_publisher_tEEESaISA_ELN9__gnu_cxx12_Lock_policyE2EE5_Impl8_M_allocEv
FN:533,_ZNSt23_Sp_counted_ptr_inplaceIN6rclcpp15QOSEventHandlerISt8functionIFvR28rmw_liveliness_lost_status_tEESt10shared_ptrI15rcl_publisher_tEEESaISA_ELN9__gnu_cxx12_Lock_policyE2EE5_Impl8_M_allocEv
FNDA:0,_ZNSt23_Sp_counted_ptr_inplaceIN6rclcpp15QOSEventHandlerISt8functionIFvR28rmw_liveliness_lost_status_tEESt10shared_ptrI15rcl_publisher_tEEESaISA_ELN9__gnu_cxx12_Lock_policyE2EE5_Impl8_M_allocEv
FN:533,_ZNSt23_Sp_counted_ptr_inplaceIN6rclcpp15QOSEventHandlerISt8functionIFvR36rmw_offered_deadline_missed_status_tEESt10shared_ptrI15rcl_publisher_tEEESaISA_ELN9__gnu_cxx12_Lock_policyE2EE5_Impl8_M_allocEv
FNDA:0,_ZNSt23_Sp_counted_ptr_inplaceIN6rclcpp15QOSEventHandlerISt8functionIFvR36rmw_offered_deadline_missed_status_tEESt10shared_ptrI15rcl_publisher_tEEESaISA_ELN9__gnu_cxx12_Lock_policyE2EE5_Impl8_M_allocEv
FN:533,_ZNSt23_Sp_counted_ptr_inplaceISaIN8std_msgs3msg7String_ISaIvEEEESaIS5_ELN9__gnu_cxx12_Lock_policyE2EE5_Impl8_M_allocEv
FNDA:4,_ZNSt23_Sp_counted_ptr_inplaceISaIN8std_msgs3msg7String_ISaIvEEEESaIS5_ELN9__gnu_cxx12_Lock_policyE2EE5_Impl8_M_allocEv
FN:533,_ZNSt23_Sp_counted_ptr_inplaceIN8std_msgs3msg7String_ISaIvEEESaIS4_ELN9__gnu_cxx12_Lock_policyE2EE5_Impl8_M_allocEv
FNDA:0,_ZNSt23_Sp_counted_ptr_inplaceIN8std_msgs3msg7String_ISaIvEEESaIS4_ELN9__gnu_cxx12_Lock_policyE2EE5_Impl8_M_allocEv
FN:533,_ZNSt23_Sp_counted_ptr_inplaceIN6rclcpp9PublisherIN8std_msgs3msg7String_ISaIvEEES5_EESaIS7_ELN9__gnu_cxx12_Lock_policyE2EE5_Impl8_M_allocEv
FNDA:4,_ZNSt23_Sp_counted_ptr_inplaceIN6rclcpp9PublisherIN8std_msgs3msg7String_ISaIvEEES5_EESaIS7_ELN9__gnu_cxx12_Lock_policyE2EE5_Impl8_M_allocEv
FN:533,_ZNSt23_Sp_counted_ptr_inplaceIN6rclcpp4NodeESaIS1_ELN9__gnu_cxx12_Lock_policyE2EE5_Impl8_M_allocEv
FNDA:8,_ZNSt23_Sp_counted_ptr_inplaceIN6rclcpp4NodeESaIS1_ELN9__gnu_cxx12_Lock_policyE2EE5_Impl8_M_allocEv
FN:543,_ZNSt23_Sp_counted_ptr_inplaceIN8std_msgs3msg7String_ISaIvEEESaIS4_ELN9__gnu_cxx12_Lock_policyE2EEC2IJRS4_EEES5_DpOT_
FNDA:0,_ZNSt23_Sp_counted_ptr_inplaceIN8std_msgs3msg7String_ISaIvEEESaIS4_ELN9__gnu_cxx12_Lock_policyE2EEC2IJRS4_EEES5_DpOT_
FN:543,_ZNSt23_Sp_counted_ptr_inplaceIN6rclcpp9PublisherIN8std_msgs3msg7String_ISaIvEEES5_EESaIS7_ELN9__gnu_cxx12_Lock_policyE2EEC2IJRPNS0_15node_interfaces17NodeBaseInterfaceERKNSt7__cxx1112basic_stringIcSt11char_traitsIcESaIcEEERKNS0_3QoSERKNS0_29PublisherOptionsWithAllocatorIS5_EEEEES8_DpOT_
FNDA:2,_ZNSt23_Sp_counted_ptr_inplaceIN6rclcpp9PublisherIN8std_msgs3msg7String_ISaIvEEES5_EESaIS7_ELN9__gnu_cxx12_Lock_policyE2EEC2IJRPNS0_15node_interfaces17NodeBaseInterfaceERKNSt7__cxx1112basic_stringIcSt11char_traitsIcESaIcEEERKNS0_3QoSERKNS0_29PublisherOptionsWithAllocatorIS5_EEEEES8_DpOT_
FN:543,_ZNSt23_Sp_counted_ptr_inplaceISaIN8std_msgs3msg7String_ISaIvEEEESaIS5_ELN9__gnu_cxx12_Lock_policyE2EEC2IJRS3_EEES6_DpOT_
FNDA:2,_ZNSt23_Sp_counted_ptr_inplaceISaIN8std_msgs3msg7String_ISaIvEEEESaIS5_ELN9__gnu_cxx12_Lock_policyE2EEC2IJRS3_EEES6_DpOT_
FN:543,_ZNSt23_Sp_counted_ptr_inplaceISaIvESaIS0_ELN9__gnu_cxx12_Lock_policyE2EEC2IJEEES1_DpOT_
FNDA:8,_ZNSt23_Sp_counted_ptr_inplaceISaIvESaIS0_ELN9__gnu_cxx12_Lock_policyE2EEC2IJEEES1_DpOT_
FN:543,_ZNSt23_Sp_counted_ptr_inplaceIN6rclcpp15QOSEventHandlerISt8functionIFvR36rmw_offered_deadline_missed_status_tEESt10shared_ptrI15rcl_publisher_tEEESaISA_ELN9__gnu_cxx12_Lock_policyE2EEC2IJRKS6_RFiP11rcl_event_tPKS8_26rcl_publisher_event_type_tERS9_RKSM_EEESB_DpOT_
FNDA:0,_ZNSt23_Sp_counted_ptr_inplaceIN6rclcpp15QOSEventHandlerISt8functionIFvR36rmw_offered_deadline_missed_status_tEESt10shared_ptrI15rcl_publisher_tEEESaISA_ELN9__gnu_cxx12_Lock_policyE2EEC2IJRKS6_RFiP11rcl_event_tPKS8_26rcl_publisher_event_type_tERS9_RKSM_EEESB_DpOT_
FN:543,_ZNSt23_Sp_counted_ptr_inplaceIN6rclcpp15QOSEventHandlerISt8functionIFvR28rmw_liveliness_lost_status_tEESt10shared_ptrI15rcl_publisher_tEEESaISA_ELN9__gnu_cxx12_Lock_policyE2EEC2IJRKS6_RFiP11rcl_event_tPKS8_26rcl_publisher_event_type_tERS9_RKSM_EEESB_DpOT_
FNDA:0,_ZNSt23_Sp_counted_ptr_inplaceIN6rclcpp15QOSEventHandlerISt8functionIFvR28rmw_liveliness_lost_status_tEESt10shared_ptrI15rcl_publisher_tEEESaISA_ELN9__gnu_cxx12_Lock_policyE2EEC2IJRKS6_RFiP11rcl_event_tPKS8_26rcl_publisher_event_type_tERS9_RKSM_EEESB_DpOT_
FN:543,_ZNSt23_Sp_counted_ptr_inplaceIN6rclcpp15QOSEventHandlerISt8functionIFvR35rmw_qos_incompatible_event_status_tEESt10shared_ptrI15rcl_publisher_tEEESaISA_ELN9__gnu_cxx12_Lock_policyE2EEC2IJRKS6_RFiP11rcl_event_tPKS8_26rcl_publisher_event_type_tERS9_RKSM_EEESB_DpOT_
FNDA:0,_ZNSt23_Sp_counted_ptr_inplaceIN6rclcpp15QOSEventHandlerISt8functionIFvR35rmw_qos_incompatible_event_status_tEESt10shared_ptrI15rcl_publisher_tEEESaISA_ELN9__gnu_cxx12_Lock_policyE2EEC2IJRKS6_RFiP11rcl_event_tPKS8_26rcl_publisher_event_type_tERS9_RKSM_EEESB_DpOT_
FN:543,_ZNSt23_Sp_counted_ptr_inplaceIN6rclcpp4NodeESaIS1_ELN9__gnu_cxx12_Lock_policyE2EEC2IJRA18_KcEEES2_DpOT_
FNDA:1,_ZNSt23_Sp_counted_ptr_inplaceIN6rclcpp4NodeESaIS1_ELN9__gnu_cxx12_Lock_policyE2EEC2IJRA18_KcEEES2_DpOT_
FN:543,_ZNSt23_Sp_counted_ptr_inplaceIN6rclcpp15QOSEventHandlerIZNS0_9PublisherIN8std_msgs3msg7String_ISaIvEEES6_EC4EPNS0_15node_interfaces17NodeBaseInterfaceERKNSt7__cxx1112basic_stringIcSt11char_traitsIcESaIcEEERKNS0_3QoSERKNS0_29PublisherOptionsWithAllocatorIS6_EEEUlR35rmw_qos_incompatible_event_status_tE_St10shared_ptrI15rcl_publisher_tEEESaISX_ELN9__gnu_cxx12_Lock_policyE2EEC2IJRKST_RFiP11rcl_event_tPKSV_26rcl_publisher_event_type_tERSW_RKS19_EEESY_DpOT_
FNDA:2,_ZNSt23_Sp_counted_ptr_inplaceIN6rclcpp15QOSEventHandlerIZNS0_9PublisherIN8std_msgs3msg7String_ISaIvEEES6_EC4EPNS0_15node_interfaces17NodeBaseInterfaceERKNSt7__cxx1112basic_stringIcSt11char_traitsIcESaIcEEERKNS0_3QoSERKNS0_29PublisherOptionsWithAllocatorIS6_EEEUlR35rmw_qos_incompatible_event_status_tE_St10shared_ptrI15rcl_publisher_tEEESaISX_ELN9__gnu_cxx12_Lock_policyE2EEC2IJRKST_RFiP11rcl_event_tPKSV_26rcl_publisher_event_type_tERSW_RKS19_EEESY_DpOT_
FN:552,_ZNSt23_Sp_counted_ptr_inplaceIN6rclcpp9PublisherIN8std_msgs3msg7String_ISaIvEEES5_EESaIS7_ELN9__gnu_cxx12_Lock_policyE2EED0Ev
FNDA:0,_ZNSt23_Sp_counted_ptr_inplaceIN6rclcpp9PublisherIN8std_msgs3msg7String_ISaIvEEES5_EESaIS7_ELN9__gnu_cxx12_Lock_policyE2EED0Ev
FN:552,_ZNSt23_Sp_counted_ptr_inplaceIN6rclcpp15QOSEventHandlerISt8functionIFvR28rmw_liveliness_lost_status_tEESt10shared_ptrI15rcl_publisher_tEEESaISA_ELN9__gnu_cxx12_Lock_policyE2EED2Ev
FNDA:0,_ZNSt23_Sp_counted_ptr_inplaceIN6rclcpp15QOSEventHandlerISt8functionIFvR28rmw_liveliness_lost_status_tEESt10shared_ptrI15rcl_publisher_tEEESaISA_ELN9__gnu_cxx12_Lock_policyE2EED2Ev
FN:552,_ZNSt23_Sp_counted_ptr_inplaceIN6rclcpp15QOSEventHandlerISt8functionIFvR28rmw_liveliness_lost_status_tEESt10shared_ptrI15rcl_publisher_tEEESaISA_ELN9__gnu_cxx12_Lock_policyE2EED0Ev
FNDA:0,_ZNSt23_Sp_counted_ptr_inplaceIN6rclcpp15QOSEventHandlerISt8functionIFvR28rmw_liveliness_lost_status_tEESt10shared_ptrI15rcl_publisher_tEEESaISA_ELN9__gnu_cxx12_Lock_policyE2EED0Ev
FN:552,_ZNSt23_Sp_counted_ptr_inplaceIN6rclcpp15QOSEventHandlerISt8functionIFvR35rmw_qos_incompatible_event_status_tEESt10shared_ptrI15rcl_publisher_tEEESaISA_ELN9__gnu_cxx12_Lock_policyE2EED0Ev
FNDA:0,_ZNSt23_Sp_counted_ptr_inplaceIN6rclcpp15QOSEventHandlerISt8functionIFvR35rmw_qos_incompatible_event_status_tEESt10shared_ptrI15rcl_publisher_tEEESaISA_ELN9__gnu_cxx12_Lock_policyE2EED0Ev
FN:552,_ZNSt23_Sp_counted_ptr_inplaceIN6rclcpp15QOSEventHandlerISt8functionIFvR35rmw_qos_incompatible_event_status_tEESt10shared_ptrI15rcl_publisher_tEEESaISA_ELN9__gnu_cxx12_Lock_policyE2EED2Ev
FNDA:0,_ZNSt23_Sp_counted_ptr_inplaceIN6rclcpp15QOSEventHandlerISt8functionIFvR35rmw_qos_incompatible_event_status_tEESt10shared_ptrI15rcl_publisher_tEEESaISA_ELN9__gnu_cxx12_Lock_policyE2EED2Ev
FN:552,_ZNSt23_Sp_counted_ptr_inplaceIN6rclcpp4NodeESaIS1_ELN9__gnu_cxx12_Lock_policyE2EED0Ev
FNDA:0,_ZNSt23_Sp_counted_ptr_inplaceIN6rclcpp4NodeESaIS1_ELN9__gnu_cxx12_Lock_policyE2EED0Ev
FN:552,_ZNSt23_Sp_counted_ptr_inplaceIN6rclcpp15QOSEventHandlerISt8functionIFvR36rmw_offered_deadline_missed_status_tEESt10shared_ptrI15rcl_publisher_tEEESaISA_ELN9__gnu_cxx12_Lock_policyE2EED2Ev
FNDA:0,_ZNSt23_Sp_counted_ptr_inplaceIN6rclcpp15QOSEventHandlerISt8functionIFvR36rmw_offered_deadline_missed_status_tEESt10shared_ptrI15rcl_publisher_tEEESaISA_ELN9__gnu_cxx12_Lock_policyE2EED2Ev
FN:552,_ZNSt23_Sp_counted_ptr_inplaceIN6rclcpp15QOSEventHandlerISt8functionIFvR36rmw_offered_deadline_missed_status_tEESt10shared_ptrI15rcl_publisher_tEEESaISA_ELN9__gnu_cxx12_Lock_policyE2EED0Ev
FNDA:0,_ZNSt23_Sp_counted_ptr_inplaceIN6rclcpp15QOSEventHandlerISt8functionIFvR36rmw_offered_deadline_missed_status_tEESt10shared_ptrI15rcl_publisher_tEEESaISA_ELN9__gnu_cxx12_Lock_policyE2EED0Ev
FN:552,_ZNSt23_Sp_counted_ptr_inplaceIN6rclcpp15QOSEventHandlerIZNS0_9PublisherIN8std_msgs3msg7String_ISaIvEEES6_EC4EPNS0_15node_interfaces17NodeBaseInterfaceERKNSt7__cxx1112basic_stringIcSt11char_traitsIcESaIcEEERKNS0_3QoSERKNS0_29PublisherOptionsWithAllocatorIS6_EEEUlR35rmw_qos_incompatible_event_status_tE_St10shared_ptrI15rcl_publisher_tEEESaISX_ELN9__gnu_cxx12_Lock_policyE2EED0Ev
FNDA:0,_ZNSt23_Sp_counted_ptr_inplaceIN6rclcpp15QOSEventHandlerIZNS0_9PublisherIN8std_msgs3msg7String_ISaIvEEES6_EC4EPNS0_15node_interfaces17NodeBaseInterfaceERKNSt7__cxx1112basic_stringIcSt11char_traitsIcESaIcEEERKNS0_3QoSERKNS0_29PublisherOptionsWithAllocatorIS6_EEEUlR35rmw_qos_incompatible_event_status_tE_St10shared_ptrI15rcl_publisher_tEEESaISX_ELN9__gnu_cxx12_Lock_policyE2EED0Ev
FN:552,_ZNSt23_Sp_counted_ptr_inplaceIN6rclcpp15QOSEventHandlerIZNS0_9PublisherIN8std_msgs3msg7String_ISaIvEEES6_EC4EPNS0_15node_interfaces17NodeBaseInterfaceERKNSt7__cxx1112basic_stringIcSt11char_traitsIcESaIcEEERKNS0_3QoSERKNS0_29PublisherOptionsWithAllocatorIS6_EEEUlR35rmw_qos_incompatible_event_status_tE_St10shared_ptrI15rcl_publisher_tEEESaISX_ELN9__gnu_cxx12_Lock_policyE2EED2Ev
FNDA:0,_ZNSt23_Sp_counted_ptr_inplaceIN6rclcpp15QOSEventHandlerIZNS0_9PublisherIN8std_msgs3msg7String_ISaIvEEES6_EC4EPNS0_15node_interfaces17NodeBaseInterfaceERKNSt7__cxx1112basic_stringIcSt11char_traitsIcESaIcEEERKNS0_3QoSERKNS0_29PublisherOptionsWithAllocatorIS6_EEEUlR35rmw_qos_incompatible_event_status_tE_St10shared_ptrI15rcl_publisher_tEEESaISX_ELN9__gnu_cxx12_Lock_policyE2EED2Ev
FN:552,_ZNSt23_Sp_counted_ptr_inplaceISaIvESaIS0_ELN9__gnu_cxx12_Lock_policyE2EED2Ev
FNDA:28,_ZNSt23_Sp_counted_ptr_inplaceISaIvESaIS0_ELN9__gnu_cxx12_Lock_policyE2EED2Ev
FN:552,_ZNSt23_Sp_counted_ptr_inplaceISaIvESaIS0_ELN9__gnu_cxx12_Lock_policyE2EED0Ev
FNDA:0,_ZNSt23_Sp_counted_ptr_inplaceISaIvESaIS0_ELN9__gnu_cxx12_Lock_policyE2EED0Ev
FN:552,_ZNSt23_Sp_counted_ptr_inplaceIN6rclcpp4NodeESaIS1_ELN9__gnu_cxx12_Lock_policyE2EED2Ev
FNDA:4,_ZNSt23_Sp_counted_ptr_inplaceIN6rclcpp4NodeESaIS1_ELN9__gnu_cxx12_Lock_policyE2EED2Ev
FN:552,_ZNSt23_Sp_counted_ptr_inplaceIN8std_msgs3msg7String_ISaIvEEESaIS4_ELN9__gnu_cxx12_Lock_policyE2EED0Ev
FNDA:0,_ZNSt23_Sp_counted_ptr_inplaceIN8std_msgs3msg7String_ISaIvEEESaIS4_ELN9__gnu_cxx12_Lock_policyE2EED0Ev
FN:552,_ZNSt23_Sp_counted_ptr_inplaceISaIN8std_msgs3msg7String_ISaIvEEEESaIS5_ELN9__gnu_cxx12_Lock_policyE2EED2Ev
FNDA:2,_ZNSt23_Sp_counted_ptr_inplaceISaIN8std_msgs3msg7String_ISaIvEEEESaIS5_ELN9__gnu_cxx12_Lock_policyE2EED2Ev
FN:552,_ZNSt23_Sp_counted_ptr_inplaceISaIN8std_msgs3msg7String_ISaIvEEEESaIS5_ELN9__gnu_cxx12_Lock_policyE2EED0Ev
FNDA:0,_ZNSt23_Sp_counted_ptr_inplaceISaIN8std_msgs3msg7String_ISaIvEEEESaIS5_ELN9__gnu_cxx12_Lock_policyE2EED0Ev
FN:552,_ZNSt23_Sp_counted_ptr_inplaceIN6rclcpp9PublisherIN8std_msgs3msg7String_ISaIvEEES5_EESaIS7_ELN9__gnu_cxx12_Lock_policyE2EED2Ev
FNDA:2,_ZNSt23_Sp_counted_ptr_inplaceIN6rclcpp9PublisherIN8std_msgs3msg7String_ISaIvEEES5_EESaIS7_ELN9__gnu_cxx12_Lock_policyE2EED2Ev
FN:552,_ZNSt23_Sp_counted_ptr_inplaceIN8std_msgs3msg7String_ISaIvEEESaIS4_ELN9__gnu_cxx12_Lock_policyE2EED2Ev
FNDA:0,_ZNSt23_Sp_counted_ptr_inplaceIN8std_msgs3msg7String_ISaIvEEESaIS4_ELN9__gnu_cxx12_Lock_policyE2EED2Ev
FN:555,_ZNSt23_Sp_counted_ptr_inplaceIN8std_msgs3msg7String_ISaIvEEESaIS4_ELN9__gnu_cxx12_Lock_policyE2EE10_M_disposeEv
FNDA:0,_ZNSt23_Sp_counted_ptr_inplaceIN8std_msgs3msg7String_ISaIvEEESaIS4_ELN9__gnu_cxx12_Lock_policyE2EE10_M_disposeEv
FN:555,_ZNSt23_Sp_counted_ptr_inplaceIN6rclcpp15QOSEventHandlerIZNS0_9PublisherIN8std_msgs3msg7String_ISaIvEEES6_EC4EPNS0_15node_interfaces17NodeBaseInterfaceERKNSt7__cxx1112basic_stringIcSt11char_traitsIcESaIcEEERKNS0_3QoSERKNS0_29PublisherOptionsWithAllocatorIS6_EEEUlR35rmw_qos_incompatible_event_status_tE_St10shared_ptrI15rcl_publisher_tEEESaISX_ELN9__gnu_cxx12_Lock_policyE2EE10_M_disposeEv
FNDA:0,_ZNSt23_Sp_counted_ptr_inplaceIN6rclcpp15QOSEventHandlerIZNS0_9PublisherIN8std_msgs3msg7String_ISaIvEEES6_EC4EPNS0_15node_interfaces17NodeBaseInterfaceERKNSt7__cxx1112basic_stringIcSt11char_traitsIcESaIcEEERKNS0_3QoSERKNS0_29PublisherOptionsWithAllocatorIS6_EEEUlR35rmw_qos_incompatible_event_status_tE_St10shared_ptrI15rcl_publisher_tEEESaISX_ELN9__gnu_cxx12_Lock_policyE2EE10_M_disposeEv
FN:555,_ZNSt23_Sp_counted_ptr_inplaceIN6rclcpp9PublisherIN8std_msgs3msg7String_ISaIvEEES5_EESaIS7_ELN9__gnu_cxx12_Lock_policyE2EE10_M_disposeEv
FNDA:2,_ZNSt23_Sp_counted_ptr_inplaceIN6rclcpp9PublisherIN8std_msgs3msg7String_ISaIvEEES5_EESaIS7_ELN9__gnu_cxx12_Lock_policyE2EE10_M_disposeEv
FN:555,_ZNSt23_Sp_counted_ptr_inplaceIN6rclcpp15QOSEventHandlerISt8functionIFvR28rmw_liveliness_lost_status_tEESt10shared_ptrI15rcl_publisher_tEEESaISA_ELN9__gnu_cxx12_Lock_policyE2EE10_M_disposeEv
FNDA:0,_ZNSt23_Sp_counted_ptr_inplaceIN6rclcpp15QOSEventHandlerISt8functionIFvR28rmw_liveliness_lost_status_tEESt10shared_ptrI15rcl_publisher_tEEESaISA_ELN9__gnu_cxx12_Lock_policyE2EE10_M_disposeEv
FN:555,_ZNSt23_Sp_counted_ptr_inplaceIN6rclcpp15QOSEventHandlerISt8functionIFvR35rmw_qos_incompatible_event_status_tEESt10shared_ptrI15rcl_publisher_tEEESaISA_ELN9__gnu_cxx12_Lock_policyE2EE10_M_disposeEv
FNDA:0,_ZNSt23_Sp_counted_ptr_inplaceIN6rclcpp15QOSEventHandlerISt8functionIFvR35rmw_qos_incompatible_event_status_tEESt10shared_ptrI15rcl_publisher_tEEESaISA_ELN9__gnu_cxx12_Lock_policyE2EE10_M_disposeEv
FN:555,_ZNSt23_Sp_counted_ptr_inplaceIN6rclcpp4NodeESaIS1_ELN9__gnu_cxx12_Lock_policyE2EE10_M_disposeEv
FNDA:4,_ZNSt23_Sp_counted_ptr_inplaceIN6rclcpp4NodeESaIS1_ELN9__gnu_cxx12_Lock_policyE2EE10_M_disposeEv
FN:555,_ZNSt23_Sp_counted_ptr_inplaceIN6rclcpp15QOSEventHandlerISt8functionIFvR36rmw_offered_deadline_missed_status_tEESt10shared_ptrI15rcl_publisher_tEEESaISA_ELN9__gnu_cxx12_Lock_policyE2EE10_M_disposeEv
FNDA:0,_ZNSt23_Sp_counted_ptr_inplaceIN6rclcpp15QOSEventHandlerISt8functionIFvR36rmw_offered_deadline_missed_status_tEESt10shared_ptrI15rcl_publisher_tEEESaISA_ELN9__gnu_cxx12_Lock_policyE2EE10_M_disposeEv
FN:555,_ZNSt23_Sp_counted_ptr_inplaceISaIvESaIS0_ELN9__gnu_cxx12_Lock_policyE2EE10_M_disposeEv
FNDA:28,_ZNSt23_Sp_counted_ptr_inplaceISaIvESaIS0_ELN9__gnu_cxx12_Lock_policyE2EE10_M_disposeEv
FN:555,_ZNSt23_Sp_counted_ptr_inplaceISaIN8std_msgs3msg7String_ISaIvEEEESaIS5_ELN9__gnu_cxx12_Lock_policyE2EE10_M_disposeEv
FNDA:2,_ZNSt23_Sp_counted_ptr_inplaceISaIN8std_msgs3msg7String_ISaIvEEEESaIS5_ELN9__gnu_cxx12_Lock_policyE2EE10_M_disposeEv
FN:562,_ZNSt23_Sp_counted_ptr_inplaceIN6rclcpp15QOSEventHandlerISt8functionIFvR35rmw_qos_incompatible_event_status_tEESt10shared_ptrI15rcl_publisher_tEEESaISA_ELN9__gnu_cxx12_Lock_policyE2EE10_M_destroyEv
FNDA:0,_ZNSt23_Sp_counted_ptr_inplaceIN6rclcpp15QOSEventHandlerISt8functionIFvR35rmw_qos_incompatible_event_status_tEESt10shared_ptrI15rcl_publisher_tEEESaISA_ELN9__gnu_cxx12_Lock_policyE2EE10_M_destroyEv
FN:562,_ZNSt23_Sp_counted_ptr_inplaceIN6rclcpp15QOSEventHandlerISt8functionIFvR28rmw_liveliness_lost_status_tEESt10shared_ptrI15rcl_publisher_tEEESaISA_ELN9__gnu_cxx12_Lock_policyE2EE10_M_destroyEv
FNDA:0,_ZNSt23_Sp_counted_ptr_inplaceIN6rclcpp15QOSEventHandlerISt8functionIFvR28rmw_liveliness_lost_status_tEESt10shared_ptrI15rcl_publisher_tEEESaISA_ELN9__gnu_cxx12_Lock_policyE2EE10_M_destroyEv
FN:562,_ZNSt23_Sp_counted_ptr_inplaceIN6rclcpp4NodeESaIS1_ELN9__gnu_cxx12_Lock_policyE2EE10_M_destroyEv
FNDA:4,_ZNSt23_Sp_counted_ptr_inplaceIN6rclcpp4NodeESaIS1_ELN9__gnu_cxx12_Lock_policyE2EE10_M_destroyEv
FN:562,_ZNSt23_Sp_counted_ptr_inplaceIN6rclcpp15QOSEventHandlerIZNS0_9PublisherIN8std_msgs3msg7String_ISaIvEEES6_EC4EPNS0_15node_interfaces17NodeBaseInterfaceERKNSt7__cxx1112basic_stringIcSt11char_traitsIcESaIcEEERKNS0_3QoSERKNS0_29PublisherOptionsWithAllocatorIS6_EEEUlR35rmw_qos_incompatible_event_status_tE_St10shared_ptrI15rcl_publisher_tEEESaISX_ELN9__gnu_cxx12_Lock_policyE2EE10_M_destroyEv
FNDA:0,_ZNSt23_Sp_counted_ptr_inplaceIN6rclcpp15QOSEventHandlerIZNS0_9PublisherIN8std_msgs3msg7String_ISaIvEEES6_EC4EPNS0_15node_interfaces17NodeBaseInterfaceERKNSt7__cxx1112basic_stringIcSt11char_traitsIcESaIcEEERKNS0_3QoSERKNS0_29PublisherOptionsWithAllocatorIS6_EEEUlR35rmw_qos_incompatible_event_status_tE_St10shared_ptrI15rcl_publisher_tEEESaISX_ELN9__gnu_cxx12_Lock_policyE2EE10_M_destroyEv
FN:562,_ZNSt23_Sp_counted_ptr_inplaceIN6rclcpp15QOSEventHandlerISt8functionIFvR36rmw_offered_deadline_missed_status_tEESt10shared_ptrI15rcl_publisher_tEEESaISA_ELN9__gnu_cxx12_Lock_policyE2EE10_M_destroyEv
FNDA:0,_ZNSt23_Sp_counted_ptr_inplaceIN6rclcpp15QOSEventHandlerISt8functionIFvR36rmw_offered_deadline_missed_status_tEESt10shared_ptrI15rcl_publisher_tEEESaISA_ELN9__gnu_cxx12_Lock_policyE2EE10_M_destroyEv
FN:562,_ZNSt23_Sp_counted_ptr_inplaceISaIvESaIS0_ELN9__gnu_cxx12_Lock_policyE2EE10_M_destroyEv
FNDA:28,_ZNSt23_Sp_counted_ptr_inplaceISaIvESaIS0_ELN9__gnu_cxx12_Lock_policyE2EE10_M_destroyEv
FN:562,_ZNSt23_Sp_counted_ptr_inplaceIN6rclcpp9PublisherIN8std_msgs3msg7String_ISaIvEEES5_EESaIS7_ELN9__gnu_cxx12_Lock_policyE2EE10_M_destroyEv
FNDA:2,_ZNSt23_Sp_counted_ptr_inplaceIN6rclcpp9PublisherIN8std_msgs3msg7String_ISaIvEEES5_EESaIS7_ELN9__gnu_cxx12_Lock_policyE2EE10_M_destroyEv
FN:562,_ZNSt23_Sp_counted_ptr_inplaceISaIN8std_msgs3msg7String_ISaIvEEEESaIS5_ELN9__gnu_cxx12_Lock_policyE2EE10_M_destroyEv
FNDA:2,_ZNSt23_Sp_counted_ptr_inplaceISaIN8std_msgs3msg7String_ISaIvEEEESaIS5_ELN9__gnu_cxx12_Lock_policyE2EE10_M_destroyEv
FN:562,_ZNSt23_Sp_counted_ptr_inplaceIN8std_msgs3msg7String_ISaIvEEESaIS4_ELN9__gnu_cxx12_Lock_policyE2EE10_M_destroyEv
FNDA:0,_ZNSt23_Sp_counted_ptr_inplaceIN8std_msgs3msg7String_ISaIvEEESaIS4_ELN9__gnu_cxx12_Lock_policyE2EE10_M_destroyEv
FN:575,_ZNSt23_Sp_counted_ptr_inplaceIN8std_msgs3msg7String_ISaIvEEESaIS4_ELN9__gnu_cxx12_Lock_policyE2EE14_M_get_deleterERKSt9type_info
FNDA:0,_ZNSt23_Sp_counted_ptr_inplaceIN8std_msgs3msg7String_ISaIvEEESaIS4_ELN9__gnu_cxx12_Lock_policyE2EE14_M_get_deleterERKSt9type_info
FN:575,_ZNSt23_Sp_counted_ptr_inplaceIN6rclcpp4NodeESaIS1_ELN9__gnu_cxx12_Lock_policyE2EE14_M_get_deleterERKSt9type_info
FNDA:0,_ZNSt23_Sp_counted_ptr_inplaceIN6rclcpp4NodeESaIS1_ELN9__gnu_cxx12_Lock_policyE2EE14_M_get_deleterERKSt9type_info
FN:575,_ZNSt23_Sp_counted_ptr_inplaceIN6rclcpp9PublisherIN8std_msgs3msg7String_ISaIvEEES5_EESaIS7_ELN9__gnu_cxx12_Lock_policyE2EE14_M_get_deleterERKSt9type_info
FNDA:0,_ZNSt23_Sp_counted_ptr_inplaceIN6rclcpp9PublisherIN8std_msgs3msg7String_ISaIvEEES5_EESaIS7_ELN9__gnu_cxx12_Lock_policyE2EE14_M_get_deleterERKSt9type_info
FN:575,_ZNSt23_Sp_counted_ptr_inplaceISaIN8std_msgs3msg7String_ISaIvEEEESaIS5_ELN9__gnu_cxx12_Lock_policyE2EE14_M_get_deleterERKSt9type_info
FNDA:0,_ZNSt23_Sp_counted_ptr_inplaceISaIN8std_msgs3msg7String_ISaIvEEEESaIS5_ELN9__gnu_cxx12_Lock_policyE2EE14_M_get_deleterERKSt9type_info
FN:575,_ZNSt23_Sp_counted_ptr_inplaceISaIvESaIS0_ELN9__gnu_cxx12_Lock_policyE2EE14_M_get_deleterERKSt9type_info
FNDA:0,_ZNSt23_Sp_counted_ptr_inplaceISaIvESaIS0_ELN9__gnu_cxx12_Lock_policyE2EE14_M_get_deleterERKSt9type_info
FN:575,_ZNSt23_Sp_counted_ptr_inplaceIN6rclcpp15QOSEventHandlerISt8functionIFvR36rmw_offered_deadline_missed_status_tEESt10shared_ptrI15rcl_publisher_tEEESaISA_ELN9__gnu_cxx12_Lock_policyE2EE14_M_get_deleterERKSt9type_info
FNDA:0,_ZNSt23_Sp_counted_ptr_inplaceIN6rclcpp15QOSEventHandlerISt8functionIFvR36rmw_offered_deadline_missed_status_tEESt10shared_ptrI15rcl_publisher_tEEESaISA_ELN9__gnu_cxx12_Lock_policyE2EE14_M_get_deleterERKSt9type_info
FN:575,_ZNSt23_Sp_counted_ptr_inplaceIN6rclcpp15QOSEventHandlerISt8functionIFvR28rmw_liveliness_lost_status_tEESt10shared_ptrI15rcl_publisher_tEEESaISA_ELN9__gnu_cxx12_Lock_policyE2EE14_M_get_deleterERKSt9type_info
FNDA:0,_ZNSt23_Sp_counted_ptr_inplaceIN6rclcpp15QOSEventHandlerISt8functionIFvR28rmw_liveliness_lost_status_tEESt10shared_ptrI15rcl_publisher_tEEESaISA_ELN9__gnu_cxx12_Lock_policyE2EE14_M_get_deleterERKSt9type_info
FN:575,_ZNSt23_Sp_counted_ptr_inplaceIN6rclcpp15QOSEventHandlerISt8functionIFvR35rmw_qos_incompatible_event_status_tEESt10shared_ptrI15rcl_publisher_tEEESaISA_ELN9__gnu_cxx12_Lock_policyE2EE14_M_get_deleterERKSt9type_info
FNDA:0,_ZNSt23_Sp_counted_ptr_inplaceIN6rclcpp15QOSEventHandlerISt8functionIFvR35rmw_qos_incompatible_event_status_tEESt10shared_ptrI15rcl_publisher_tEEESaISA_ELN9__gnu_cxx12_Lock_policyE2EE14_M_get_deleterERKSt9type_info
FN:575,_ZNSt23_Sp_counted_ptr_inplaceIN6rclcpp15QOSEventHandlerIZNS0_9PublisherIN8std_msgs3msg7String_ISaIvEEES6_EC4EPNS0_15node_interfaces17NodeBaseInterfaceERKNSt7__cxx1112basic_stringIcSt11char_traitsIcESaIcEEERKNS0_3QoSERKNS0_29PublisherOptionsWithAllocatorIS6_EEEUlR35rmw_qos_incompatible_event_status_tE_St10shared_ptrI15rcl_publisher_tEEESaISX_ELN9__gnu_cxx12_Lock_policyE2EE14_M_get_deleterERKSt9type_info
FNDA:0,_ZNSt23_Sp_counted_ptr_inplaceIN6rclcpp15QOSEventHandlerIZNS0_9PublisherIN8std_msgs3msg7String_ISaIvEEES6_EC4EPNS0_15node_interfaces17NodeBaseInterfaceERKNSt7__cxx1112basic_stringIcSt11char_traitsIcESaIcEEERKNS0_3QoSERKNS0_29PublisherOptionsWithAllocatorIS6_EEEUlR35rmw_qos_incompatible_event_status_tE_St10shared_ptrI15rcl_publisher_tEEESaISX_ELN9__gnu_cxx12_Lock_policyE2EE14_M_get_deleterERKSt9type_info
FN:594,_ZNSt23_Sp_counted_ptr_inplaceIN6rclcpp9PublisherIN8std_msgs3msg7String_ISaIvEEES5_EESaIS7_ELN9__gnu_cxx12_Lock_policyE2EE6_M_ptrEv
FNDA:6,_ZNSt23_Sp_counted_ptr_inplaceIN6rclcpp9PublisherIN8std_msgs3msg7String_ISaIvEEES5_EESaIS7_ELN9__gnu_cxx12_Lock_policyE2EE6_M_ptrEv
FN:594,_ZNSt23_Sp_counted_ptr_inplaceISaIvESaIS0_ELN9__gnu_cxx12_Lock_policyE2EE6_M_ptrEv
FNDA:44,_ZNSt23_Sp_counted_ptr_inplaceISaIvESaIS0_ELN9__gnu_cxx12_Lock_policyE2EE6_M_ptrEv
FN:594,_ZNSt23_Sp_counted_ptr_inplaceIN6rclcpp4NodeESaIS1_ELN9__gnu_cxx12_Lock_policyE2EE6_M_ptrEv
FNDA:12,_ZNSt23_Sp_counted_ptr_inplaceIN6rclcpp4NodeESaIS1_ELN9__gnu_cxx12_Lock_policyE2EE6_M_ptrEv
FN:594,_ZNSt23_Sp_counted_ptr_inplaceIN8std_msgs3msg7String_ISaIvEEESaIS4_ELN9__gnu_cxx12_Lock_policyE2EE6_M_ptrEv
FNDA:0,_ZNSt23_Sp_counted_ptr_inplaceIN8std_msgs3msg7String_ISaIvEEESaIS4_ELN9__gnu_cxx12_Lock_policyE2EE6_M_ptrEv
FN:594,_ZNSt23_Sp_counted_ptr_inplaceISaIN8std_msgs3msg7String_ISaIvEEEESaIS5_ELN9__gnu_cxx12_Lock_policyE2EE6_M_ptrEv
FNDA:6,_ZNSt23_Sp_counted_ptr_inplaceISaIN8std_msgs3msg7String_ISaIvEEEESaIS5_ELN9__gnu_cxx12_Lock_policyE2EE6_M_ptrEv
FN:594,_ZNSt23_Sp_counted_ptr_inplaceIN6rclcpp15QOSEventHandlerIZNS0_9PublisherIN8std_msgs3msg7String_ISaIvEEES6_EC4EPNS0_15node_interfaces17NodeBaseInterfaceERKNSt7__cxx1112basic_stringIcSt11char_traitsIcESaIcEEERKNS0_3QoSERKNS0_29PublisherOptionsWithAllocatorIS6_EEEUlR35rmw_qos_incompatible_event_status_tE_St10shared_ptrI15rcl_publisher_tEEESaISX_ELN9__gnu_cxx12_Lock_policyE2EE6_M_ptrEv
FNDA:2,_ZNSt23_Sp_counted_ptr_inplaceIN6rclcpp15QOSEventHandlerIZNS0_9PublisherIN8std_msgs3msg7String_ISaIvEEES6_EC4EPNS0_15node_interfaces17NodeBaseInterfaceERKNSt7__cxx1112basic_stringIcSt11char_traitsIcESaIcEEERKNS0_3QoSERKNS0_29PublisherOptionsWithAllocatorIS6_EEEUlR35rmw_qos_incompatible_event_status_tE_St10shared_ptrI15rcl_publisher_tEEESaISX_ELN9__gnu_cxx12_Lock_policyE2EE6_M_ptrEv
FN:594,_ZNSt23_Sp_counted_ptr_inplaceIN6rclcpp15QOSEventHandlerISt8functionIFvR35rmw_qos_incompatible_event_status_tEESt10shared_ptrI15rcl_publisher_tEEESaISA_ELN9__gnu_cxx12_Lock_policyE2EE6_M_ptrEv
FNDA:0,_ZNSt23_Sp_counted_ptr_inplaceIN6rclcpp15QOSEventHandlerISt8functionIFvR35rmw_qos_incompatible_event_status_tEESt10shared_ptrI15rcl_publisher_tEEESaISA_ELN9__gnu_cxx12_Lock_policyE2EE6_M_ptrEv
FN:594,_ZNSt23_Sp_counted_ptr_inplaceIN6rclcpp15QOSEventHandlerISt8functionIFvR28rmw_liveliness_lost_status_tEESt10shared_ptrI15rcl_publisher_tEEESaISA_ELN9__gnu_cxx12_Lock_policyE2EE6_M_ptrEv
FNDA:0,_ZNSt23_Sp_counted_ptr_inplaceIN6rclcpp15QOSEventHandlerISt8functionIFvR28rmw_liveliness_lost_status_tEESt10shared_ptrI15rcl_publisher_tEEESaISA_ELN9__gnu_cxx12_Lock_policyE2EE6_M_ptrEv
FN:594,_ZNSt23_Sp_counted_ptr_inplaceIN6rclcpp15QOSEventHandlerISt8functionIFvR36rmw_offered_deadline_missed_status_tEESt10shared_ptrI15rcl_publisher_tEEESaISA_ELN9__gnu_cxx12_Lock_policyE2EE6_M_ptrEv
FNDA:0,_ZNSt23_Sp_counted_ptr_inplaceIN6rclcpp15QOSEventHandlerISt8functionIFvR36rmw_offered_deadline_missed_status_tEESt10shared_ptrI15rcl_publisher_tEEESaISA_ELN9__gnu_cxx12_Lock_policyE2EE6_M_ptrEv
FN:616,_ZNSt14__shared_countILN9__gnu_cxx12_Lock_policyE2EEC2Ev
FNDA:0,_ZNSt14__shared_countILN9__gnu_cxx12_Lock_policyE2EEC2Ev
FN:621,_ZNSt14__shared_countILN9__gnu_cxx12_Lock_policyE2EEC2IPSaIN8std_msgs3msg7String_ISaIvEEEEEET_
FNDA:2,_ZNSt14__shared_countILN9__gnu_cxx12_Lock_policyE2EEC2IPSaIN8std_msgs3msg7String_ISaIvEEEEEET_
FN:635,_ZNSt14__shared_countILN9__gnu_cxx12_Lock_policyE2EEC2IPSaIN8std_msgs3msg7String_ISaIvEEEEEET_St17integral_constantIbLb0EE
FNDA:2,_ZNSt14__shared_countILN9__gnu_cxx12_Lock_policyE2EEC2IPSaIN8std_msgs3msg7String_ISaIvEEEEEET_St17integral_constantIbLb0EE
FN:646,_ZNSt14__shared_countILN9__gnu_cxx12_Lock_policyE2EEC2IPN6rclcpp12experimental19IntraProcessManagerEZNS4_7Context15get_sub_contextIS6_JEEESt10shared_ptrIT_EDpOT0_EUlS7_E_vEESB_T0_
FNDA:0,_ZNSt14__shared_countILN9__gnu_cxx12_Lock_policyE2EEC2IPN6rclcpp12experimental19IntraProcessManagerEZNS4_7Context15get_sub_contextIS6_JEEESt10shared_ptrIT_EDpOT0_EUlS7_E_vEESB_T0_
FN:652,_ZNSt14__shared_countILN9__gnu_cxx12_Lock_policyE2EEC2IPN6rclcpp12experimental19IntraProcessManagerEZNS4_7Context15get_sub_contextIS6_JEEESt10shared_ptrIT_EDpOT0_EUlS7_E_SaIvEvEESB_T0_T1_
FNDA:0,_ZNSt14__shared_countILN9__gnu_cxx12_Lock_policyE2EEC2IPN6rclcpp12experimental19IntraProcessManagerEZNS4_7Context15get_sub_contextIS6_JEEESt10shared_ptrIT_EDpOT0_EUlS7_E_SaIvEvEESB_T0_T1_
FN:672,_ZNSt14__shared_countILN9__gnu_cxx12_Lock_policyE2EEC2IN6rclcpp4NodeESaIS5_EJRA18_KcEEERPT_St20_Sp_alloc_shared_tagIT0_EDpOT1_
FNDA:1,_ZNSt14__shared_countILN9__gnu_cxx12_Lock_policyE2EEC2IN6rclcpp4NodeESaIS5_EJRA18_KcEEERPT_St20_Sp_alloc_shared_tagIT0_EDpOT1_
FN:672,_ZNSt14__shared_countILN9__gnu_cxx12_Lock_policyE2EEC2IN6rclcpp15QOSEventHandlerISt8functionIFvR36rmw_offered_deadline_missed_status_tEESt10shared_ptrI15rcl_publisher_tEEESaISE_EJRKSA_RFiP11rcl_event_tPKSC_26rcl_publisher_event_type_tERSD_RKSM_EEERPT_St20_Sp_alloc_shared_tagIT0_EDpOT1_
FNDA:0,_ZNSt14__shared_countILN9__gnu_cxx12_Lock_policyE2EEC2IN6rclcpp15QOSEventHandlerISt8functionIFvR36rmw_offered_deadline_missed_status_tEESt10shared_ptrI15rcl_publisher_tEEESaISE_EJRKSA_RFiP11rcl_event_tPKSC_26rcl_publisher_event_type_tERSD_RKSM_EEERPT_St20_Sp_alloc_shared_tagIT0_EDpOT1_
FN:672,_ZNSt14__shared_countILN9__gnu_cxx12_Lock_policyE2EEC2ISaIvESaIS4_EJEEERPT_St20_Sp_alloc_shared_tagIT0_EDpOT1_
FNDA:8,_ZNSt14__shared_countILN9__gnu_cxx12_Lock_policyE2EEC2ISaIvESaIS4_EJEEERPT_St20_Sp_alloc_shared_tagIT0_EDpOT1_
FN:672,_ZNSt14__shared_countILN9__gnu_cxx12_Lock_policyE2EEC2ISaIN8std_msgs3msg7String_ISaIvEEEESaIS9_EJRS7_EEERPT_St20_Sp_alloc_shared_tagIT0_EDpOT1_
FNDA:2,_ZNSt14__shared_countILN9__gnu_cxx12_Lock_policyE2EEC2ISaIN8std_msgs3msg7String_ISaIvEEEESaIS9_EJRS7_EEERPT_St20_Sp_alloc_shared_tagIT0_EDpOT1_
FN:672,_ZNSt14__shared_countILN9__gnu_cxx12_Lock_policyE2EEC2IN6rclcpp15QOSEventHandlerISt8functionIFvR28rmw_liveliness_lost_status_tEESt10shared_ptrI15rcl_publisher_tEEESaISE_EJRKSA_RFiP11rcl_event_tPKSC_26rcl_publisher_event_type_tERSD_RKSM_EEERPT_St20_Sp_alloc_shared_tagIT0_EDpOT1_
FNDA:0,_ZNSt14__shared_countILN9__gnu_cxx12_Lock_policyE2EEC2IN6rclcpp15QOSEventHandlerISt8functionIFvR28rmw_liveliness_lost_status_tEESt10shared_ptrI15rcl_publisher_tEEESaISE_EJRKSA_RFiP11rcl_event_tPKSC_26rcl_publisher_event_type_tERSD_RKSM_EEERPT_St20_Sp_alloc_shared_tagIT0_EDpOT1_
FN:672,_ZNSt14__shared_countILN9__gnu_cxx12_Lock_policyE2EEC2IN6rclcpp9PublisherIN8std_msgs3msg7String_ISaIvEEES9_EESaISB_EJRPNS4_15node_interfaces17NodeBaseInterfaceERKNSt7__cxx1112basic_stringIcSt11char_traitsIcESaIcEEERKNS4_3QoSERKNS4_29PublisherOptionsWithAllocatorIS9_EEEEERPT_St20_Sp_alloc_shared_tagIT0_EDpOT1_
FNDA:2,_ZNSt14__shared_countILN9__gnu_cxx12_Lock_policyE2EEC2IN6rclcpp9PublisherIN8std_msgs3msg7String_ISaIvEEES9_EESaISB_EJRPNS4_15node_interfaces17NodeBaseInterfaceERKNSt7__cxx1112basic_stringIcSt11char_traitsIcESaIcEEERKNS4_3QoSERKNS4_29PublisherOptionsWithAllocatorIS9_EEEEERPT_St20_Sp_alloc_shared_tagIT0_EDpOT1_
FN:672,_ZNSt14__shared_countILN9__gnu_cxx12_Lock_policyE2EEC2IN6rclcpp15QOSEventHandlerISt8functionIFvR35rmw_qos_incompatible_event_status_tEESt10shared_ptrI15rcl_publisher_tEEESaISE_EJRKSA_RFiP11rcl_event_tPKSC_26rcl_publisher_event_type_tERSD_RKSM_EEERPT_St20_Sp_alloc_shared_tagIT0_EDpOT1_
FNDA:0,_ZNSt14__shared_countILN9__gnu_cxx12_Lock_policyE2EEC2IN6rclcpp15QOSEventHandlerISt8functionIFvR35rmw_qos_incompatible_event_status_tEESt10shared_ptrI15rcl_publisher_tEEESaISE_EJRKSA_RFiP11rcl_event_tPKSC_26rcl_publisher_event_type_tERSD_RKSM_EEERPT_St20_Sp_alloc_shared_tagIT0_EDpOT1_
FN:672,_ZNSt14__shared_countILN9__gnu_cxx12_Lock_policyE2EEC2IN6rclcpp15QOSEventHandlerIZNS4_9PublisherIN8std_msgs3msg7String_ISaIvEEESA_EC4EPNS4_15node_interfaces17NodeBaseInterfaceERKNSt7__cxx1112basic_stringIcSt11char_traitsIcESaIcEEERKNS4_3QoSERKNS4_29PublisherOptionsWithAllocatorISA_EEEUlR35rmw_qos_incompatible_event_status_tE_St10shared_ptrI15rcl_publisher_tEEESaIS11_EJRKSX_RFiP11rcl_event_tPKSZ_26rcl_publisher_event_type_tERS10_RKS19_EEERPT_St20_Sp_alloc_shared_tagIT0_EDpOT1_
FNDA:2,_ZNSt14__shared_countILN9__gnu_cxx12_Lock_policyE2EEC2IN6rclcpp15QOSEventHandlerIZNS4_9PublisherIN8std_msgs3msg7String_ISaIvEEESA_EC4EPNS4_15node_interfaces17NodeBaseInterfaceERKNSt7__cxx1112basic_stringIcSt11char_traitsIcESaIcEEERKNS4_3QoSERKNS4_29PublisherOptionsWithAllocatorISA_EEEUlR35rmw_qos_incompatible_event_status_tE_St10shared_ptrI15rcl_publisher_tEEESaIS11_EJRKSX_RFiP11rcl_event_tPKSZ_26rcl_publisher_event_type_tERS10_RKS19_EEERPT_St20_Sp_alloc_shared_tagIT0_EDpOT1_
FN:672,_ZNSt14__shared_countILN9__gnu_cxx12_Lock_policyE2EEC2IN8std_msgs3msg7String_ISaIvEEESaIS8_EJRS8_EEERPT_St20_Sp_alloc_shared_tagIT0_EDpOT1_
FNDA:0,_ZNSt14__shared_countILN9__gnu_cxx12_Lock_policyE2EEC2IN8std_msgs3msg7String_ISaIvEEESaIS8_EJRS8_EEERPT_St20_Sp_alloc_shared_tagIT0_EDpOT1_
FN:699,_ZNSt14__shared_countILN9__gnu_cxx12_Lock_policyE2EEC2IN8std_msgs3msg7String_ISaIvEEESt14default_deleteIS8_EEEOSt10unique_ptrIT_T0_E
FNDA:0,_ZNSt14__shared_countILN9__gnu_cxx12_Lock_policyE2EEC2IN8std_msgs3msg7String_ISaIvEEESt14default_deleteIS8_EEEOSt10unique_ptrIT_T0_E
FN:727,_ZNSt14__shared_countILN9__gnu_cxx12_Lock_policyE2EED2Ev
FNDA:0,_ZNSt14__shared_countILN9__gnu_cxx12_Lock_policyE2EED2Ev
FN:733,_ZNSt14__shared_countILN9__gnu_cxx12_Lock_policyE2EEC2ERKS2_
FNDA:100,_ZNSt14__shared_countILN9__gnu_cxx12_Lock_policyE2EEC2ERKS2_
FN:741,_ZNSt14__shared_countILN9__gnu_cxx12_Lock_policyE2EEaSERKS2_
FNDA:4,_ZNSt14__shared_countILN9__gnu_cxx12_Lock_policyE2EEaSERKS2_
FN:756,_ZNSt14__shared_countILN9__gnu_cxx12_Lock_policyE2EE7_M_swapERS2_
FNDA:20,_ZNSt14__shared_countILN9__gnu_cxx12_Lock_policyE2EE7_M_swapERS2_
FN:764,_ZNKSt14__shared_countILN9__gnu_cxx12_Lock_policyE2EE16_M_get_use_countEv
FNDA:0,_ZNKSt14__shared_countILN9__gnu_cxx12_Lock_policyE2EE16_M_get_use_countEv
FN:827,_ZNSt12__weak_countILN9__gnu_cxx12_Lock_policyE2EEaSERKSt14__shared_countILS1_2EE
FNDA:8,_ZNSt12__weak_countILN9__gnu_cxx12_Lock_policyE2EEaSERKSt14__shared_countILS1_2EE
FN:869,_ZNKSt12__weak_countILN9__gnu_cxx12_Lock_policyE2EE16_M_get_use_countEv
FNDA:8,_ZNKSt12__weak_countILN9__gnu_cxx12_Lock_policyE2EE16_M_get_use_countEv
FN:894,_ZNSt14__shared_countILN9__gnu_cxx12_Lock_policyE2EEC2ERKSt12__weak_countILS1_2EE
FNDA:0,_ZNSt14__shared_countILN9__gnu_cxx12_Lock_policyE2EEC2ERKSt12__weak_countILS1_2EE
FN:906,_ZNSt14__shared_countILN9__gnu_cxx12_Lock_policyE2EEC2ERKSt12__weak_countILS1_2EESt9nothrow_t
FNDA:0,_ZNSt14__shared_countILN9__gnu_cxx12_Lock_policyE2EEC2ERKSt12__weak_countILS1_2EESt9nothrow_t
FN:1005,_ZNKSt19__shared_ptr_accessIKN8std_msgs3msg7String_ISaIvEEELN9__gnu_cxx12_Lock_policyE2ELb0ELb0EEdeEv
FNDA:0,_ZNKSt19__shared_ptr_accessIKN8std_msgs3msg7String_ISaIvEEELN9__gnu_cxx12_Lock_policyE2ELb0ELb0EEdeEv
FN:1005,_ZNKSt19__shared_ptr_accessISaIN8std_msgs3msg7String_ISaIvEEEELN9__gnu_cxx12_Lock_policyE2ELb0ELb0EEdeEv
FNDA:2,_ZNKSt19__shared_ptr_accessISaIN8std_msgs3msg7String_ISaIvEEEELN9__gnu_cxx12_Lock_policyE2ELb0ELb0EEdeEv
FN:1012,_ZNKSt19__shared_ptr_accessIN6rclcpp4NodeELN9__gnu_cxx12_Lock_policyE2ELb0ELb0EEptEv
FNDA:7,_ZNKSt19__shared_ptr_accessIN6rclcpp4NodeELN9__gnu_cxx12_Lock_policyE2ELb0ELb0EEptEv
FN:1012,_ZNKSt19__shared_ptr_accessIN6rclcpp15node_interfaces19NodeTopicsInterfaceELN9__gnu_cxx12_Lock_policyE2ELb0ELb0EEptEv
FNDA:8,_ZNKSt19__shared_ptr_accessIN6rclcpp15node_interfaces19NodeTopicsInterfaceELN9__gnu_cxx12_Lock_policyE2ELb0ELb0EEptEv
FN:1012,_ZNKSt19__shared_ptr_accessIN6rclcpp9PublisherIN8std_msgs3msg7String_ISaIvEEES5_EELN9__gnu_cxx12_Lock_policyE2ELb0ELb0EEptEv
FNDA:2,_ZNKSt19__shared_ptr_accessIN6rclcpp9PublisherIN8std_msgs3msg7String_ISaIvEEES5_EELN9__gnu_cxx12_Lock_policyE2ELb0ELb0EEptEv
FN:1012,_ZNKSt19__shared_ptr_accessIN6rclcpp12experimental24SubscriptionIntraProcessIN8std_msgs3msg7String_ISaIvEEES6_St14default_deleteIS7_ES7_EELN9__gnu_cxx12_Lock_policyE2ELb0ELb0EEptEv
FNDA:0,_ZNKSt19__shared_ptr_accessIN6rclcpp12experimental24SubscriptionIntraProcessIN8std_msgs3msg7String_ISaIvEEES6_St14default_deleteIS7_ES7_EELN9__gnu_cxx12_Lock_policyE2ELb0ELb0EEptEv
FN:1012,_ZNKSt19__shared_ptr_accessIN6rclcpp6detail41RMWImplementationSpecificPublisherPayloadELN9__gnu_cxx12_Lock_policyE2ELb0ELb0EEptEv
FNDA:0,_ZNKSt19__shared_ptr_accessIN6rclcpp6detail41RMWImplementationSpecificPublisherPayloadELN9__gnu_cxx12_Lock_policyE2ELb0ELb0EEptEv
FN:1012,_ZNKSt19__shared_ptr_accessIN6rclcpp7ContextELN9__gnu_cxx12_Lock_policyE2ELb0ELb0EEptEv
FNDA:0,_ZNKSt19__shared_ptr_accessIN6rclcpp7ContextELN9__gnu_cxx12_Lock_policyE2ELb0ELb0EEptEv
FN:1012,_ZNKSt19__shared_ptr_accessIN6rclcpp12experimental19IntraProcessManagerELN9__gnu_cxx12_Lock_policyE2ELb0ELb0EEptEv
FNDA:0,_ZNKSt19__shared_ptr_accessIN6rclcpp12experimental19IntraProcessManagerELN9__gnu_cxx12_Lock_policyE2ELb0ELb0EEptEv
FN:1012,_ZNKSt19__shared_ptr_accessIKNSt7__cxx1112basic_stringIcSt11char_traitsIcESaIcEEELN9__gnu_cxx12_Lock_policyE2ELb0ELb0EEptEv
FNDA:0,_ZNKSt19__shared_ptr_accessIKNSt7__cxx1112basic_stringIcSt11char_traitsIcESaIcEEELN9__gnu_cxx12_Lock_policyE2ELb0ELb0EEptEv
FN:1020,_ZNKSt19__shared_ptr_accessIN6rclcpp12experimental24SubscriptionIntraProcessIN8std_msgs3msg7String_ISaIvEEES6_St14default_deleteIS7_ES7_EELN9__gnu_cxx12_Lock_policyE2ELb0ELb0EE6_M_getEv
FNDA:0,_ZNKSt19__shared_ptr_accessIN6rclcpp12experimental24SubscriptionIntraProcessIN8std_msgs3msg7String_ISaIvEEES6_St14default_deleteIS7_ES7_EELN9__gnu_cxx12_Lock_policyE2ELb0ELb0EE6_M_getEv
FN:1020,_ZNKSt19__shared_ptr_accessIKNSt7__cxx1112basic_stringIcSt11char_traitsIcESaIcEEELN9__gnu_cxx12_Lock_policyE2ELb0ELb0EE6_M_getEv
FNDA:0,_ZNKSt19__shared_ptr_accessIKNSt7__cxx1112basic_stringIcSt11char_traitsIcESaIcEEELN9__gnu_cxx12_Lock_policyE2ELb0ELb0EE6_M_getEv
FN:1020,_ZNKSt19__shared_ptr_accessIN6rclcpp7ContextELN9__gnu_cxx12_Lock_policyE2ELb0ELb0EE6_M_getEv
FNDA:0,_ZNKSt19__shared_ptr_accessIN6rclcpp7ContextELN9__gnu_cxx12_Lock_policyE2ELb0ELb0EE6_M_getEv
FN:1020,_ZNKSt19__shared_ptr_accessIN6rclcpp12experimental19IntraProcessManagerELN9__gnu_cxx12_Lock_policyE2ELb0ELb0EE6_M_getEv
FNDA:0,_ZNKSt19__shared_ptr_accessIN6rclcpp12experimental19IntraProcessManagerELN9__gnu_cxx12_Lock_policyE2ELb0ELb0EE6_M_getEv
FN:1020,_ZNKSt19__shared_ptr_accessIKN8std_msgs3msg7String_ISaIvEEELN9__gnu_cxx12_Lock_policyE2ELb0ELb0EE6_M_getEv
FNDA:0,_ZNKSt19__shared_ptr_accessIKN8std_msgs3msg7String_ISaIvEEELN9__gnu_cxx12_Lock_policyE2ELb0ELb0EE6_M_getEv
FN:1020,_ZNKSt19__shared_ptr_accessISaIN8std_msgs3msg7String_ISaIvEEEELN9__gnu_cxx12_Lock_policyE2ELb0ELb0EE6_M_getEv
FNDA:2,_ZNKSt19__shared_ptr_accessISaIN8std_msgs3msg7String_ISaIvEEEELN9__gnu_cxx12_Lock_policyE2ELb0ELb0EE6_M_getEv
FN:1020,_ZNKSt19__shared_ptr_accessIN6rclcpp6detail41RMWImplementationSpecificPublisherPayloadELN9__gnu_cxx12_Lock_policyE2ELb0ELb0EE6_M_getEv
FNDA:0,_ZNKSt19__shared_ptr_accessIN6rclcpp6detail41RMWImplementationSpecificPublisherPayloadELN9__gnu_cxx12_Lock_policyE2ELb0ELb0EE6_M_getEv
FN:1020,_ZNKSt19__shared_ptr_accessIN6rclcpp4NodeELN9__gnu_cxx12_Lock_policyE2ELb0ELb0EE6_M_getEv
FNDA:7,_ZNKSt19__shared_ptr_accessIN6rclcpp4NodeELN9__gnu_cxx12_Lock_policyE2ELb0ELb0EE6_M_getEv
FN:1020,_ZNKSt19__shared_ptr_accessIN6rclcpp9PublisherIN8std_msgs3msg7String_ISaIvEEES5_EELN9__gnu_cxx12_Lock_policyE2ELb0ELb0EE6_M_getEv
FNDA:2,_ZNKSt19__shared_ptr_accessIN6rclcpp9PublisherIN8std_msgs3msg7String_ISaIvEEES5_EELN9__gnu_cxx12_Lock_policyE2ELb0ELb0EE6_M_getEv
FN:1020,_ZNKSt19__shared_ptr_accessIN6rclcpp15node_interfaces19NodeTopicsInterfaceELN9__gnu_cxx12_Lock_policyE2ELb0ELb0EE6_M_getEv
FNDA:8,_ZNKSt19__shared_ptr_accessIN6rclcpp15node_interfaces19NodeTopicsInterfaceELN9__gnu_cxx12_Lock_policyE2ELb0ELb0EE6_M_getEv
FN:1080,_ZNSt12__shared_ptrI15rcl_publisher_tLN9__gnu_cxx12_Lock_policyE2EEaSERKS3_
FNDA:4,_ZNSt12__shared_ptrI15rcl_publisher_tLN9__gnu_cxx12_Lock_policyE2EEaSERKS3_
FN:1118,_ZNSt12__shared_ptrIN6rclcpp12experimental24SubscriptionIntraProcessIN8std_msgs3msg7String_ISaIvEEES6_St14default_deleteIS7_ES7_EELN9__gnu_cxx12_Lock_policyE2EEC2Ev
FNDA:0,_ZNSt12__shared_ptrIN6rclcpp12experimental24SubscriptionIntraProcessIN8std_msgs3msg7String_ISaIvEEES6_St14default_deleteIS7_ES7_EELN9__gnu_cxx12_Lock_policyE2EEC2Ev
FN:1118,_ZNSt12__shared_ptrIN6rclcpp9PublisherIN8std_msgs3msg7String_ISaIvEEES5_EELN9__gnu_cxx12_Lock_policyE2EEC2Ev
FNDA:0,_ZNSt12__shared_ptrIN6rclcpp9PublisherIN8std_msgs3msg7String_ISaIvEEES5_EELN9__gnu_cxx12_Lock_policyE2EEC2Ev
FN:1118,_ZNSt12__shared_ptrIKN8std_msgs3msg7String_ISaIvEEELN9__gnu_cxx12_Lock_policyE2EEC2Ev
FNDA:0,_ZNSt12__shared_ptrIKN8std_msgs3msg7String_ISaIvEEELN9__gnu_cxx12_Lock_policyE2EEC2Ev
FN:1118,_ZNSt12__shared_ptrIN6rclcpp13CallbackGroupELN9__gnu_cxx12_Lock_policyE2EEC2Ev
FNDA:5,_ZNSt12__shared_ptrIN6rclcpp13CallbackGroupELN9__gnu_cxx12_Lock_policyE2EEC2Ev
FN:1118,_ZNSt12__shared_ptrIN6rclcpp6detail41RMWImplementationSpecificPublisherPayloadELN9__gnu_cxx12_Lock_policyE2EEC2Ev
FNDA:4,_ZNSt12__shared_ptrIN6rclcpp6detail41RMWImplementationSpecificPublisherPayloadELN9__gnu_cxx12_Lock_policyE2EEC2Ev
FN:1118,_ZNSt12__shared_ptrISaIvELN9__gnu_cxx12_Lock_policyE2EEC2Ev
FNDA:4,_ZNSt12__shared_ptrISaIvELN9__gnu_cxx12_Lock_policyE2EEC2Ev
FN:1118,_ZNSt12__shared_ptrI15rcl_publisher_tLN9__gnu_cxx12_Lock_policyE2EEC2Ev
FNDA:4,_ZNSt12__shared_ptrI15rcl_publisher_tLN9__gnu_cxx12_Lock_policyE2EEC2Ev
FN:1118,_ZNSt12__shared_ptrIN6rclcpp4NodeELN9__gnu_cxx12_Lock_policyE2EEC2Ev
FNDA:4,_ZNSt12__shared_ptrIN6rclcpp4NodeELN9__gnu_cxx12_Lock_policyE2EEC2Ev
FN:1118,_ZNSt12__shared_ptrIvLN9__gnu_cxx12_Lock_policyE2EEC2Ev
FNDA:0,_ZNSt12__shared_ptrIvLN9__gnu_cxx12_Lock_policyE2EEC2Ev
FN:1124,_ZNSt12__shared_ptrISaIN8std_msgs3msg7String_ISaIvEEEELN9__gnu_cxx12_Lock_policyE2EEC2IS5_vEEPT_
FNDA:2,_ZNSt12__shared_ptrISaIN8std_msgs3msg7String_ISaIvEEEELN9__gnu_cxx12_Lock_policyE2EEC2IS5_vEEPT_
FN:1133,_ZNSt12__shared_ptrIN6rclcpp12experimental19IntraProcessManagerELN9__gnu_cxx12_Lock_policyE2EEC2IS2_ZNS0_7Context15get_sub_contextIS2_JEEESt10shared_ptrIT_EDpOT0_EUlPS2_E_vEEPSA_T0_
FNDA:0,_ZNSt12__shared_ptrIN6rclcpp12experimental19IntraProcessManagerELN9__gnu_cxx12_Lock_policyE2EEC2IS2_ZNS0_7Context15get_sub_contextIS2_JEEESt10shared_ptrIT_EDpOT0_EUlPS2_E_vEEPSA_T0_
FN:1162,_ZNSt12__shared_ptrIN6rclcpp12experimental19IntraProcessManagerELN9__gnu_cxx12_Lock_policyE2EEC2IvEERKS_IT_LS4_2EEPS2_
FNDA:0,_ZNSt12__shared_ptrIN6rclcpp12experimental19IntraProcessManagerELN9__gnu_cxx12_Lock_policyE2EEC2IvEERKS_IT_LS4_2EEPS2_
FN:1162,_ZNSt12__shared_ptrIN6rclcpp12experimental24SubscriptionIntraProcessIN8std_msgs3msg7String_ISaIvEEES6_St14default_deleteIS7_ES7_EELN9__gnu_cxx12_Lock_policyE2EEC2INS1_28SubscriptionIntraProcessBaseEEERKS_IT_LSC_2EEPSA_
FNDA:0,_ZNSt12__shared_ptrIN6rclcpp12experimental24SubscriptionIntraProcessIN8std_msgs3msg7String_ISaIvEEES6_St14default_deleteIS7_ES7_EELN9__gnu_cxx12_Lock_policyE2EEC2INS1_28SubscriptionIntraProcessBaseEEERKS_IT_LSC_2EEPSA_
FN:1162,_ZNSt12__shared_ptrIN6rclcpp9PublisherIN8std_msgs3msg7String_ISaIvEEES5_EELN9__gnu_cxx12_Lock_policyE2EEC2INS0_13PublisherBaseEEERKS_IT_LS9_2EEPS7_
FNDA:2,_ZNSt12__shared_ptrIN6rclcpp9PublisherIN8std_msgs3msg7String_ISaIvEEES5_EELN9__gnu_cxx12_Lock_policyE2EEC2INS0_13PublisherBaseEEERKS_IT_LS9_2EEPS7_
FN:1167,_ZNSt12__shared_ptrIKN8std_msgs3msg7String_ISaIvEEELN9__gnu_cxx12_Lock_policyE2EEC2ERKS8_
FNDA:0,_ZNSt12__shared_ptrIKN8std_msgs3msg7String_ISaIvEEELN9__gnu_cxx12_Lock_policyE2EEC2ERKS8_
FN:1167,_ZNSt12__shared_ptrIN6rclcpp13PublisherBaseELN9__gnu_cxx12_Lock_policyE2EEC2ERKS4_
FNDA:4,_ZNSt12__shared_ptrIN6rclcpp13PublisherBaseELN9__gnu_cxx12_Lock_policyE2EEC2ERKS4_
FN:1167,_ZNSt12__shared_ptrIN6rclcpp13CallbackGroupELN9__gnu_cxx12_Lock_policyE2EEC2ERKS4_
FNDA:38,_ZNSt12__shared_ptrIN6rclcpp13CallbackGroupELN9__gnu_cxx12_Lock_policyE2EEC2ERKS4_
FN:1167,_ZNSt12__shared_ptrIN6rclcpp6detail41RMWImplementationSpecificPublisherPayloadELN9__gnu_cxx12_Lock_policyE2EEC2ERKS5_
FNDA:17,_ZNSt12__shared_ptrIN6rclcpp6detail41RMWImplementationSpecificPublisherPayloadELN9__gnu_cxx12_Lock_policyE2EEC2ERKS5_
FN:1167,_ZNSt12__shared_ptrISaIvELN9__gnu_cxx12_Lock_policyE2EEC2ERKS3_
FNDA:12,_ZNSt12__shared_ptrISaIvELN9__gnu_cxx12_Lock_policyE2EEC2ERKS3_
FN:1167,_ZNSt12__shared_ptrIN6rclcpp12experimental19IntraProcessManagerELN9__gnu_cxx12_Lock_policyE2EEC2ERKS5_
FNDA:0,_ZNSt12__shared_ptrIN6rclcpp12experimental19IntraProcessManagerELN9__gnu_cxx12_Lock_policyE2EEC2ERKS5_
FN:1167,_ZNSt12__shared_ptrIN6rclcpp12experimental28SubscriptionIntraProcessBaseELN9__gnu_cxx12_Lock_policyE2EEC2ERKS5_
FNDA:0,_ZNSt12__shared_ptrIN6rclcpp12experimental28SubscriptionIntraProcessBaseELN9__gnu_cxx12_Lock_policyE2EEC2ERKS5_
FN:1167,_ZNSt12__shared_ptrI15rcl_publisher_tLN9__gnu_cxx12_Lock_policyE2EEC2ERKS3_
FNDA:4,_ZNSt12__shared_ptrI15rcl_publisher_tLN9__gnu_cxx12_Lock_policyE2EEC2ERKS3_
FN:1167,_ZNSt12__shared_ptrISaIN8std_msgs3msg7String_ISaIvEEEELN9__gnu_cxx12_Lock_policyE2EEC2ERKS8_
FNDA:0,_ZNSt12__shared_ptrISaIN8std_msgs3msg7String_ISaIvEEEELN9__gnu_cxx12_Lock_policyE2EEC2ERKS8_
FN:1169,_ZNSt12__shared_ptrIN6rclcpp12experimental19IntraProcessManagerELN9__gnu_cxx12_Lock_policyE2EED2Ev
FNDA:0,_ZNSt12__shared_ptrIN6rclcpp12experimental19IntraProcessManagerELN9__gnu_cxx12_Lock_policyE2EED2Ev
FN:1169,_ZNSt12__shared_ptrIN6rclcpp15QOSEventHandlerISt8functionIFvR36rmw_offered_deadline_missed_status_tEESt10shared_ptrI15rcl_publisher_tEEELN9__gnu_cxx12_Lock_policyE2EED2Ev
FNDA:0,_ZNSt12__shared_ptrIN6rclcpp15QOSEventHandlerISt8functionIFvR36rmw_offered_deadline_missed_status_tEESt10shared_ptrI15rcl_publisher_tEEELN9__gnu_cxx12_Lock_policyE2EED2Ev
FN:1169,_ZNSt12__shared_ptrIN6rclcpp15QOSEventHandlerISt8functionIFvR28rmw_liveliness_lost_status_tEESt10shared_ptrI15rcl_publisher_tEEELN9__gnu_cxx12_Lock_policyE2EED2Ev
FNDA:0,_ZNSt12__shared_ptrIN6rclcpp15QOSEventHandlerISt8functionIFvR28rmw_liveliness_lost_status_tEESt10shared_ptrI15rcl_publisher_tEEELN9__gnu_cxx12_Lock_policyE2EED2Ev
FN:1169,_ZNSt12__shared_ptrIN6rclcpp15QOSEventHandlerISt8functionIFvR35rmw_qos_incompatible_event_status_tEESt10shared_ptrI15rcl_publisher_tEEELN9__gnu_cxx12_Lock_policyE2EED2Ev
FNDA:0,_ZNSt12__shared_ptrIN6rclcpp15QOSEventHandlerISt8functionIFvR35rmw_qos_incompatible_event_status_tEESt10shared_ptrI15rcl_publisher_tEEELN9__gnu_cxx12_Lock_policyE2EED2Ev
FN:1169,_ZNSt12__shared_ptrIN6rclcpp7ContextELN9__gnu_cxx12_Lock_policyE2EED2Ev
FNDA:0,_ZNSt12__shared_ptrIN6rclcpp7ContextELN9__gnu_cxx12_Lock_policyE2EED2Ev
FN:1169,_ZNSt12__shared_ptrIN6rclcpp15QOSEventHandlerIZNS0_9PublisherIN8std_msgs3msg7String_ISaIvEEES6_EC4EPNS0_15node_interfaces17NodeBaseInterfaceERKNSt7__cxx1112basic_stringIcSt11char_traitsIcESaIcEEERKNS0_3QoSERKNS0_29PublisherOptionsWithAllocatorIS6_EEEUlR35rmw_qos_incompatible_event_status_tE_St10shared_ptrI15rcl_publisher_tEEELN9__gnu_cxx12_Lock_policyE2EED2Ev
FNDA:0,_ZNSt12__shared_ptrIN6rclcpp15QOSEventHandlerIZNS0_9PublisherIN8std_msgs3msg7String_ISaIvEEES6_EC4EPNS0_15node_interfaces17NodeBaseInterfaceERKNSt7__cxx1112basic_stringIcSt11char_traitsIcESaIcEEERKNS0_3QoSERKNS0_29PublisherOptionsWithAllocatorIS6_EEEUlR35rmw_qos_incompatible_event_status_tE_St10shared_ptrI15rcl_publisher_tEEELN9__gnu_cxx12_Lock_policyE2EED2Ev
FN:1169,_ZNSt12__shared_ptrIN6rclcpp15node_interfaces19NodeTopicsInterfaceELN9__gnu_cxx12_Lock_policyE2EED2Ev
FNDA:4,_ZNSt12__shared_ptrIN6rclcpp15node_interfaces19NodeTopicsInterfaceELN9__gnu_cxx12_Lock_policyE2EED2Ev
FN:1169,_ZNSt12__shared_ptrIvLN9__gnu_cxx12_Lock_policyE2EED2Ev
FNDA:0,_ZNSt12__shared_ptrIvLN9__gnu_cxx12_Lock_policyE2EED2Ev
FN:1169,_ZNSt12__shared_ptrISaIvELN9__gnu_cxx12_Lock_policyE2EED2Ev
FNDA:34,_ZNSt12__shared_ptrISaIvELN9__gnu_cxx12_Lock_policyE2EED2Ev
FN:1169,_ZNSt12__shared_ptrIN6rclcpp9PublisherIN8std_msgs3msg7String_ISaIvEEES5_EELN9__gnu_cxx12_Lock_policyE2EED2Ev
FNDA:6,_ZNSt12__shared_ptrIN6rclcpp9PublisherIN8std_msgs3msg7String_ISaIvEEES5_EELN9__gnu_cxx12_Lock_policyE2EED2Ev
FN:1169,_ZNSt12__shared_ptrIN6rclcpp4NodeELN9__gnu_cxx12_Lock_policyE2EED2Ev
FNDA:14,_ZNSt12__shared_ptrIN6rclcpp4NodeELN9__gnu_cxx12_Lock_policyE2EED2Ev
FN:1169,_ZNSt12__shared_ptrIN6rclcpp19QOSEventHandlerBaseELN9__gnu_cxx12_Lock_policyE2EED2Ev
FNDA:0,_ZNSt12__shared_ptrIN6rclcpp19QOSEventHandlerBaseELN9__gnu_cxx12_Lock_policyE2EED2Ev
FN:1169,_ZNSt12__shared_ptrIN8std_msgs3msg7String_ISaIvEEELN9__gnu_cxx12_Lock_policyE2EED2Ev
FNDA:0,_ZNSt12__shared_ptrIN8std_msgs3msg7String_ISaIvEEELN9__gnu_cxx12_Lock_policyE2EED2Ev
FN:1169,_ZNSt12__shared_ptrI15rcl_publisher_tLN9__gnu_cxx12_Lock_policyE2EED2Ev
FNDA:8,_ZNSt12__shared_ptrI15rcl_publisher_tLN9__gnu_cxx12_Lock_policyE2EED2Ev
FN:1169,_ZNSt12__shared_ptrIN6rclcpp13PublisherBaseELN9__gnu_cxx12_Lock_policyE2EED2Ev
FNDA:8,_ZNSt12__shared_ptrIN6rclcpp13PublisherBaseELN9__gnu_cxx12_Lock_policyE2EED2Ev
FN:1169,_ZNSt12__shared_ptrIKN8std_msgs3msg7String_ISaIvEEELN9__gnu_cxx12_Lock_policyE2EED2Ev
FNDA:0,_ZNSt12__shared_ptrIKN8std_msgs3msg7String_ISaIvEEELN9__gnu_cxx12_Lock_policyE2EED2Ev
FN:1169,_ZNSt12__shared_ptrIN6rclcpp6detail41RMWImplementationSpecificPublisherPayloadELN9__gnu_cxx12_Lock_policyE2EED2Ev
FNDA:21,_ZNSt12__shared_ptrIN6rclcpp6detail41RMWImplementationSpecificPublisherPayloadELN9__gnu_cxx12_Lock_policyE2EED2Ev
FN:1169,_ZNSt12__shared_ptrISaIN8std_msgs3msg7String_ISaIvEEEELN9__gnu_cxx12_Lock_policyE2EED2Ev
FNDA:4,_ZNSt12__shared_ptrISaIN8std_msgs3msg7String_ISaIvEEEELN9__gnu_cxx12_Lock_policyE2EED2Ev
FN:1169,_ZNSt12__shared_ptrIN6rclcpp13CallbackGroupELN9__gnu_cxx12_Lock_policyE2EED2Ev
FNDA:38,_ZNSt12__shared_ptrIN6rclcpp13CallbackGroupELN9__gnu_cxx12_Lock_policyE2EED2Ev
FN:1169,_ZNSt12__shared_ptrIKNSt7__cxx1112basic_stringIcSt11char_traitsIcESaIcEEELN9__gnu_cxx12_Lock_policyE2EED2Ev
FNDA:0,_ZNSt12__shared_ptrIKNSt7__cxx1112basic_stringIcSt11char_traitsIcESaIcEEELN9__gnu_cxx12_Lock_policyE2EED2Ev
FN:1169,_ZNSt12__shared_ptrIN6rclcpp12experimental28SubscriptionIntraProcessBaseELN9__gnu_cxx12_Lock_policyE2EED2Ev
FNDA:0,_ZNSt12__shared_ptrIN6rclcpp12experimental28SubscriptionIntraProcessBaseELN9__gnu_cxx12_Lock_policyE2EED2Ev
FN:1169,_ZNSt12__shared_ptrIN6rclcpp12experimental24SubscriptionIntraProcessIN8std_msgs3msg7String_ISaIvEEES6_St14default_deleteIS7_ES7_EELN9__gnu_cxx12_Lock_policyE2EED2Ev
FNDA:0,_ZNSt12__shared_ptrIN6rclcpp12experimental24SubscriptionIntraProcessIN8std_msgs3msg7String_ISaIvEEES6_St14default_deleteIS7_ES7_EELN9__gnu_cxx12_Lock_policyE2EED2Ev
FN:1172,_ZNSt12__shared_ptrIN6rclcpp19QOSEventHandlerBaseELN9__gnu_cxx12_Lock_policyE2EEC2INS0_15QOSEventHandlerIZNS0_9PublisherIN8std_msgs3msg7String_ISaIvEEESB_EC4EPNS0_15node_interfaces17NodeBaseInterfaceERKNSt7__cxx1112basic_stringIcSt11char_traitsIcESaIcEEERKNS0_3QoSERKNS0_29PublisherOptionsWithAllocatorISB_EEEUlR35rmw_qos_incompatible_event_status_tE_St10shared_ptrI15rcl_publisher_tEEEvEERKS_IT_LS3_2EE
FNDA:0,_ZNSt12__shared_ptrIN6rclcpp19QOSEventHandlerBaseELN9__gnu_cxx12_Lock_policyE2EEC2INS0_15QOSEventHandlerIZNS0_9PublisherIN8std_msgs3msg7String_ISaIvEEESB_EC4EPNS0_15node_interfaces17NodeBaseInterfaceERKNSt7__cxx1112basic_stringIcSt11char_traitsIcESaIcEEERKNS0_3QoSERKNS0_29PublisherOptionsWithAllocatorISB_EEEUlR35rmw_qos_incompatible_event_status_tE_St10shared_ptrI15rcl_publisher_tEEEvEERKS_IT_LS3_2EE
FN:1172,_ZNSt12__shared_ptrIN6rclcpp19QOSEventHandlerBaseELN9__gnu_cxx12_Lock_policyE2EEC2INS0_15QOSEventHandlerISt8functionIFvR35rmw_qos_incompatible_event_status_tEESt10shared_ptrI15rcl_publisher_tEEEvEERKS_IT_LS3_2EE
FNDA:0,_ZNSt12__shared_ptrIN6rclcpp19QOSEventHandlerBaseELN9__gnu_cxx12_Lock_policyE2EEC2INS0_15QOSEventHandlerISt8functionIFvR35rmw_qos_incompatible_event_status_tEESt10shared_ptrI15rcl_publisher_tEEEvEERKS_IT_LS3_2EE
FN:1172,_ZNSt12__shared_ptrIN6rclcpp19QOSEventHandlerBaseELN9__gnu_cxx12_Lock_policyE2EEC2INS0_15QOSEventHandlerISt8functionIFvR28rmw_liveliness_lost_status_tEESt10shared_ptrI15rcl_publisher_tEEEvEERKS_IT_LS3_2EE
FNDA:0,_ZNSt12__shared_ptrIN6rclcpp19QOSEventHandlerBaseELN9__gnu_cxx12_Lock_policyE2EEC2INS0_15QOSEventHandlerISt8functionIFvR28rmw_liveliness_lost_status_tEESt10shared_ptrI15rcl_publisher_tEEEvEERKS_IT_LS3_2EE
FN:1172,_ZNSt12__shared_ptrIN6rclcpp19QOSEventHandlerBaseELN9__gnu_cxx12_Lock_policyE2EEC2INS0_15QOSEventHandlerISt8functionIFvR36rmw_offered_deadline_missed_status_tEESt10shared_ptrI15rcl_publisher_tEEEvEERKS_IT_LS3_2EE
FNDA:0,_ZNSt12__shared_ptrIN6rclcpp19QOSEventHandlerBaseELN9__gnu_cxx12_Lock_policyE2EEC2INS0_15QOSEventHandlerISt8functionIFvR36rmw_offered_deadline_missed_status_tEESt10shared_ptrI15rcl_publisher_tEEEvEERKS_IT_LS3_2EE
FN:1172,_ZNSt12__shared_ptrIKN8std_msgs3msg7String_ISaIvEEELN9__gnu_cxx12_Lock_policyE2EEC2IS4_vEERKS_IT_LS7_2EE
FNDA:0,_ZNSt12__shared_ptrIKN8std_msgs3msg7String_ISaIvEEELN9__gnu_cxx12_Lock_policyE2EEC2IS4_vEERKS_IT_LS7_2EE
FN:1176,_ZNSt12__shared_ptrIKN8std_msgs3msg7String_ISaIvEEELN9__gnu_cxx12_Lock_policyE2EEC2EOS8_
FNDA:0,_ZNSt12__shared_ptrIKN8std_msgs3msg7String_ISaIvEEELN9__gnu_cxx12_Lock_policyE2EEC2EOS8_
FN:1176,_ZNSt12__shared_ptrIN6rclcpp19QOSEventHandlerBaseELN9__gnu_cxx12_Lock_policyE2EEC2EOS4_
FNDA:0,_ZNSt12__shared_ptrIN6rclcpp19QOSEventHandlerBaseELN9__gnu_cxx12_Lock_policyE2EEC2EOS4_
FN:1176,_ZNSt12__shared_ptrIN6rclcpp9PublisherIN8std_msgs3msg7String_ISaIvEEES5_EELN9__gnu_cxx12_Lock_policyE2EEC2EOSA_
FNDA:2,_ZNSt12__shared_ptrIN6rclcpp9PublisherIN8std_msgs3msg7String_ISaIvEEES5_EELN9__gnu_cxx12_Lock_policyE2EEC2EOSA_
FN:1176,_ZNSt12__shared_ptrIN6rclcpp4NodeELN9__gnu_cxx12_Lock_policyE2EEC2EOS4_
FNDA:4,_ZNSt12__shared_ptrIN6rclcpp4NodeELN9__gnu_cxx12_Lock_policyE2EEC2EOS4_
FN:1176,_ZNSt12__shared_ptrIN6rclcpp12experimental19IntraProcessManagerELN9__gnu_cxx12_Lock_policyE2EEC2EOS5_
FNDA:0,_ZNSt12__shared_ptrIN6rclcpp12experimental19IntraProcessManagerELN9__gnu_cxx12_Lock_policyE2EEC2EOS5_
FN:1184,_ZNSt12__shared_ptrIKN8std_msgs3msg7String_ISaIvEEELN9__gnu_cxx12_Lock_policyE2EEC2IS4_vEEOS_IT_LS7_2EE
FNDA:0,_ZNSt12__shared_ptrIKN8std_msgs3msg7String_ISaIvEEELN9__gnu_cxx12_Lock_policyE2EEC2IS4_vEEOS_IT_LS7_2EE
FN:1184,_ZNSt12__shared_ptrIN6rclcpp13PublisherBaseELN9__gnu_cxx12_Lock_policyE2EEC2INS0_9PublisherIN8std_msgs3msg7String_ISaIvEEESA_EEvEEOS_IT_LS3_2EE
FNDA:2,_ZNSt12__shared_ptrIN6rclcpp13PublisherBaseELN9__gnu_cxx12_Lock_policyE2EEC2INS0_9PublisherIN8std_msgs3msg7String_ISaIvEEESA_EEvEEOS_IT_LS3_2EE
FN:1192,_ZNSt12__shared_ptrIN6rclcpp13PublisherBaseELN9__gnu_cxx12_Lock_policyE2EEC2IS1_vEERKSt10__weak_ptrIT_LS3_2EE
FNDA:0,_ZNSt12__shared_ptrIN6rclcpp13PublisherBaseELN9__gnu_cxx12_Lock_policyE2EEC2IS1_vEERKSt10__weak_ptrIT_LS3_2EE
FN:1203,_ZNSt12__shared_ptrIN8std_msgs3msg7String_ISaIvEEELN9__gnu_cxx12_Lock_policyE2EEC2IS4_St14default_deleteIS4_EvEEOSt10unique_ptrIT_T0_E
FNDA:0,_ZNSt12__shared_ptrIN8std_msgs3msg7String_ISaIvEEELN9__gnu_cxx12_Lock_policyE2EEC2IS4_St14default_deleteIS4_EvEEOSt10unique_ptrIT_T0_E
FN:1242,_ZNSt12__shared_ptrIvLN9__gnu_cxx12_Lock_policyE2EEaSIN6rclcpp12experimental19IntraProcessManagerEEENSt9enable_ifIXsrSt20__sp_compatible_withIPT_PvE5valueERS2_E4typeERKS_IS9_LS1_2EE
FNDA:0,_ZNSt12__shared_ptrIvLN9__gnu_cxx12_Lock_policyE2EEaSIN6rclcpp12experimental19IntraProcessManagerEEENSt9enable_ifIXsrSt20__sp_compatible_withIPT_PvE5valueERS2_E4typeERKS_IS9_LS1_2EE
FN:1263,_ZNSt12__shared_ptrIN6rclcpp4NodeELN9__gnu_cxx12_Lock_policyE2EEaSEOS4_
FNDA:4,_ZNSt12__shared_ptrIN6rclcpp4NodeELN9__gnu_cxx12_Lock_policyE2EEaSEOS4_
FN:1263,_ZNSt12__shared_ptrIN6rclcpp12experimental19IntraProcessManagerELN9__gnu_cxx12_Lock_policyE2EEaSEOS5_
FNDA:0,_ZNSt12__shared_ptrIN6rclcpp12experimental19IntraProcessManagerELN9__gnu_cxx12_Lock_policyE2EEaSEOS5_
FN:1309,_ZNKSt12__shared_ptrIN6rclcpp6detail41RMWImplementationSpecificPublisherPayloadELN9__gnu_cxx12_Lock_policyE2EE3getEv
FNDA:0,_ZNKSt12__shared_ptrIN6rclcpp6detail41RMWImplementationSpecificPublisherPayloadELN9__gnu_cxx12_Lock_policyE2EE3getEv
FN:1309,_ZNKSt12__shared_ptrIKN8std_msgs3msg7String_ISaIvEEELN9__gnu_cxx12_Lock_policyE2EE3getEv
FNDA:0,_ZNKSt12__shared_ptrIKN8std_msgs3msg7String_ISaIvEEELN9__gnu_cxx12_Lock_policyE2EE3getEv
FN:1309,_ZNKSt12__shared_ptrIN6rclcpp7ContextELN9__gnu_cxx12_Lock_policyE2EE3getEv
FNDA:0,_ZNKSt12__shared_ptrIN6rclcpp7ContextELN9__gnu_cxx12_Lock_policyE2EE3getEv
FN:1309,_ZNKSt12__shared_ptrI15rcl_publisher_tLN9__gnu_cxx12_Lock_policyE2EE3getEv
FNDA:4,_ZNKSt12__shared_ptrI15rcl_publisher_tLN9__gnu_cxx12_Lock_policyE2EE3getEv
FN:1309,_ZNKSt12__shared_ptrIN6rclcpp12experimental24SubscriptionIntraProcessIN8std_msgs3msg7String_ISaIvEEES6_St14default_deleteIS7_ES7_EELN9__gnu_cxx12_Lock_policyE2EE3getEv
FNDA:0,_ZNKSt12__shared_ptrIN6rclcpp12experimental24SubscriptionIntraProcessIN8std_msgs3msg7String_ISaIvEEES6_St14default_deleteIS7_ES7_EELN9__gnu_cxx12_Lock_policyE2EE3getEv
FN:1309,_ZNKSt12__shared_ptrIN6rclcpp9PublisherIN8std_msgs3msg7String_ISaIvEEES5_EELN9__gnu_cxx12_Lock_policyE2EE3getEv
FNDA:2,_ZNKSt12__shared_ptrIN6rclcpp9PublisherIN8std_msgs3msg7String_ISaIvEEES5_EELN9__gnu_cxx12_Lock_policyE2EE3getEv
FN:1309,_ZNKSt12__shared_ptrISaIvELN9__gnu_cxx12_Lock_policyE2EE3getEv
FNDA:8,_ZNKSt12__shared_ptrISaIvELN9__gnu_cxx12_Lock_policyE2EE3getEv
FN:1309,_ZNKSt12__shared_ptrIKNSt7__cxx1112basic_stringIcSt11char_traitsIcESaIcEEELN9__gnu_cxx12_Lock_policyE2EE3getEv
FNDA:0,_ZNKSt12__shared_ptrIKNSt7__cxx1112basic_stringIcSt11char_traitsIcESaIcEEELN9__gnu_cxx12_Lock_policyE2EE3getEv
FN:1309,_ZNKSt12__shared_ptrIvLN9__gnu_cxx12_Lock_policyE2EE3getEv
FNDA:0,_ZNKSt12__shared_ptrIvLN9__gnu_cxx12_Lock_policyE2EE3getEv
FN:1309,_ZNKSt12__shared_ptrIN6rclcpp4NodeELN9__gnu_cxx12_Lock_policyE2EE3getEv
FNDA:7,_ZNKSt12__shared_ptrIN6rclcpp4NodeELN9__gnu_cxx12_Lock_policyE2EE3getEv
FN:1309,_ZNKSt12__shared_ptrIN6rclcpp12experimental28SubscriptionIntraProcessBaseELN9__gnu_cxx12_Lock_policyE2EE3getEv
FNDA:0,_ZNKSt12__shared_ptrIN6rclcpp12experimental28SubscriptionIntraProcessBaseELN9__gnu_cxx12_Lock_policyE2EE3getEv
FN:1309,_ZNKSt12__shared_ptrIN6rclcpp15node_interfaces19NodeTopicsInterfaceELN9__gnu_cxx12_Lock_policyE2EE3getEv
FNDA:8,_ZNKSt12__shared_ptrIN6rclcpp15node_interfaces19NodeTopicsInterfaceELN9__gnu_cxx12_Lock_policyE2EE3getEv
FN:1309,_ZNKSt12__shared_ptrIN6rclcpp13PublisherBaseELN9__gnu_cxx12_Lock_policyE2EE3getEv
FNDA:4,_ZNKSt12__shared_ptrIN6rclcpp13PublisherBaseELN9__gnu_cxx12_Lock_policyE2EE3getEv
FN:1309,_ZNKSt12__shared_ptrIN6rclcpp12experimental19IntraProcessManagerELN9__gnu_cxx12_Lock_policyE2EE3getEv
FNDA:0,_ZNKSt12__shared_ptrIN6rclcpp12experimental19IntraProcessManagerELN9__gnu_cxx12_Lock_policyE2EE3getEv
FN:1309,_ZNKSt12__shared_ptrISaIN8std_msgs3msg7String_ISaIvEEEELN9__gnu_cxx12_Lock_policyE2EE3getEv
FNDA:4,_ZNKSt12__shared_ptrISaIN8std_msgs3msg7String_ISaIvEEEELN9__gnu_cxx12_Lock_policyE2EE3getEv
FN:1312,_ZNKSt12__shared_ptrIN6rclcpp12experimental19IntraProcessManagerELN9__gnu_cxx12_Lock_policyE2EEcvbEv
FNDA:0,_ZNKSt12__shared_ptrIN6rclcpp12experimental19IntraProcessManagerELN9__gnu_cxx12_Lock_policyE2EEcvbEv
FN:1312,_ZNKSt12__shared_ptrIN6rclcpp12experimental24SubscriptionIntraProcessIN8std_msgs3msg7String_ISaIvEEES6_St14default_deleteIS7_ES7_EELN9__gnu_cxx12_Lock_policyE2EEcvbEv
FNDA:0,_ZNKSt12__shared_ptrIN6rclcpp12experimental24SubscriptionIntraProcessIN8std_msgs3msg7String_ISaIvEEES6_St14default_deleteIS7_ES7_EELN9__gnu_cxx12_Lock_policyE2EEcvbEv
FN:1312,_ZNKSt12__shared_ptrISaIvELN9__gnu_cxx12_Lock_policyE2EEcvbEv
FNDA:8,_ZNKSt12__shared_ptrISaIvELN9__gnu_cxx12_Lock_policyE2EEcvbEv
FN:1312,_ZNKSt12__shared_ptrIN6rclcpp6detail41RMWImplementationSpecificPublisherPayloadELN9__gnu_cxx12_Lock_policyE2EEcvbEv
FNDA:4,_ZNKSt12__shared_ptrIN6rclcpp6detail41RMWImplementationSpecificPublisherPayloadELN9__gnu_cxx12_Lock_policyE2EEcvbEv
FN:1312,_ZNKSt12__shared_ptrIKNSt7__cxx1112basic_stringIcSt11char_traitsIcESaIcEEELN9__gnu_cxx12_Lock_policyE2EEcvbEv
FNDA:0,_ZNKSt12__shared_ptrIKNSt7__cxx1112basic_stringIcSt11char_traitsIcESaIcEEELN9__gnu_cxx12_Lock_policyE2EEcvbEv
FN:1324,_ZNSt12__shared_ptrIN6rclcpp12experimental19IntraProcessManagerELN9__gnu_cxx12_Lock_policyE2EE4swapERS5_
FNDA:0,_ZNSt12__shared_ptrIN6rclcpp12experimental19IntraProcessManagerELN9__gnu_cxx12_Lock_policyE2EE4swapERS5_
FN:1324,_ZNSt12__shared_ptrIN6rclcpp4NodeELN9__gnu_cxx12_Lock_policyE2EE4swapERS4_
FNDA:4,_ZNSt12__shared_ptrIN6rclcpp4NodeELN9__gnu_cxx12_Lock_policyE2EE4swapERS4_
FN:1343,_ZNSt12__shared_ptrIN8std_msgs3msg7String_ISaIvEEELN9__gnu_cxx12_Lock_policyE2EEC2ISaIS4_EJRS4_EEESt20_Sp_alloc_shared_tagIT_EDpOT0_
FNDA:0,_ZNSt12__shared_ptrIN8std_msgs3msg7String_ISaIvEEELN9__gnu_cxx12_Lock_policyE2EEC2ISaIS4_EJRS4_EEESt20_Sp_alloc_shared_tagIT_EDpOT0_
FN:1343,_ZNSt12__shared_ptrIN6rclcpp9PublisherIN8std_msgs3msg7String_ISaIvEEES5_EELN9__gnu_cxx12_Lock_policyE2EEC2ISaIS7_EJRPNS0_15node_interfaces17NodeBaseInterfaceERKNSt7__cxx1112basic_stringIcSt11char_traitsIcESaIcEEERKNS0_3QoSERKNS0_29PublisherOptionsWithAllocatorIS5_EEEEESt20_Sp_alloc_shared_tagIT_EDpOT0_
FNDA:2,_ZNSt12__shared_ptrIN6rclcpp9PublisherIN8std_msgs3msg7String_ISaIvEEES5_EELN9__gnu_cxx12_Lock_policyE2EEC2ISaIS7_EJRPNS0_15node_interfaces17NodeBaseInterfaceERKNSt7__cxx1112basic_stringIcSt11char_traitsIcESaIcEEERKNS0_3QoSERKNS0_29PublisherOptionsWithAllocatorIS5_EEEEESt20_Sp_alloc_shared_tagIT_EDpOT0_
FN:1343,_ZNSt12__shared_ptrIN6rclcpp15QOSEventHandlerIZNS0_9PublisherIN8std_msgs3msg7String_ISaIvEEES6_EC4EPNS0_15node_interfaces17NodeBaseInterfaceERKNSt7__cxx1112basic_stringIcSt11char_traitsIcESaIcEEERKNS0_3QoSERKNS0_29PublisherOptionsWithAllocatorIS6_EEEUlR35rmw_qos_incompatible_event_status_tE_St10shared_ptrI15rcl_publisher_tEEELN9__gnu_cxx12_Lock_policyE2EEC2ISaISX_EJRKST_RFiP11rcl_event_tPKSV_26rcl_publisher_event_type_tERSW_RKS19_EEESt20_Sp_alloc_shared_tagIT_EDpOT0_
FNDA:2,_ZNSt12__shared_ptrIN6rclcpp15QOSEventHandlerIZNS0_9PublisherIN8std_msgs3msg7String_ISaIvEEES6_EC4EPNS0_15node_interfaces17NodeBaseInterfaceERKNSt7__cxx1112basic_stringIcSt11char_traitsIcESaIcEEERKNS0_3QoSERKNS0_29PublisherOptionsWithAllocatorIS6_EEEUlR35rmw_qos_incompatible_event_status_tE_St10shared_ptrI15rcl_publisher_tEEELN9__gnu_cxx12_Lock_policyE2EEC2ISaISX_EJRKST_RFiP11rcl_event_tPKSV_26rcl_publisher_event_type_tERSW_RKS19_EEESt20_Sp_alloc_shared_tagIT_EDpOT0_
FN:1343,_ZNSt12__shared_ptrIN6rclcpp15QOSEventHandlerISt8functionIFvR35rmw_qos_incompatible_event_status_tEESt10shared_ptrI15rcl_publisher_tEEELN9__gnu_cxx12_Lock_policyE2EEC2ISaISA_EJRKS6_RFiP11rcl_event_tPKS8_26rcl_publisher_event_type_tERS9_RKSM_EEESt20_Sp_alloc_shared_tagIT_EDpOT0_
FNDA:0,_ZNSt12__shared_ptrIN6rclcpp15QOSEventHandlerISt8functionIFvR35rmw_qos_incompatible_event_status_tEESt10shared_ptrI15rcl_publisher_tEEELN9__gnu_cxx12_Lock_policyE2EEC2ISaISA_EJRKS6_RFiP11rcl_event_tPKS8_26rcl_publisher_event_type_tERS9_RKSM_EEESt20_Sp_alloc_shared_tagIT_EDpOT0_
FN:1343,_ZNSt12__shared_ptrIN6rclcpp15QOSEventHandlerISt8functionIFvR28rmw_liveliness_lost_status_tEESt10shared_ptrI15rcl_publisher_tEEELN9__gnu_cxx12_Lock_policyE2EEC2ISaISA_EJRKS6_RFiP11rcl_event_tPKS8_26rcl_publisher_event_type_tERS9_RKSM_EEESt20_Sp_alloc_shared_tagIT_EDpOT0_
FNDA:0,_ZNSt12__shared_ptrIN6rclcpp15QOSEventHandlerISt8functionIFvR28rmw_liveliness_lost_status_tEESt10shared_ptrI15rcl_publisher_tEEELN9__gnu_cxx12_Lock_policyE2EEC2ISaISA_EJRKS6_RFiP11rcl_event_tPKS8_26rcl_publisher_event_type_tERS9_RKSM_EEESt20_Sp_alloc_shared_tagIT_EDpOT0_
FN:1343,_ZNSt12__shared_ptrIN6rclcpp15QOSEventHandlerISt8functionIFvR36rmw_offered_deadline_missed_status_tEESt10shared_ptrI15rcl_publisher_tEEELN9__gnu_cxx12_Lock_policyE2EEC2ISaISA_EJRKS6_RFiP11rcl_event_tPKS8_26rcl_publisher_event_type_tERS9_RKSM_EEESt20_Sp_alloc_shared_tagIT_EDpOT0_
FNDA:0,_ZNSt12__shared_ptrIN6rclcpp15QOSEventHandlerISt8functionIFvR36rmw_offered_deadline_missed_status_tEESt10shared_ptrI15rcl_publisher_tEEELN9__gnu_cxx12_Lock_policyE2EEC2ISaISA_EJRKS6_RFiP11rcl_event_tPKS8_26rcl_publisher_event_type_tERS9_RKSM_EEESt20_Sp_alloc_shared_tagIT_EDpOT0_
FN:1343,_ZNSt12__shared_ptrIN6rclcpp4NodeELN9__gnu_cxx12_Lock_policyE2EEC2ISaIS1_EJRA18_KcEEESt20_Sp_alloc_shared_tagIT_EDpOT0_
FNDA:1,_ZNSt12__shared_ptrIN6rclcpp4NodeELN9__gnu_cxx12_Lock_policyE2EEC2ISaIS1_EJRA18_KcEEESt20_Sp_alloc_shared_tagIT_EDpOT0_
FN:1343,_ZNSt12__shared_ptrISaIvELN9__gnu_cxx12_Lock_policyE2EEC2ISaIS0_EJEEESt20_Sp_alloc_shared_tagIT_EDpOT0_
FNDA:8,_ZNSt12__shared_ptrISaIvELN9__gnu_cxx12_Lock_policyE2EEC2ISaIS0_EJEEESt20_Sp_alloc_shared_tagIT_EDpOT0_
FN:1343,_ZNSt12__shared_ptrISaIN8std_msgs3msg7String_ISaIvEEEELN9__gnu_cxx12_Lock_policyE2EEC2ISaIS5_EJRS3_EEESt20_Sp_alloc_shared_tagIT_EDpOT0_
FNDA:2,_ZNSt12__shared_ptrISaIN8std_msgs3msg7String_ISaIvEEEELN9__gnu_cxx12_Lock_policyE2EEC2ISaIS5_EJRS3_EEESt20_Sp_alloc_shared_tagIT_EDpOT0_
FN:1354,_ZNSt12__shared_ptrIN6rclcpp12experimental19IntraProcessManagerELN9__gnu_cxx12_Lock_policyE2EEC2ERKSt10__weak_ptrIS2_LS4_2EESt9nothrow_t
FNDA:0,_ZNSt12__shared_ptrIN6rclcpp12experimental19IntraProcessManagerELN9__gnu_cxx12_Lock_policyE2EEC2ERKSt10__weak_ptrIS2_LS4_2EESt9nothrow_t
FN:1380,_ZNSt12__shared_ptrIN6rclcpp9PublisherIN8std_msgs3msg7String_ISaIvEEES5_EELN9__gnu_cxx12_Lock_policyE2EE31_M_enable_shared_from_this_withIS7_S7_EENSt9enable_ifIXsrNSA_15__has_esft_baseIT0_vEE5valueEvE4typeEPT_
FNDA:2,_ZNSt12__shared_ptrIN6rclcpp9PublisherIN8std_msgs3msg7String_ISaIvEEES5_EELN9__gnu_cxx12_Lock_policyE2EE31_M_enable_shared_from_this_withIS7_S7_EENSt9enable_ifIXsrNSA_15__has_esft_baseIT0_vEE5valueEvE4typeEPT_
FN:1380,_ZNSt12__shared_ptrIN6rclcpp4NodeELN9__gnu_cxx12_Lock_policyE2EE31_M_enable_shared_from_this_withIS1_S1_EENSt9enable_ifIXsrNS4_15__has_esft_baseIT0_vEE5valueEvE4typeEPT_
FNDA:4,_ZNSt12__shared_ptrIN6rclcpp4NodeELN9__gnu_cxx12_Lock_policyE2EE31_M_enable_shared_from_this_withIS1_S1_EENSt9enable_ifIXsrNS4_15__has_esft_baseIT0_vEE5valueEvE4typeEPT_
FN:1388,_ZNSt12__shared_ptrIN6rclcpp15QOSEventHandlerIZNS0_9PublisherIN8std_msgs3msg7String_ISaIvEEES6_EC4EPNS0_15node_interfaces17NodeBaseInterfaceERKNSt7__cxx1112basic_stringIcSt11char_traitsIcESaIcEEERKNS0_3QoSERKNS0_29PublisherOptionsWithAllocatorIS6_EEEUlR35rmw_qos_incompatible_event_status_tE_St10shared_ptrI15rcl_publisher_tEEELN9__gnu_cxx12_Lock_policyE2EE31_M_enable_shared_from_this_withISX_SX_EENSt9enable_ifIXntsrNS10_15__has_esft_baseIT0_vEE5valueEvE4typeEPT_
FNDA:0,_ZNSt12__shared_ptrIN6rclcpp15QOSEventHandlerIZNS0_9PublisherIN8std_msgs3msg7String_ISaIvEEES6_EC4EPNS0_15node_interfaces17NodeBaseInterfaceERKNSt7__cxx1112basic_stringIcSt11char_traitsIcESaIcEEERKNS0_3QoSERKNS0_29PublisherOptionsWithAllocatorIS6_EEEUlR35rmw_qos_incompatible_event_status_tE_St10shared_ptrI15rcl_publisher_tEEELN9__gnu_cxx12_Lock_policyE2EE31_M_enable_shared_from_this_withISX_SX_EENSt9enable_ifIXntsrNS10_15__has_esft_baseIT0_vEE5valueEvE4typeEPT_
FN:1388,_ZNSt12__shared_ptrIN6rclcpp12experimental19IntraProcessManagerELN9__gnu_cxx12_Lock_policyE2EE31_M_enable_shared_from_this_withIS2_S2_EENSt9enable_ifIXntsrNS5_15__has_esft_baseIT0_vEE5valueEvE4typeEPT_
FNDA:0,_ZNSt12__shared_ptrIN6rclcpp12experimental19IntraProcessManagerELN9__gnu_cxx12_Lock_policyE2EE31_M_enable_shared_from_this_withIS2_S2_EENSt9enable_ifIXntsrNS5_15__has_esft_baseIT0_vEE5valueEvE4typeEPT_
FN:1388,_ZNSt12__shared_ptrISaIN8std_msgs3msg7String_ISaIvEEEELN9__gnu_cxx12_Lock_policyE2EE31_M_enable_shared_from_this_withIS5_S5_EENSt9enable_ifIXntsrNS8_15__has_esft_baseIT0_vEE5valueEvE4typeEPT_
FNDA:4,_ZNSt12__shared_ptrISaIN8std_msgs3msg7String_ISaIvEEEELN9__gnu_cxx12_Lock_policyE2EE31_M_enable_shared_from_this_withIS5_S5_EENSt9enable_ifIXntsrNS8_15__has_esft_baseIT0_vEE5valueEvE4typeEPT_
FN:1388,_ZNSt12__shared_ptrISaIvELN9__gnu_cxx12_Lock_policyE2EE31_M_enable_shared_from_this_withIS0_S0_EENSt9enable_ifIXntsrNS3_15__has_esft_baseIT0_vEE5valueEvE4typeEPT_
FNDA:8,_ZNSt12__shared_ptrISaIvELN9__gnu_cxx12_Lock_policyE2EE31_M_enable_shared_from_this_withIS0_S0_EENSt9enable_ifIXntsrNS3_15__has_esft_baseIT0_vEE5valueEvE4typeEPT_
FN:1388,_ZNSt12__shared_ptrIN6rclcpp15QOSEventHandlerISt8functionIFvR36rmw_offered_deadline_missed_status_tEESt10shared_ptrI15rcl_publisher_tEEELN9__gnu_cxx12_Lock_policyE2EE31_M_enable_shared_from_this_withISA_SA_EENSt9enable_ifIXntsrNSD_15__has_esft_baseIT0_vEE5valueEvE4typeEPT_
FNDA:0,_ZNSt12__shared_ptrIN6rclcpp15QOSEventHandlerISt8functionIFvR36rmw_offered_deadline_missed_status_tEESt10shared_ptrI15rcl_publisher_tEEELN9__gnu_cxx12_Lock_policyE2EE31_M_enable_shared_from_this_withISA_SA_EENSt9enable_ifIXntsrNSD_15__has_esft_baseIT0_vEE5valueEvE4typeEPT_
FN:1388,_ZNSt12__shared_ptrIN6rclcpp15QOSEventHandlerISt8functionIFvR28rmw_liveliness_lost_status_tEESt10shared_ptrI15rcl_publisher_tEEELN9__gnu_cxx12_Lock_policyE2EE31_M_enable_shared_from_this_withISA_SA_EENSt9enable_ifIXntsrNSD_15__has_esft_baseIT0_vEE5valueEvE4typeEPT_
FNDA:0,_ZNSt12__shared_ptrIN6rclcpp15QOSEventHandlerISt8functionIFvR28rmw_liveliness_lost_status_tEESt10shared_ptrI15rcl_publisher_tEEELN9__gnu_cxx12_Lock_policyE2EE31_M_enable_shared_from_this_withISA_SA_EENSt9enable_ifIXntsrNSD_15__has_esft_baseIT0_vEE5valueEvE4typeEPT_
FN:1388,_ZNSt12__shared_ptrIN8std_msgs3msg7String_ISaIvEEELN9__gnu_cxx12_Lock_policyE2EE31_M_enable_shared_from_this_withIS4_S4_EENSt9enable_ifIXntsrNS7_15__has_esft_baseIT0_vEE5valueEvE4typeEPT_
FNDA:0,_ZNSt12__shared_ptrIN8std_msgs3msg7String_ISaIvEEELN9__gnu_cxx12_Lock_policyE2EE31_M_enable_shared_from_this_withIS4_S4_EENSt9enable_ifIXntsrNS7_15__has_esft_baseIT0_vEE5valueEvE4typeEPT_
FN:1388,_ZNSt12__shared_ptrIN6rclcpp15QOSEventHandlerISt8functionIFvR35rmw_qos_incompatible_event_status_tEESt10shared_ptrI15rcl_publisher_tEEELN9__gnu_cxx12_Lock_policyE2EE31_M_enable_shared_from_this_withISA_SA_EENSt9enable_ifIXntsrNSD_15__has_esft_baseIT0_vEE5valueEvE4typeEPT_
FNDA:0,_ZNSt12__shared_ptrIN6rclcpp15QOSEventHandlerISt8functionIFvR35rmw_qos_incompatible_event_status_tEESt10shared_ptrI15rcl_publisher_tEEELN9__gnu_cxx12_Lock_policyE2EE31_M_enable_shared_from_this_withISA_SA_EENSt9enable_ifIXntsrNSD_15__has_esft_baseIT0_vEE5valueEvE4typeEPT_
FN:1676,_ZNKSt10__weak_ptrIN6rclcpp13PublisherBaseELN9__gnu_cxx12_Lock_policyE2EE9use_countEv
FNDA:4,_ZNKSt10__weak_ptrIN6rclcpp13PublisherBaseELN9__gnu_cxx12_Lock_policyE2EE9use_countEv
FN:1676,_ZNKSt10__weak_ptrIN6rclcpp4NodeELN9__gnu_cxx12_Lock_policyE2EE9use_countEv
FNDA:4,_ZNKSt10__weak_ptrIN6rclcpp4NodeELN9__gnu_cxx12_Lock_policyE2EE9use_countEv
FN:1707,_ZNSt10__weak_ptrIN6rclcpp4NodeELN9__gnu_cxx12_Lock_policyE2EE9_M_assignEPS1_RKSt14__shared_countILS3_2EE
FNDA:4,_ZNSt10__weak_ptrIN6rclcpp4NodeELN9__gnu_cxx12_Lock_policyE2EE9_M_assignEPS1_RKSt14__shared_countILS3_2EE
FN:1707,_ZNSt10__weak_ptrIN6rclcpp13PublisherBaseELN9__gnu_cxx12_Lock_policyE2EE9_M_assignEPS1_RKSt14__shared_countILS3_2EE
FNDA:4,_ZNSt10__weak_ptrIN6rclcpp13PublisherBaseELN9__gnu_cxx12_Lock_policyE2EE9_M_assignEPS1_RKSt14__shared_countILS3_2EE
DA:83,0
DA:84,0
DA:117,30
DA:118,30
DA:121,0
DA:122,0
DA:121,65
DA:122,65
DA:131,0
DA:132,0
DA:138,22
DA:139,22
DA:148,0
DA:152,0
DA:155,0
DA:167,0
DA:168,0
DA:171,0
DA:174,0
DA:177,8
DA:178,8
DA:181,0
DA:185,0
DA:194,0
DA:196,0
DA:199,0
DA:203,0
DA:239,0
DA:243,0
DA:244,0
DA:246,0
DA:247,0
DA:251,0
DA:254,0
DA:283,0
DA:287,0
DA:288,0
DA:290,0
DA:291,0
DA:295,0
DA:298,0
DA:372,2
DA:373,2
DA:376,2
DA:377,2
DA:380,2
DA:381,2
DA:384,0
DA:385,0
DA:414,0
DA:414,2
DA:414,0
DA:414,0
DA:414,0
DA:414,8
DA:414,2
DA:414,0
DA:414,2
DA:414,4
DA:415,0
DA:415,0
DA:418,0
DA:418,0
DA:418,8
DA:418,4
DA:418,0
DA:418,0
DA:418,4
DA:418,56
DA:418,0
DA:418,0
DA:418,0
DA:418,0
DA:446,0
DA:447,0
DA:448,0
DA:446,0
DA:447,0
DA:448,0
DA:450,0
DA:450,0
DA:451,0
DA:451,0
DA:460,0
DA:461,0
DA:464,0
DA:465,0
DA:467,0
DA:467,0
DA:467,0
DA:467,0
DA:470,0
DA:471,0
DA:470,0
DA:471,0
DA:474,0
DA:476,0
DA:477,0
DA:478,0
DA:479,0
DA:474,0
DA:476,0
DA:477,0
DA:478,0
DA:479,0
DA:482,0
DA:487,0
DA:488,0
DA:489,0
DA:482,0
DA:487,0
DA:488,0
DA:489,0
DA:508,0
DA:511,0
DA:531,0
DA:531,2
DA:531,0
DA:531,0
DA:531,0
DA:531,8
DA:531,2
DA:531,2
DA:531,4
DA:533,0
DA:533,8
DA:533,4
DA:533,4
DA:533,56
DA:533,0
DA:533,0
DA:533,0
DA:533,0
DA:543,0
DA:544,0
DA:548,0
DA:550,0
DA:543,2
DA:544,6
DA:548,2
DA:550,0
DA:543,0
DA:544,0
DA:548,0
DA:550,0
DA:543,0
DA:544,0
DA:548,0
DA:550,0
DA:543,0
DA:544,0
DA:548,0
DA:550,0
DA:543,8
DA:544,8
DA:548,8
DA:550,8
DA:543,2
DA:544,2
DA:548,2
DA:550,2
DA:543,2
DA:544,2
DA:548,2
DA:550,2
DA:543,1
DA:544,1
DA:548,1
DA:550,1
DA:552,28
DA:552,0
DA:552,0
DA:552,0
DA:552,0
DA:552,0
DA:552,0
DA:552,0
DA:552,0
DA:552,0
DA:552,0
DA:552,2
DA:552,0
DA:552,2
DA:552,0
DA:552,4
DA:552,0
DA:552,0
DA:555,0
DA:557,0
DA:558,0
DA:555,4
DA:557,4
DA:558,4
DA:555,2
DA:557,2
DA:558,2
DA:555,2
DA:557,2
DA:558,2
DA:555,28
DA:557,28
DA:558,28
DA:555,0
DA:557,0
DA:558,0
DA:555,0
DA:557,0
DA:558,0
DA:555,0
DA:557,0
DA:558,0
DA:555,0
DA:557,0
DA:558,0
DA:562,0
DA:564,0
DA:565,0
DA:566,0
DA:567,0
DA:562,4
DA:564,8
DA:565,8
DA:566,4
DA:567,4
DA:562,2
DA:564,4
DA:565,4
DA:566,2
DA:567,2
DA:562,2
DA:564,4
DA:565,4
DA:566,2
DA:567,2
DA:562,28
DA:564,56
DA:565,56
DA:566,28
DA:567,28
DA:562,0
DA:564,0
DA:565,0
DA:566,0
DA:567,0
DA:562,0
DA:564,0
DA:565,0
DA:566,0
DA:567,0
DA:562,0
DA:564,0
DA:565,0
DA:566,0
DA:567,0
DA:562,0
DA:564,0
DA:565,0
DA:566,0
DA:567,0
DA:575,0
DA:577,0
DA:582,0
DA:583,0
DA:585,0
DA:590,0
DA:591,0
DA:575,0
DA:577,0
DA:582,0
DA:583,0
DA:585,0
DA:590,0
DA:591,0
DA:575,0
DA:577,0
DA:582,0
DA:583,0
DA:585,0
DA:590,0
DA:591,0
DA:575,0
DA:577,0
DA:582,0
DA:583,0
DA:585,0
DA:590,0
DA:591,0
DA:575,0
DA:577,0
DA:582,0
DA:583,0
DA:585,0
DA:590,0
DA:591,0
DA:575,0
DA:577,0
DA:582,0
DA:583,0
DA:585,0
DA:590,0
DA:591,0
DA:575,0
DA:577,0
DA:582,0
DA:583,0
DA:585,0
DA:590,0
DA:591,0
DA:575,0
DA:577,0
DA:582,0
DA:583,0
DA:585,0
DA:590,0
DA:591,0
DA:575,0
DA:577,0
DA:582,0
DA:583,0
DA:585,0
DA:590,0
DA:591,0
DA:594,0
DA:594,2
DA:594,0
DA:594,0
DA:594,0
DA:594,44
DA:594,6
DA:594,6
DA:594,12
DA:616,0
DA:617,0
DA:621,2
DA:625,2
DA:627,0
DA:629,0
DA:630,0
DA:632,2
DA:635,2
DA:636,2
DA:637,2
DA:646,0
DA:647,0
DA:648,0
DA:652,0
DA:657,0
DA:658,0
DA:659,0
DA:660,0
DA:661,0
DA:662,0
DA:664,0
DA:666,0
DA:667,0
DA:669,0
DA:672,0
DA:676,0
DA:677,0
DA:678,0
DA:679,0
DA:680,0
DA:681,0
DA:682,0
DA:683,0
DA:684,0
DA:672,2
DA:676,4
DA:677,4
DA:678,2
DA:679,8
DA:680,2
DA:681,0
DA:682,0
DA:683,0
DA:684,0
DA:672,0
DA:676,0
DA:677,0
DA:678,0
DA:679,0
DA:680,0
DA:681,0
DA:682,0
DA:683,0
DA:684,0
DA:672,0
DA:676,0
DA:677,0
DA:678,0
DA:679,0
DA:680,0
DA:681,0
DA:682,0
DA:683,0
DA:684,0
DA:672,0
DA:676,0
DA:677,0
DA:678,0
DA:679,0
DA:680,0
DA:681,0
DA:682,0
DA:683,0
DA:684,0
DA:672,8
DA:676,16
DA:677,8
DA:678,8
DA:679,8
DA:681,8
DA:682,8
DA:683,8
DA:684,8
DA:672,2
DA:676,4
DA:677,2
DA:678,2
DA:679,4
DA:680,2
DA:681,2
DA:682,2
DA:683,2
DA:684,2
DA:672,2
DA:676,4
DA:677,2
DA:678,2
DA:679,4
DA:680,2
DA:681,2
DA:682,2
DA:683,2
DA:684,2
DA:672,1
DA:676,2
DA:677,1
DA:678,1
DA:679,2
DA:680,1
DA:681,1
DA:682,1
DA:683,1
DA:684,1
DA:699,0
DA:703,0
DA:704,0
DA:714,0
DA:715,0
DA:716,0
DA:718,0
DA:727,0
DA:729,0
DA:730,0
DA:731,0
DA:733,100
DA:734,100
DA:736,100
DA:737,18
DA:738,100
DA:741,4
DA:743,4
DA:744,4
DA:746,4
DA:747,4
DA:748,4
DA:749,0
DA:750,4
DA:752,4
DA:756,20
DA:758,20
DA:759,20
DA:760,20
DA:761,20
DA:764,0
DA:765,0
DA:827,8
DA:829,8
DA:830,8
DA:831,8
DA:832,8
DA:833,0
DA:834,8
DA:835,8
DA:869,8
DA:870,8
DA:894,0
DA:895,0
DA:897,0
DA:898,0
DA:900,0
DA:901,0
DA:906,0
DA:908,0
DA:910,0
DA:911,0
DA:912,0
DA:913,0
DA:1005,0
DA:1008,0
DA:1005,2
DA:1008,2
DA:1012,0
DA:1015,0
DA:1012,0
DA:1015,0
DA:1012,0
DA:1015,0
DA:1012,0
DA:1015,0
DA:1012,2
DA:1015,2
DA:1012,8
DA:1015,8
DA:1012,7
DA:1015,7
DA:1012,0
DA:1015,0
DA:1020,0
DA:1021,0
DA:1020,0
DA:1021,0
DA:1020,0
DA:1021,0
DA:1020,2
DA:1021,2
DA:1020,0
DA:1021,0
DA:1020,0
DA:1021,0
DA:1020,2
DA:1021,2
DA:1020,8
DA:1021,8
DA:1020,7
DA:1021,7
DA:1020,0
DA:1021,0
DA:1080,4
DA:1118,0
DA:1119,0
DA:1120,0
DA:1118,0
DA:1119,0
DA:1120,0
DA:1118,4
DA:1119,4
DA:1120,4
DA:1118,0
DA:1119,0
DA:1120,0
DA:1118,4
DA:1119,4
DA:1120,4
DA:1118,4
DA:1119,4
DA:1120,4
DA:1118,0
DA:1119,0
DA:1120,0
DA:1118,4
DA:1119,4
DA:1120,4
DA:1118,5
DA:1119,5
DA:1120,5
DA:1124,2
DA:1125,2
DA:1129,2
DA:1130,2
DA:1133,0
DA:1134,0
DA:1138,0
DA:1139,0
DA:1162,0
DA:1164,0
DA:1165,0
DA:1162,0
DA:1164,0
DA:1165,0
DA:1162,2
DA:1164,2
DA:1165,2
DA:1167,0
DA:1167,0
DA:1167,0
DA:1167,4
DA:1167,0
DA:1167,12
DA:1167,17
DA:1167,38
DA:1167,4
DA:1169,0
DA:1169,0
DA:1169,38
DA:1169,21
DA:1169,0
DA:1169,4
DA:1169,0
DA:1169,14
DA:1169,34
DA:1169,6
DA:1169,8
DA:1169,0
DA:1169,4
DA:1169,0
DA:1169,0
DA:1169,0
DA:1169,0
DA:1169,0
DA:1169,8
DA:1169,0
DA:1169,0
DA:1169,0
DA:1172,0
DA:1173,0
DA:1174,0
DA:1172,0
DA:1173,0
DA:1174,0
DA:1172,0
DA:1173,0
DA:1174,0
DA:1172,0
DA:1173,0
DA:1174,0
DA:1172,0
DA:1173,0
DA:1174,0
DA:1176,0
DA:1177,0
DA:1179,0
DA:1180,0
DA:1181,0
DA:1176,0
DA:1177,0
DA:1179,0
DA:1180,0
DA:1181,0
DA:1176,0
DA:1177,0
DA:1179,0
DA:1180,0
DA:1181,0
DA:1176,2
DA:1177,2
DA:1179,2
DA:1180,2
DA:1181,2
DA:1176,4
DA:1177,4
DA:1179,4
DA:1180,4
DA:1181,4
DA:1184,0
DA:1185,0
DA:1187,0
DA:1188,0
DA:1189,0
DA:1184,2
DA:1185,2
DA:1187,2
DA:1188,2
DA:1189,2
DA:1192,0
DA:1193,0
DA:1197,0
DA:1198,0
DA:1203,0
DA:1204,0
DA:1206,0
DA:1207,0
DA:1208,0
DA:1209,0
DA:1242,0
DA:1244,0
DA:1245,0
DA:1246,0
DA:1263,0
DA:1265,0
DA:1266,0
DA:1263,4
DA:1265,4
DA:1266,4
DA:1309,0
DA:1310,0
DA:1309,0
DA:1310,0
DA:1309,0
DA:1310,0
DA:1309,4
DA:1310,4
DA:1309,0
DA:1310,0
DA:1309,4
DA:1310,4
DA:1309,8
DA:1310,8
DA:1309,0
DA:1310,0
DA:1309,0
DA:1310,0
DA:1309,0
DA:1310,0
DA:1309,2
DA:1310,2
DA:1309,8
DA:1310,8
DA:1309,4
DA:1310,4
DA:1309,7
DA:1310,7
DA:1309,0
DA:1310,0
DA:1312,0
DA:1313,0
DA:1312,0
DA:1313,0
DA:1312,8
DA:1313,8
DA:1312,4
DA:1313,4
DA:1312,0
DA:1313,0
DA:1324,0
DA:1326,0
DA:1327,0
DA:1328,0
DA:1324,4
DA:1326,4
DA:1327,4
DA:1328,4
DA:1343,0
DA:1344,0
DA:1345,0
DA:1343,2
DA:1344,2
DA:1345,0
DA:1343,0
DA:1344,0
DA:1345,0
DA:1343,0
DA:1344,0
DA:1345,0
DA:1343,0
DA:1344,0
DA:1345,0
DA:1343,8
DA:1344,8
DA:1345,8
DA:1343,2
DA:1344,2
DA:1345,2
DA:1343,2
DA:1344,2
DA:1345,2
DA:1343,1
DA:1344,1
DA:1345,1
DA:1354,0
DA:1355,0
DA:1357,0
DA:1358,0
DA:1380,2
DA:1382,2
DA:1383,2
DA:1384,2
DA:1380,4
DA:1382,4
DA:1383,4
DA:1384,4
DA:1388,0
DA:1389,0
DA:1388,0
DA:1389,0
DA:1388,0
DA:1389,0
DA:1388,0
DA:1389,0
DA:1388,0
DA:1389,0
DA:1388,8
DA:1389,8
DA:1388,4
DA:1389,4
DA:1388,0
DA:1389,0
DA:1676,4
DA:1677,4
DA:1676,4
DA:1677,4
DA:1707,4
DA:1709,4
DA:1711,4
DA:1712,4
DA:1714,4
DA:1707,4
DA:1709,4
DA:1711,4
DA:1712,4
DA:1714,4
end_of_record
SF:/opt/ros/foxy/include/rclcpp/node_options.hpp
FN:64,_ZN6rclcpp11NodeOptionsD0Ev
FNDA:0,_ZN6rclcpp11NodeOptionsD0Ev
FN:64,_ZN6rclcpp11NodeOptionsD2Ev
FNDA:5,_ZN6rclcpp11NodeOptionsD2Ev
DA:64,0
DA:64,5
end_of_record
SF:/usr/include/c++/9/bits/stl_uninitialized.h
FN:99,_ZNSt20__uninitialized_copyILb1EE13__uninit_copyISt13move_iteratorIPmES3_EET0_T_S6_S5_
FNDA:0,_ZNSt20__uninitialized_copyILb1EE13__uninit_copyISt13move_iteratorIPmES3_EET0_T_S6_S5_
FN:99,_ZNSt20__uninitialized_copyILb1EE13__uninit_copyIN9__gnu_cxx17__normal_iteratorIPKmSt6vectorImSaImEEEEPmEET0_T_SC_SB_
FNDA:0,_ZNSt20__uninitialized_copyILb1EE13__uninit_copyIN9__gnu_cxx17__normal_iteratorIPKmSt6vectorImSaImEEEEPmEET0_T_SC_SB_
FN:115,_ZSt18uninitialized_copyISt13move_iteratorIPmES1_ET0_T_S4_S3_
FNDA:0,_ZSt18uninitialized_copyISt13move_iteratorIPmES1_ET0_T_S4_S3_
FN:115,_ZSt18uninitialized_copyIN9__gnu_cxx17__normal_iteratorIPKmSt6vectorImSaImEEEEPmET0_T_SA_S9_
FNDA:0,_ZSt18uninitialized_copyIN9__gnu_cxx17__normal_iteratorIPKmSt6vectorImSaImEEEEPmET0_T_SA_S9_
FN:305,_ZSt22__uninitialized_copy_aISt13move_iteratorIPmES1_mET0_T_S4_S3_RSaIT1_E
FNDA:0,_ZSt22__uninitialized_copy_aISt13move_iteratorIPmES1_mET0_T_S4_S3_RSaIT1_E
FN:305,_ZSt22__uninitialized_copy_aIN9__gnu_cxx17__normal_iteratorIPKmSt6vectorImSaImEEEEPmmET0_T_SA_S9_RSaIT1_E
FNDA:0,_ZSt22__uninitialized_copy_aIN9__gnu_cxx17__normal_iteratorIPKmSt6vectorImSaImEEEEPmmET0_T_SA_S9_RSaIT1_E
FN:312,_ZSt22__uninitialized_move_aIPmS0_SaImEET0_T_S3_S2_RT1_
FNDA:0,_ZSt22__uninitialized_move_aIPmS0_SaImEET0_T_S3_S2_RT1_
FN:323,_ZSt34__uninitialized_move_if_noexcept_aIPmS0_SaImEET0_T_S3_S2_RT1_
FNDA:0,_ZSt34__uninitialized_move_if_noexcept_aIPmS0_SaImEET0_T_S3_S2_RT1_
FN:905,_ZSt19__relocate_object_aISt10shared_ptrIN6rclcpp19QOSEventHandlerBaseEES3_SaIS3_EEvPT_PT0_RT1_
FNDA:0,_ZSt19__relocate_object_aISt10shared_ptrIN6rclcpp19QOSEventHandlerBaseEES3_SaIS3_EEvPT_PT0_RT1_
FN:936,_ZSt14__relocate_a_1IPSt10shared_ptrIN6rclcpp19QOSEventHandlerBaseEES4_SaIS3_EET0_T_S7_S6_RT1_
FNDA:0,_ZSt14__relocate_a_1IPSt10shared_ptrIN6rclcpp19QOSEventHandlerBaseEES4_SaIS3_EET0_T_S7_S6_RT1_
FN:958,_ZSt12__relocate_aIPSt10shared_ptrIN6rclcpp19QOSEventHandlerBaseEES4_SaIS3_EET0_T_S7_S6_RT1_
FNDA:0,_ZSt12__relocate_aIPSt10shared_ptrIN6rclcpp19QOSEventHandlerBaseEES4_SaIS3_EET0_T_S7_S6_RT1_
DA:99,0
DA:101,0
DA:99,0
DA:101,0
DA:115,0
DA:134,0
DA:140,0
DA:115,0
DA:134,0
DA:140,0
DA:305,0
DA:307,0
DA:305,0
DA:307,0
DA:312,0
DA:315,0
DA:317,0
DA:323,0
DA:329,0
DA:330,0
DA:905,0
DA:912,0
DA:913,0
DA:914,0
DA:936,0
DA:948,0
DA:949,0
DA:950,0
DA:952,0
DA:958,0
DA:964,0
DA:966,0
end_of_record
SF:/usr/include/c++/9/tuple
FN:79,_ZNSt10_Head_baseILm1ESt14default_deleteIN8std_msgs3msg7String_ISaIvEEEELb1EEC2ERKS6_
FNDA:0,_ZNSt10_Head_baseILm1ESt14default_deleteIN8std_msgs3msg7String_ISaIvEEEELb1EEC2ERKS6_
FN:86,_ZNSt10_Head_baseILm1ESt14default_deleteIN8std_msgs3msg7String_ISaIvEEEELb1EEC2IS6_EEOT_
FNDA:0,_ZNSt10_Head_baseILm1ESt14default_deleteIN8std_msgs3msg7String_ISaIvEEEELb1EEC2IS6_EEOT_
FN:113,_ZNSt10_Head_baseILm1ESt14default_deleteINSt7__cxx1112basic_stringIcSt11char_traitsIcESaIcEEEELb1EE7_M_headERS8_
FNDA:0,_ZNSt10_Head_baseILm1ESt14default_deleteINSt7__cxx1112basic_stringIcSt11char_traitsIcESaIcEEEELb1EE7_M_headERS8_
FN:113,_ZNSt10_Head_baseILm1ESt14default_deleteINSt7__cxx1118basic_stringstreamIcSt11char_traitsIcESaIcEEEELb1EE7_M_headERS8_
FNDA:111,_ZNSt10_Head_baseILm1ESt14default_deleteINSt7__cxx1118basic_stringstreamIcSt11char_traitsIcESaIcEEEELb1EE7_M_headERS8_
FN:113,_ZNSt10_Head_baseILm1ESt14default_deleteIN8std_msgs3msg7String_ISaIvEEEELb1EE7_M_headERS7_
FNDA:0,_ZNSt10_Head_baseILm1ESt14default_deleteIN8std_msgs3msg7String_ISaIvEEEELb1EE7_M_headERS7_
FN:125,_ZNSt10_Head_baseILm0ERKSt10type_indexLb0EEC2ES2_
FNDA:0,_ZNSt10_Head_baseILm0ERKSt10type_indexLb0EEC2ES2_
FN:132,_ZNSt10_Head_baseILm0EPN8std_msgs3msg7String_ISaIvEEELb0EEC2IRS5_EEOT_
FNDA:0,_ZNSt10_Head_baseILm0EPN8std_msgs3msg7String_ISaIvEEELb0EEC2IRS5_EEOT_
FN:160,_ZNSt10_Head_baseILm1EPFvP18rcl_node_options_tELb0EE7_M_headERS4_
FNDA:5,_ZNSt10_Head_baseILm1EPFvP18rcl_node_options_tELb0EE7_M_headERS4_
FN:160,_ZNSt10_Head_baseILm0EPN8std_msgs3msg7String_ISaIvEEELb0EE7_M_headERS6_
FNDA:0,_ZNSt10_Head_baseILm0EPN8std_msgs3msg7String_ISaIvEEELb0EE7_M_headERS6_
FN:160,_ZNSt10_Head_baseILm0EPNSt7__cxx1118basic_stringstreamIcSt11char_traitsIcESaIcEEELb0EE7_M_headERS7_
FNDA:222,_ZNSt10_Head_baseILm0EPNSt7__cxx1118basic_stringstreamIcSt11char_traitsIcESaIcEEELb0EE7_M_headERS7_
FN:160,_ZNSt10_Head_baseILm0EPNSt7__cxx1112basic_stringIcSt11char_traitsIcESaIcEEELb0EE7_M_headERS7_
FNDA:3,_ZNSt10_Head_baseILm0EPNSt7__cxx1112basic_stringIcSt11char_traitsIcESaIcEEELb0EE7_M_headERS7_
FN:160,_ZNSt10_Head_baseILm0EP18rcl_node_options_tLb0EE7_M_headERS2_
FNDA:5,_ZNSt10_Head_baseILm0EP18rcl_node_options_tLb0EE7_M_headERS2_
FN:160,_ZNSt10_Head_baseILm0ERKSt10type_indexLb0EE7_M_headERS3_
FNDA:0,_ZNSt10_Head_baseILm0ERKSt10type_indexLb0EE7_M_headERS3_
FN:163,_ZNSt10_Head_baseILm0EPN8std_msgs3msg7String_ISaIvEEELb0EE7_M_headERKS6_
FNDA:0,_ZNSt10_Head_baseILm0EPN8std_msgs3msg7String_ISaIvEEELb0EE7_M_headERKS6_
FN:163,_ZNSt10_Head_baseILm0EPN6rclcpp12experimental7buffers18IntraProcessBufferIN8std_msgs3msg7String_ISaIvEEES7_St14default_deleteIS8_EEELb0EE7_M_headERKSD_
FNDA:0,_ZNSt10_Head_baseILm0EPN6rclcpp12experimental7buffers18IntraProcessBufferIN8std_msgs3msg7String_ISaIvEEES7_St14default_deleteIS8_EEELb0EE7_M_headERKSD_
FN:163,_ZNSt10_Head_baseILm0EPNSt7__cxx1112basic_stringIcSt11char_traitsIcESaIcEEELb0EE7_M_headERKS7_
FNDA:0,_ZNSt10_Head_baseILm0EPNSt7__cxx1112basic_stringIcSt11char_traitsIcESaIcEEELb0EE7_M_headERKS7_
FN:195,_ZNSt11_Tuple_implILm0EJPNSt7__cxx1118basic_stringstreamIcSt11char_traitsIcESaIcEEESt14default_deleteIS5_EEE7_M_headERS9_
FNDA:222,_ZNSt11_Tuple_implILm0EJPNSt7__cxx1118basic_stringstreamIcSt11char_traitsIcESaIcEEESt14default_deleteIS5_EEE7_M_headERS9_
FN:195,_ZNSt11_Tuple_implILm0EJP18rcl_node_options_tPFvS1_EEE7_M_headERS4_
FNDA:5,_ZNSt11_Tuple_implILm0EJP18rcl_node_options_tPFvS1_EEE7_M_headERS4_
FN:195,_ZNSt11_Tuple_implILm0EJPN8std_msgs3msg7String_ISaIvEEESt14default_deleteIS4_EEE7_M_headERS8_
FNDA:0,_ZNSt11_Tuple_implILm0EJPN8std_msgs3msg7String_ISaIvEEESt14default_deleteIS4_EEE7_M_headERS8_
FN:195,_ZNSt11_Tuple_implILm0EJPNSt7__cxx1112basic_stringIcSt11char_traitsIcESaIcEEESt14default_deleteIS5_EEE7_M_headERS9_
FNDA:3,_ZNSt11_Tuple_implILm0EJPNSt7__cxx1112basic_stringIcSt11char_traitsIcESaIcEEESt14default_deleteIS5_EEE7_M_headERS9_
FN:198,_ZNSt11_Tuple_implILm0EJPNSt7__cxx1112basic_stringIcSt11char_traitsIcESaIcEEESt14default_deleteIS5_EEE7_M_headERKS9_
FNDA:0,_ZNSt11_Tuple_implILm0EJPNSt7__cxx1112basic_stringIcSt11char_traitsIcESaIcEEESt14default_deleteIS5_EEE7_M_headERKS9_
FN:198,_ZNSt11_Tuple_implILm0EJPN6rclcpp12experimental7buffers18IntraProcessBufferIN8std_msgs3msg7String_ISaIvEEES7_St14default_deleteIS8_EEES9_ISB_EEE7_M_headERKSE_
FNDA:0,_ZNSt11_Tuple_implILm0EJPN6rclcpp12experimental7buffers18IntraProcessBufferIN8std_msgs3msg7String_ISaIvEEES7_St14default_deleteIS8_EEES9_ISB_EEE7_M_headERKSE_
FN:198,_ZNSt11_Tuple_implILm0EJPN8std_msgs3msg7String_ISaIvEEESt14default_deleteIS4_EEE7_M_headERKS8_
FNDA:0,_ZNSt11_Tuple_implILm0EJPN8std_msgs3msg7String_ISaIvEEESt14default_deleteIS4_EEE7_M_headERKS8_
FN:216,_ZNSt11_Tuple_implILm0EJPN8std_msgs3msg7String_ISaIvEEESt14default_deleteIS4_EEEC2IRS5_JRKS7_EvEEOT_DpOT0_
FNDA:0,_ZNSt11_Tuple_implILm0EJPN8std_msgs3msg7String_ISaIvEEESt14default_deleteIS4_EEEC2IRS5_JRKS7_EvEEOT_DpOT0_
FN:216,_ZNSt11_Tuple_implILm0EJPN8std_msgs3msg7String_ISaIvEEESt14default_deleteIS4_EEEC2IRS5_JS7_EvEEOT_DpOT0_
FNDA:0,_ZNSt11_Tuple_implILm0EJPN8std_msgs3msg7String_ISaIvEEESt14default_deleteIS4_EEEC2IRS5_JS7_EvEEOT_DpOT0_
FN:334,_ZNSt11_Tuple_implILm1EJSt14default_deleteIN8std_msgs3msg7String_ISaIvEEEEEE7_M_headERS7_
FNDA:0,_ZNSt11_Tuple_implILm1EJSt14default_deleteIN8std_msgs3msg7String_ISaIvEEEEEE7_M_headERS7_
FN:334,_ZNSt11_Tuple_implILm1EJSt14default_deleteINSt7__cxx1118basic_stringstreamIcSt11char_traitsIcESaIcEEEEEE7_M_headERS8_
FNDA:111,_ZNSt11_Tuple_implILm1EJSt14default_deleteINSt7__cxx1118basic_stringstreamIcSt11char_traitsIcESaIcEEEEEE7_M_headERS8_
FN:334,_ZNSt11_Tuple_implILm0EJRKSt10type_indexEE7_M_headERS3_
FNDA:0,_ZNSt11_Tuple_implILm0EJRKSt10type_indexEE7_M_headERS3_
FN:334,_ZNSt11_Tuple_implILm1EJPFvP18rcl_node_options_tEEE7_M_headERS4_
FNDA:5,_ZNSt11_Tuple_implILm1EJPFvP18rcl_node_options_tEEE7_M_headERS4_
FN:334,_ZNSt11_Tuple_implILm1EJSt14default_deleteINSt7__cxx1112basic_stringIcSt11char_traitsIcESaIcEEEEEE7_M_headERS8_
FNDA:0,_ZNSt11_Tuple_implILm1EJSt14default_deleteINSt7__cxx1112basic_stringIcSt11char_traitsIcESaIcEEEEEE7_M_headERS8_
FN:343,_ZNSt11_Tuple_implILm0EJRKSt10type_indexEEC2ES2_
FNDA:0,_ZNSt11_Tuple_implILm0EJRKSt10type_indexEEC2ES2_
FN:343,_ZNSt11_Tuple_implILm1EJSt14default_deleteIN8std_msgs3msg7String_ISaIvEEEEEEC2ERKS6_
FNDA:0,_ZNSt11_Tuple_implILm1EJSt14default_deleteIN8std_msgs3msg7String_ISaIvEEEEEEC2ERKS6_
FN:348,_ZNSt11_Tuple_implILm1EJSt14default_deleteIN8std_msgs3msg7String_ISaIvEEEEEEC2IS6_EEOT_
FNDA:0,_ZNSt11_Tuple_implILm1EJSt14default_deleteIN8std_msgs3msg7String_ISaIvEEEEEEC2IS6_EEOT_
FN:358,_ZNSt11_Tuple_implILm0EJRKSt10type_indexEEC2EOS3_
FNDA:0,_ZNSt11_Tuple_implILm0EJRKSt10type_indexEEC2EOS3_
FN:588,_ZNSt5tupleIJRKSt10type_indexEEC2IvLb1EEES2_
FNDA:0,_ZNSt5tupleIJRKSt10type_indexEEC2IvLb1EEES2_
FN:642,_ZNSt5tupleIJRKSt10type_indexEEC2EOS3_
FNDA:0,_ZNSt5tupleIJRKSt10type_indexEEC2EOS3_
FN:968,_ZNSt5tupleIJPN8std_msgs3msg7String_ISaIvEEESt14default_deleteIS4_EEEC2IRS5_S7_Lb1EEEOT_OT0_
FNDA:0,_ZNSt5tupleIJPN8std_msgs3msg7String_ISaIvEEESt14default_deleteIS4_EEEC2IRS5_S7_Lb1EEEOT_OT0_
FN:968,_ZNSt5tupleIJPN8std_msgs3msg7String_ISaIvEEESt14default_deleteIS4_EEEC2IRS5_RKS7_Lb1EEEOT_OT0_
FNDA:0,_ZNSt5tupleIJPN8std_msgs3msg7String_ISaIvEEESt14default_deleteIS4_EEEC2IRS5_RKS7_Lb1EEEOT_OT0_
FN:1309,_ZSt12__get_helperILm1ESt14default_deleteIN8std_msgs3msg7String_ISaIvEEEEJEERT0_RSt11_Tuple_implIXT_EJS7_DpT1_EE
FNDA:0,_ZSt12__get_helperILm1ESt14default_deleteIN8std_msgs3msg7String_ISaIvEEEEJEERT0_RSt11_Tuple_implIXT_EJS7_DpT1_EE
FN:1309,_ZSt12__get_helperILm1ESt14default_deleteINSt7__cxx1112basic_stringIcSt11char_traitsIcESaIcEEEEJEERT0_RSt11_Tuple_implIXT_EJS8_DpT1_EE
FNDA:0,_ZSt12__get_helperILm1ESt14default_deleteINSt7__cxx1112basic_stringIcSt11char_traitsIcESaIcEEEEJEERT0_RSt11_Tuple_implIXT_EJS8_DpT1_EE
FN:1309,_ZSt12__get_helperILm0EPN8std_msgs3msg7String_ISaIvEEEJSt14default_deleteIS4_EEERT0_RSt11_Tuple_implIXT_EJS8_DpT1_EE
FNDA:0,_ZSt12__get_helperILm0EPN8std_msgs3msg7String_ISaIvEEEJSt14default_deleteIS4_EEERT0_RSt11_Tuple_implIXT_EJS8_DpT1_EE
FN:1309,_ZSt12__get_helperILm1ESt14default_deleteINSt7__cxx1118basic_stringstreamIcSt11char_traitsIcESaIcEEEEJEERT0_RSt11_Tuple_implIXT_EJS8_DpT1_EE
FNDA:111,_ZSt12__get_helperILm1ESt14default_deleteINSt7__cxx1118basic_stringstreamIcSt11char_traitsIcESaIcEEEEJEERT0_RSt11_Tuple_implIXT_EJS8_DpT1_EE
FN:1309,_ZSt12__get_helperILm1EPFvP18rcl_node_options_tEJEERT0_RSt11_Tuple_implIXT_EJS4_DpT1_EE
FNDA:5,_ZSt12__get_helperILm1EPFvP18rcl_node_options_tEJEERT0_RSt11_Tuple_implIXT_EJS4_DpT1_EE
FN:1309,_ZSt12__get_helperILm0ERKSt10type_indexJEERT0_RSt11_Tuple_implIXT_EJS3_DpT1_EE
FNDA:0,_ZSt12__get_helperILm0ERKSt10type_indexJEERT0_RSt11_Tuple_implIXT_EJS3_DpT1_EE
FN:1309,_ZSt12__get_helperILm0EPNSt7__cxx1112basic_stringIcSt11char_traitsIcESaIcEEEJSt14default_deleteIS5_EEERT0_RSt11_Tuple_implIXT_EJS9_DpT1_EE
FNDA:3,_ZSt12__get_helperILm0EPNSt7__cxx1112basic_stringIcSt11char_traitsIcESaIcEEEJSt14default_deleteIS5_EEERT0_RSt11_Tuple_implIXT_EJS9_DpT1_EE
FN:1309,_ZSt12__get_helperILm0EP18rcl_node_options_tJPFvS1_EEERT0_RSt11_Tuple_implIXT_EJS4_DpT1_EE
FNDA:5,_ZSt12__get_helperILm0EP18rcl_node_options_tJPFvS1_EEERT0_RSt11_Tuple_implIXT_EJS4_DpT1_EE
FN:1309,_ZSt12__get_helperILm0EPNSt7__cxx1118basic_stringstreamIcSt11char_traitsIcESaIcEEEJSt14default_deleteIS5_EEERT0_RSt11_Tuple_implIXT_EJS9_DpT1_EE
FNDA:222,_ZSt12__get_helperILm0EPNSt7__cxx1118basic_stringstreamIcSt11char_traitsIcESaIcEEEJSt14default_deleteIS5_EEERT0_RSt11_Tuple_implIXT_EJS9_DpT1_EE
FN:1314,_ZSt12__get_helperILm0EPN8std_msgs3msg7String_ISaIvEEEJSt14default_deleteIS4_EEERKT0_RKSt11_Tuple_implIXT_EJS8_DpT1_EE
FNDA:0,_ZSt12__get_helperILm0EPN8std_msgs3msg7String_ISaIvEEEJSt14default_deleteIS4_EEERKT0_RKSt11_Tuple_implIXT_EJS8_DpT1_EE
FN:1314,_ZSt12__get_helperILm0EPNSt7__cxx1112basic_stringIcSt11char_traitsIcESaIcEEEJSt14default_deleteIS5_EEERKT0_RKSt11_Tuple_implIXT_EJS9_DpT1_EE
FNDA:0,_ZSt12__get_helperILm0EPNSt7__cxx1112basic_stringIcSt11char_traitsIcESaIcEEEJSt14default_deleteIS5_EEERKT0_RKSt11_Tuple_implIXT_EJS9_DpT1_EE
FN:1314,_ZSt12__get_helperILm0EPN6rclcpp12experimental7buffers18IntraProcessBufferIN8std_msgs3msg7String_ISaIvEEES7_St14default_deleteIS8_EEEJS9_ISB_EEERKT0_RKSt11_Tuple_implIXT_EJSE_DpT1_EE
FNDA:0,_ZSt12__get_helperILm0EPN6rclcpp12experimental7buffers18IntraProcessBufferIN8std_msgs3msg7String_ISaIvEEES7_St14default_deleteIS8_EEEJS9_ISB_EEERKT0_RKSt11_Tuple_implIXT_EJSE_DpT1_EE
FN:1320,_ZSt3getILm1EJPNSt7__cxx1112basic_stringIcSt11char_traitsIcESaIcEEESt14default_deleteIS5_EEERNSt13tuple_elementIXT_ESt5tupleIJDpT0_EEE4typeERSD_
FNDA:0,_ZSt3getILm1EJPNSt7__cxx1112basic_stringIcSt11char_traitsIcESaIcEEESt14default_deleteIS5_EEERNSt13tuple_elementIXT_ESt5tupleIJDpT0_EEE4typeERSD_
FN:1320,_ZSt3getILm1EJPNSt7__cxx1118basic_stringstreamIcSt11char_traitsIcESaIcEEESt14default_deleteIS5_EEERNSt13tuple_elementIXT_ESt5tupleIJDpT0_EEE4typeERSD_
FNDA:111,_ZSt3getILm1EJPNSt7__cxx1118basic_stringstreamIcSt11char_traitsIcESaIcEEESt14default_deleteIS5_EEERNSt13tuple_elementIXT_ESt5tupleIJDpT0_EEE4typeERSD_
FN:1320,_ZSt3getILm0EJPNSt7__cxx1112basic_stringIcSt11char_traitsIcESaIcEEESt14default_deleteIS5_EEERNSt13tuple_elementIXT_ESt5tupleIJDpT0_EEE4typeERSD_
FNDA:3,_ZSt3getILm0EJPNSt7__cxx1112basic_stringIcSt11char_traitsIcESaIcEEESt14default_deleteIS5_EEERNSt13tuple_elementIXT_ESt5tupleIJDpT0_EEE4typeERSD_
FN:1320,_ZSt3getILm0EJPNSt7__cxx1118basic_stringstreamIcSt11char_traitsIcESaIcEEESt14default_deleteIS5_EEERNSt13tuple_elementIXT_ESt5tupleIJDpT0_EEE4typeERSD_
FNDA:222,_ZSt3getILm0EJPNSt7__cxx1118basic_stringstreamIcSt11char_traitsIcESaIcEEESt14default_deleteIS5_EEERNSt13tuple_elementIXT_ESt5tupleIJDpT0_EEE4typeERSD_
FN:1320,_ZSt3getILm0EJRKSt10type_indexEERNSt13tuple_elementIXT_ESt5tupleIJDpT0_EEE4typeERS7_
FNDA:0,_ZSt3getILm0EJRKSt10type_indexEERNSt13tuple_elementIXT_ESt5tupleIJDpT0_EEE4typeERS7_
FN:1320,_ZSt3getILm0EJP18rcl_node_options_tPFvS1_EEERNSt13tuple_elementIXT_ESt5tupleIJDpT0_EEE4typeERS8_
FNDA:5,_ZSt3getILm0EJP18rcl_node_options_tPFvS1_EEERNSt13tuple_elementIXT_ESt5tupleIJDpT0_EEE4typeERS8_
FN:1320,_ZSt3getILm0EJPN8std_msgs3msg7String_ISaIvEEESt14default_deleteIS4_EEERNSt13tuple_elementIXT_ESt5tupleIJDpT0_EEE4typeERSC_
FNDA:0,_ZSt3getILm0EJPN8std_msgs3msg7String_ISaIvEEESt14default_deleteIS4_EEERNSt13tuple_elementIXT_ESt5tupleIJDpT0_EEE4typeERSC_
FN:1320,_ZSt3getILm1EJP18rcl_node_options_tPFvS1_EEERNSt13tuple_elementIXT_ESt5tupleIJDpT0_EEE4typeERS8_
FNDA:5,_ZSt3getILm1EJP18rcl_node_options_tPFvS1_EEERNSt13tuple_elementIXT_ESt5tupleIJDpT0_EEE4typeERS8_
FN:1320,_ZSt3getILm1EJPN8std_msgs3msg7String_ISaIvEEESt14default_deleteIS4_EEERNSt13tuple_elementIXT_ESt5tupleIJDpT0_EEE4typeERSC_
FNDA:0,_ZSt3getILm1EJPN8std_msgs3msg7String_ISaIvEEESt14default_deleteIS4_EEERNSt13tuple_elementIXT_ESt5tupleIJDpT0_EEE4typeERSC_
FN:1326,_ZSt3getILm0EJPN8std_msgs3msg7String_ISaIvEEESt14default_deleteIS4_EEERKNSt13tuple_elementIXT_ESt5tupleIJDpT0_EEE4typeERKSC_
FNDA:0,_ZSt3getILm0EJPN8std_msgs3msg7String_ISaIvEEESt14default_deleteIS4_EEERKNSt13tuple_elementIXT_ESt5tupleIJDpT0_EEE4typeERKSC_
FN:1326,_ZSt3getILm0EJPNSt7__cxx1112basic_stringIcSt11char_traitsIcESaIcEEESt14default_deleteIS5_EEERKNSt13tuple_elementIXT_ESt5tupleIJDpT0_EEE4typeERKSD_
FNDA:0,_ZSt3getILm0EJPNSt7__cxx1112basic_stringIcSt11char_traitsIcESaIcEEESt14default_deleteIS5_EEERKNSt13tuple_elementIXT_ESt5tupleIJDpT0_EEE4typeERKSD_
FN:1326,_ZSt3getILm0EJPN6rclcpp12experimental7buffers18IntraProcessBufferIN8std_msgs3msg7String_ISaIvEEES7_St14default_deleteIS8_EEES9_ISB_EEERKNSt13tuple_elementIXT_ESt5tupleIJDpT0_EEE4typeERKSI_
FNDA:0,_ZSt3getILm0EJPN6rclcpp12experimental7buffers18IntraProcessBufferIN8std_msgs3msg7String_ISaIvEEES7_St14default_deleteIS8_EEES9_ISB_EEERKNSt13tuple_elementIXT_ESt5tupleIJDpT0_EEE4typeERKSI_
FN:1658,_ZNSt4pairIKSt10type_indexSt10shared_ptrIvEEC2IJRS1_EJEEESt21piecewise_construct_tSt5tupleIJDpT_EES8_IJDpT0_EE
FNDA:0,_ZNSt4pairIKSt10type_indexSt10shared_ptrIvEEC2IJRS1_EJEEESt21piecewise_construct_tSt5tupleIJDpT_EES8_IJDpT0_EE
FN:1670,_ZNSt4pairIKSt10type_indexSt10shared_ptrIvEEC2IJRS1_EJLm0EEJEJEEERSt5tupleIJDpT_EERS7_IJDpT1_EESt12_Index_tupleIJXspT0_EEESG_IJXspT2_EEE
FNDA:0,_ZNSt4pairIKSt10type_indexSt10shared_ptrIvEEC2IJRS1_EJLm0EEJEJEEERSt5tupleIJDpT_EERS7_IJDpT1_EESt12_Index_tupleIJXspT0_EEESG_IJXspT2_EEE
DA:79,0
DA:80,0
DA:86,0
DA:87,0
DA:113,0
DA:113,0
DA:113,111
DA:125,0
DA:126,0
DA:132,0
DA:133,0
DA:160,5
DA:160,0
DA:160,5
DA:160,0
DA:160,3
DA:160,222
DA:163,0
DA:163,0
DA:163,0
DA:195,0
DA:195,5
DA:195,3
DA:195,222
DA:198,0
DA:198,0
DA:198,0
DA:216,0
DA:218,0
DA:216,0
DA:218,0
DA:334,0
DA:334,5
DA:334,0
DA:334,0
DA:334,111
DA:343,0
DA:344,0
DA:343,0
DA:344,0
DA:348,0
DA:349,0
DA:358,0
DA:360,0
DA:588,0
DA:589,0
DA:642,0
DA:968,0
DA:969,0
DA:968,0
DA:969,0
DA:1309,0
DA:1310,0
DA:1309,5
DA:1310,5
DA:1309,0
DA:1310,0
DA:1309,5
DA:1310,5
DA:1309,0
DA:1310,0
DA:1309,0
DA:1310,0
DA:1309,111
DA:1310,111
DA:1309,3
DA:1310,3
DA:1309,222
DA:1310,222
DA:1314,0
DA:1315,0
DA:1314,0
DA:1315,0
DA:1314,0
DA:1315,0
DA:1320,0
DA:1321,0
DA:1320,5
DA:1321,5
DA:1320,0
DA:1321,0
DA:1320,5
DA:1321,5
DA:1320,0
DA:1321,0
DA:1320,0
DA:1321,0
DA:1320,111
DA:1321,111
DA:1320,3
DA:1321,3
DA:1320,222
DA:1321,222
DA:1326,0
DA:1327,0
DA:1326,0
DA:1327,0
DA:1326,0
DA:1327,0
DA:1658,0
DA:1663,0
DA:1664,0
DA:1670,0
DA:1673,0
DA:1674,0
DA:1675,0
end_of_record
SF:/usr/include/c++/9/bits/stl_iterator_base_types.h
FN:205,_ZSt19__iterator_categoryIN9__gnu_cxx17__normal_iteratorIPmSt6vectorImSaImEEEEENSt15iterator_traitsIT_E17iterator_categoryERKS8_
FNDA:0,_ZSt19__iterator_categoryIN9__gnu_cxx17__normal_iteratorIPmSt6vectorImSaImEEEEENSt15iterator_traitsIT_E17iterator_categoryERKS8_
FN:205,_ZSt19__iterator_categoryIN9__gnu_cxx17__normal_iteratorIPKmSt6vectorImSaImEEEEENSt15iterator_traitsIT_E17iterator_categoryERKS9_
FNDA:0,_ZSt19__iterator_categoryIN9__gnu_cxx17__normal_iteratorIPKmSt6vectorImSaImEEEEENSt15iterator_traitsIT_E17iterator_categoryERKS9_
FN:205,_ZSt19__iterator_categoryIPcENSt15iterator_traitsIT_E17iterator_categoryERKS2_
FNDA:0,_ZSt19__iterator_categoryIPcENSt15iterator_traitsIT_E17iterator_categoryERKS2_
FN:205,_ZSt19__iterator_categoryIPKcENSt15iterator_traitsIT_E17iterator_categoryERKS3_
FNDA:0,_ZSt19__iterator_categoryIPKcENSt15iterator_traitsIT_E17iterator_categoryERKS3_
DA:205,0
DA:206,0
DA:205,0
DA:206,0
DA:205,0
DA:206,0
DA:205,0
DA:206,0
end_of_record
SF:/usr/include/c++/9/atomic
FN:77,_ZNSt6atomicIbEC2Eb
FNDA:4,_ZNSt6atomicIbEC2Eb
DA:77,4
end_of_record
SF:/usr/include/c++/9/bits/functional_hash.h
FN:168,_ZNKSt4hashImEclEm
FNDA:0,_ZNKSt4hashImEclEm
DA:168,0
end_of_record
SF:/usr/include/c++/9/bits/stl_iterator.h
FN:803,_ZN9__gnu_cxx17__normal_iteratorIPSt10shared_ptrIN6rclcpp19QOSEventHandlerBaseEESt6vectorIS4_SaIS4_EEEC2ERKS5_
FNDA:0,_ZN9__gnu_cxx17__normal_iteratorIPSt10shared_ptrIN6rclcpp19QOSEventHandlerBaseEESt6vectorIS4_SaIS4_EEEC2ERKS5_
FN:803,_ZN9__gnu_cxx17__normal_iteratorIPmSt6vectorImSaImEEEC2ERKS1_
FNDA:0,_ZN9__gnu_cxx17__normal_iteratorIPmSt6vectorImSaImEEEC2ERKS1_
FN:803,_ZN9__gnu_cxx17__normal_iteratorIPKmSt6vectorImSaImEEEC2ERKS2_
FNDA:0,_ZN9__gnu_cxx17__normal_iteratorIPKmSt6vectorImSaImEEEC2ERKS2_
FN:808,_ZN9__gnu_cxx17__normal_iteratorIPKmSt6vectorImSaImEEEC2IPmEERKNS0_IT_NS_11__enable_ifIXsrSt10__are_sameIS9_S8_E7__valueES5_E6__typeEEE
FNDA:0,_ZN9__gnu_cxx17__normal_iteratorIPKmSt6vectorImSaImEEEC2IPmEERKNS0_IT_NS_11__enable_ifIXsrSt10__are_sameIS9_S8_E7__valueES5_E6__typeEEE
FN:816,_ZNK9__gnu_cxx17__normal_iteratorIPSt10shared_ptrIN6rclcpp19QOSEventHandlerBaseEESt6vectorIS4_SaIS4_EEEdeEv
FNDA:0,_ZNK9__gnu_cxx17__normal_iteratorIPSt10shared_ptrIN6rclcpp19QOSEventHandlerBaseEESt6vectorIS4_SaIS4_EEEdeEv
FN:816,_ZNK9__gnu_cxx17__normal_iteratorIPmSt6vectorImSaImEEEdeEv
FNDA:0,_ZNK9__gnu_cxx17__normal_iteratorIPmSt6vectorImSaImEEEdeEv
FN:824,_ZN9__gnu_cxx17__normal_iteratorIPmSt6vectorImSaImEEEppEv
FNDA:0,_ZN9__gnu_cxx17__normal_iteratorIPmSt6vectorImSaImEEEppEv
FN:831,_ZN9__gnu_cxx17__normal_iteratorIPmSt6vectorImSaImEEEppEi
FNDA:0,_ZN9__gnu_cxx17__normal_iteratorIPmSt6vectorImSaImEEEppEi
FN:852,_ZN9__gnu_cxx17__normal_iteratorIPKmSt6vectorImSaImEEEpLEl
FNDA:0,_ZN9__gnu_cxx17__normal_iteratorIPKmSt6vectorImSaImEEEpLEl
FN:852,_ZN9__gnu_cxx17__normal_iteratorIPmSt6vectorImSaImEEEpLEl
FNDA:0,_ZN9__gnu_cxx17__normal_iteratorIPmSt6vectorImSaImEEEpLEl
FN:856,_ZNK9__gnu_cxx17__normal_iteratorIPmSt6vectorImSaImEEEplEl
FNDA:0,_ZNK9__gnu_cxx17__normal_iteratorIPmSt6vectorImSaImEEEplEl
FN:864,_ZNK9__gnu_cxx17__normal_iteratorIPSt10shared_ptrIN6rclcpp19QOSEventHandlerBaseEESt6vectorIS4_SaIS4_EEEmiEl
FNDA:0,_ZNK9__gnu_cxx17__normal_iteratorIPSt10shared_ptrIN6rclcpp19QOSEventHandlerBaseEESt6vectorIS4_SaIS4_EEEmiEl
FN:868,_ZNK9__gnu_cxx17__normal_iteratorIPmSt6vectorImSaImEEE4baseEv
FNDA:0,_ZNK9__gnu_cxx17__normal_iteratorIPmSt6vectorImSaImEEE4baseEv
FN:868,_ZNK9__gnu_cxx17__normal_iteratorIPSt10shared_ptrIN6rclcpp19QOSEventHandlerBaseEESt6vectorIS4_SaIS4_EEE4baseEv
FNDA:0,_ZNK9__gnu_cxx17__normal_iteratorIPSt10shared_ptrIN6rclcpp19QOSEventHandlerBaseEESt6vectorIS4_SaIS4_EEE4baseEv
FN:868,_ZNK9__gnu_cxx17__normal_iteratorIPKmSt6vectorImSaImEEE4baseEv
FNDA:0,_ZNK9__gnu_cxx17__normal_iteratorIPKmSt6vectorImSaImEEE4baseEv
FN:890,_ZN9__gnu_cxxeqIPmSt6vectorImSaImEEEEbRKNS_17__normal_iteratorIT_T0_EESA_
FNDA:0,_ZN9__gnu_cxxeqIPmSt6vectorImSaImEEEEbRKNS_17__normal_iteratorIT_T0_EESA_
FN:890,_ZN9__gnu_cxxeqIPKmSt6vectorImSaImEEEEbRKNS_17__normal_iteratorIT_T0_EESB_
FNDA:0,_ZN9__gnu_cxxeqIPKmSt6vectorImSaImEEEEbRKNS_17__normal_iteratorIT_T0_EESB_
FN:904,_ZN9__gnu_cxxneIPKmSt6vectorImSaImEEEEbRKNS_17__normal_iteratorIT_T0_EESB_
FNDA:0,_ZN9__gnu_cxxneIPKmSt6vectorImSaImEEEEbRKNS_17__normal_iteratorIT_T0_EESB_
FN:904,_ZN9__gnu_cxxneIPmSt6vectorImSaImEEEEbRKNS_17__normal_iteratorIT_T0_EESA_
FNDA:0,_ZN9__gnu_cxxneIPmSt6vectorImSaImEEEEbRKNS_17__normal_iteratorIT_T0_EESA_
FN:986,_ZN9__gnu_cxxmiIPKmSt6vectorImSaImEEEENS_17__normal_iteratorIT_T0_E15difference_typeERKS9_SC_
FNDA:0,_ZN9__gnu_cxxmiIPKmSt6vectorImSaImEEEENS_17__normal_iteratorIT_T0_E15difference_typeERKS9_SC_
FN:986,_ZN9__gnu_cxxmiIPmSt6vectorImSaImEEEENS_17__normal_iteratorIT_T0_E15difference_typeERKS8_SB_
FNDA:0,_ZN9__gnu_cxxmiIPmSt6vectorImSaImEEEENS_17__normal_iteratorIT_T0_E15difference_typeERKS8_SB_
FN:986,_ZN9__gnu_cxxmiIPSt10shared_ptrIN6rclcpp19QOSEventHandlerBaseEESt6vectorIS4_SaIS4_EEEENS_17__normal_iteratorIT_T0_E15difference_typeERKSC_SF_
FNDA:0,_ZN9__gnu_cxxmiIPSt10shared_ptrIN6rclcpp19QOSEventHandlerBaseEESt6vectorIS4_SaIS4_EEEENS_17__normal_iteratorIT_T0_E15difference_typeERKSC_SF_
FN:1007,_ZSt12__niter_baseIPKmSt6vectorImSaImEEET_N9__gnu_cxx17__normal_iteratorIS5_T0_EE
FNDA:0,_ZSt12__niter_baseIPKmSt6vectorImSaImEEET_N9__gnu_cxx17__normal_iteratorIS5_T0_EE
FN:1007,_ZSt12__niter_baseIPmSt6vectorImSaImEEET_N9__gnu_cxx17__normal_iteratorIS4_T0_EE
FNDA:0,_ZSt12__niter_baseIPmSt6vectorImSaImEEET_N9__gnu_cxx17__normal_iteratorIS4_T0_EE
FN:1054,_ZNSt13move_iteratorIPmEC2ES0_
FNDA:0,_ZNSt13move_iteratorIPmEC2ES0_
FN:1063,_ZNKSt13move_iteratorIPmE4baseEv
FNDA:0,_ZNKSt13move_iteratorIPmE4baseEv
FN:1222,_ZSt18make_move_iteratorIPmESt13move_iteratorIT_ES2_
FNDA:0,_ZSt18make_move_iteratorIPmESt13move_iteratorIT_ES2_
FN:1239,_ZSt32__make_move_if_noexcept_iteratorImSt13move_iteratorIPmEET0_PT_
FNDA:0,_ZSt32__make_move_if_noexcept_iteratorImSt13move_iteratorIPmEET0_PT_
FN:1259,_ZSt12__miter_baseIPmEDTcl12__miter_basecldtfp_4baseEEESt13move_iteratorIT_E
FNDA:0,_ZSt12__miter_baseIPmEDTcl12__miter_basecldtfp_4baseEEESt13move_iteratorIT_E
DA:803,0
DA:804,0
DA:803,0
DA:804,0
DA:803,0
DA:804,0
DA:808,0
DA:812,0
DA:816,0
DA:817,0
DA:816,0
DA:817,0
DA:824,0
DA:826,0
DA:827,0
DA:831,0
DA:832,0
DA:852,0
DA:853,0
DA:852,0
DA:853,0
DA:856,0
DA:857,0
DA:864,0
DA:865,0
DA:868,0
DA:869,0
DA:868,0
DA:869,0
DA:868,0
DA:869,0
DA:890,0
DA:893,0
DA:890,0
DA:893,0
DA:904,0
DA:907,0
DA:904,0
DA:907,0
DA:986,0
DA:989,0
DA:986,0
DA:989,0
DA:986,0
DA:989,0
DA:1007,0
DA:1009,0
DA:1007,0
DA:1009,0
DA:1054,0
DA:1055,0
DA:1063,0
DA:1064,0
DA:1222,0
DA:1223,0
DA:1239,0
DA:1240,0
DA:1259,0
DA:1261,0
end_of_record
SF:/usr/include/c++/9/bits/shared_ptr.h
FN:103,_ZNSt10shared_ptrI15rcl_publisher_tEaSERKS1_
FNDA:4,_ZNSt10shared_ptrI15rcl_publisher_tEaSERKS1_
FN:127,_ZNSt10shared_ptrIN6rclcpp12experimental24SubscriptionIntraProcessIN8std_msgs3msg7String_ISaIvEEES6_St14default_deleteIS7_ES7_EEEC2Ev
FNDA:0,_ZNSt10shared_ptrIN6rclcpp12experimental24SubscriptionIntraProcessIN8std_msgs3msg7String_ISaIvEEES6_St14default_deleteIS7_ES7_EEEC2Ev
FN:127,_ZNSt10shared_ptrIN6rclcpp13CallbackGroupEEC2Ev
FNDA:5,_ZNSt10shared_ptrIN6rclcpp13CallbackGroupEEC2Ev
FN:127,_ZNSt10shared_ptrIN6rclcpp6detail41RMWImplementationSpecificPublisherPayloadEEC2Ev
FNDA:4,_ZNSt10shared_ptrIN6rclcpp6detail41RMWImplementationSpecificPublisherPayloadEEC2Ev
FN:127,_ZNSt10shared_ptrIN6rclcpp4NodeEEC2Ev
FNDA:4,_ZNSt10shared_ptrIN6rclcpp4NodeEEC2Ev
FN:127,_ZNSt10shared_ptrISaIvEEC2Ev
FNDA:4,_ZNSt10shared_ptrISaIvEEC2Ev
FN:127,_ZNSt10shared_ptrIN6rclcpp9PublisherIN8std_msgs3msg7String_ISaIvEEES5_EEEC2Ev
FNDA:0,_ZNSt10shared_ptrIN6rclcpp9PublisherIN8std_msgs3msg7String_ISaIvEEES5_EEEC2Ev
FN:127,_ZNSt10shared_ptrIvEC2Ev
FNDA:0,_ZNSt10shared_ptrIvEC2Ev
FN:127,_ZNSt10shared_ptrI15rcl_publisher_tEC2Ev
FNDA:4,_ZNSt10shared_ptrI15rcl_publisher_tEC2Ev
FN:127,_ZNSt10shared_ptrIKN8std_msgs3msg7String_ISaIvEEEEC2Ev
FNDA:0,_ZNSt10shared_ptrIKN8std_msgs3msg7String_ISaIvEEEEC2Ev
FN:129,_ZNSt10shared_ptrIN6rclcpp12experimental28SubscriptionIntraProcessBaseEEC2ERKS3_
FNDA:0,_ZNSt10shared_ptrIN6rclcpp12experimental28SubscriptionIntraProcessBaseEEC2ERKS3_
FN:129,_ZNSt10shared_ptrIN6rclcpp13PublisherBaseEEC2ERKS2_
FNDA:4,_ZNSt10shared_ptrIN6rclcpp13PublisherBaseEEC2ERKS2_
FN:129,_ZNSt10shared_ptrISaIN8std_msgs3msg7String_ISaIvEEEEEC2ERKS6_
FNDA:0,_ZNSt10shared_ptrISaIN8std_msgs3msg7String_ISaIvEEEEEC2ERKS6_
FN:129,_ZNSt10shared_ptrIKN8std_msgs3msg7String_ISaIvEEEEC2ERKS6_
FNDA:0,_ZNSt10shared_ptrIKN8std_msgs3msg7String_ISaIvEEEEC2ERKS6_
FN:129,_ZNSt10shared_ptrI15rcl_publisher_tEC2ERKS1_
FNDA:4,_ZNSt10shared_ptrI15rcl_publisher_tEC2ERKS1_
FN:129,_ZNSt10shared_ptrIN6rclcpp12experimental19IntraProcessManagerEEC2ERKS3_
FNDA:0,_ZNSt10shared_ptrIN6rclcpp12experimental19IntraProcessManagerEEC2ERKS3_
FN:129,_ZNSt10shared_ptrISaIvEEC2ERKS1_
FNDA:12,_ZNSt10shared_ptrISaIvEEC2ERKS1_
FN:129,_ZNSt10shared_ptrIN6rclcpp6detail41RMWImplementationSpecificPublisherPayloadEEC2ERKS3_
FNDA:17,_ZNSt10shared_ptrIN6rclcpp6detail41RMWImplementationSpecificPublisherPayloadEEC2ERKS3_
FN:129,_ZNSt10shared_ptrIN6rclcpp13CallbackGroupEEC2ERKS2_
FNDA:38,_ZNSt10shared_ptrIN6rclcpp13CallbackGroupEEC2ERKS2_
FN:139,_ZNSt10shared_ptrISaIN8std_msgs3msg7String_ISaIvEEEEEC2IS5_vEEPT_
FNDA:2,_ZNSt10shared_ptrISaIN8std_msgs3msg7String_ISaIvEEEEEC2IS5_vEEPT_
FN:156,_ZNSt10shared_ptrIN6rclcpp12experimental19IntraProcessManagerEEC2IS2_ZNS0_7Context15get_sub_contextIS2_JEEES_IT_EDpOT0_EUlPS2_E_vEEPS7_T0_
FNDA:0,_ZNSt10shared_ptrIN6rclcpp12experimental19IntraProcessManagerEEC2IS2_ZNS0_7Context15get_sub_contextIS2_JEEES_IT_EDpOT0_EUlPS2_E_vEEPS7_T0_
FN:234,_ZNSt10shared_ptrIN6rclcpp12experimental19IntraProcessManagerEEC2IvEERKS_IT_EPS2_
FNDA:0,_ZNSt10shared_ptrIN6rclcpp12experimental19IntraProcessManagerEEC2IvEERKS_IT_EPS2_
FN:234,_ZNSt10shared_ptrIN6rclcpp12experimental24SubscriptionIntraProcessIN8std_msgs3msg7String_ISaIvEEES6_St14default_deleteIS7_ES7_EEEC2INS1_28SubscriptionIntraProcessBaseEEERKS_IT_EPSA_
FNDA:0,_ZNSt10shared_ptrIN6rclcpp12experimental24SubscriptionIntraProcessIN8std_msgs3msg7String_ISaIvEEES6_St14default_deleteIS7_ES7_EEEC2INS1_28SubscriptionIntraProcessBaseEEERKS_IT_EPSA_
FN:234,_ZNSt10shared_ptrIN6rclcpp9PublisherIN8std_msgs3msg7String_ISaIvEEES5_EEEC2INS0_13PublisherBaseEEERKS_IT_EPS7_
FNDA:2,_ZNSt10shared_ptrIN6rclcpp9PublisherIN8std_msgs3msg7String_ISaIvEEES5_EEEC2INS0_13PublisherBaseEEERKS_IT_EPS7_
FN:246,_ZNSt10shared_ptrIN6rclcpp19QOSEventHandlerBaseEEC2INS0_15QOSEventHandlerISt8functionIFvR28rmw_liveliness_lost_status_tEES_I15rcl_publisher_tEEEvEERKS_IT_E
FNDA:0,_ZNSt10shared_ptrIN6rclcpp19QOSEventHandlerBaseEEC2INS0_15QOSEventHandlerISt8functionIFvR28rmw_liveliness_lost_status_tEES_I15rcl_publisher_tEEEvEERKS_IT_E
FN:246,_ZNSt10shared_ptrIN6rclcpp19QOSEventHandlerBaseEEC2INS0_15QOSEventHandlerISt8functionIFvR36rmw_offered_deadline_missed_status_tEES_I15rcl_publisher_tEEEvEERKS_IT_E
FNDA:0,_ZNSt10shared_ptrIN6rclcpp19QOSEventHandlerBaseEEC2INS0_15QOSEventHandlerISt8functionIFvR36rmw_offered_deadline_missed_status_tEES_I15rcl_publisher_tEEEvEERKS_IT_E
FN:246,_ZNSt10shared_ptrIN6rclcpp19QOSEventHandlerBaseEEC2INS0_15QOSEventHandlerISt8functionIFvR35rmw_qos_incompatible_event_status_tEES_I15rcl_publisher_tEEEvEERKS_IT_E
FNDA:0,_ZNSt10shared_ptrIN6rclcpp19QOSEventHandlerBaseEEC2INS0_15QOSEventHandlerISt8functionIFvR35rmw_qos_incompatible_event_status_tEES_I15rcl_publisher_tEEEvEERKS_IT_E
FN:246,_ZNSt10shared_ptrIN6rclcpp19QOSEventHandlerBaseEEC2INS0_15QOSEventHandlerIZNS0_9PublisherIN8std_msgs3msg7String_ISaIvEEES9_EC4EPNS0_15node_interfaces17NodeBaseInterfaceERKNSt7__cxx1112basic_stringIcSt11char_traitsIcESaIcEEERKNS0_3QoSERKNS0_29PublisherOptionsWithAllocatorIS9_EEEUlR35rmw_qos_incompatible_event_status_tE_S_I15rcl_publisher_tEEEvEERKS_IT_E
FNDA:0,_ZNSt10shared_ptrIN6rclcpp19QOSEventHandlerBaseEEC2INS0_15QOSEventHandlerIZNS0_9PublisherIN8std_msgs3msg7String_ISaIvEEES9_EC4EPNS0_15node_interfaces17NodeBaseInterfaceERKNSt7__cxx1112basic_stringIcSt11char_traitsIcESaIcEEERKNS0_3QoSERKNS0_29PublisherOptionsWithAllocatorIS9_EEEUlR35rmw_qos_incompatible_event_status_tE_S_I15rcl_publisher_tEEEvEERKS_IT_E
FN:246,_ZNSt10shared_ptrIKN8std_msgs3msg7String_ISaIvEEEEC2IS4_vEERKS_IT_E
FNDA:0,_ZNSt10shared_ptrIKN8std_msgs3msg7String_ISaIvEEEEC2IS4_vEERKS_IT_E
FN:254,_ZNSt10shared_ptrIN6rclcpp9PublisherIN8std_msgs3msg7String_ISaIvEEES5_EEEC2EOS8_
FNDA:2,_ZNSt10shared_ptrIN6rclcpp9PublisherIN8std_msgs3msg7String_ISaIvEEES5_EEEC2EOS8_
FN:254,_ZNSt10shared_ptrIN6rclcpp19QOSEventHandlerBaseEEC2EOS2_
FNDA:0,_ZNSt10shared_ptrIN6rclcpp19QOSEventHandlerBaseEEC2EOS2_
FN:254,_ZNSt10shared_ptrIKN8std_msgs3msg7String_ISaIvEEEEC2EOS6_
FNDA:0,_ZNSt10shared_ptrIKN8std_msgs3msg7String_ISaIvEEEEC2EOS6_
FN:263,_ZNSt10shared_ptrIKN8std_msgs3msg7String_ISaIvEEEEC2IS4_vEEOS_IT_E
FNDA:0,_ZNSt10shared_ptrIKN8std_msgs3msg7String_ISaIvEEEEC2IS4_vEEOS_IT_E
FN:263,_ZNSt10shared_ptrIN6rclcpp13PublisherBaseEEC2INS0_9PublisherIN8std_msgs3msg7String_ISaIvEEES8_EEvEEOS_IT_E
FNDA:2,_ZNSt10shared_ptrIN6rclcpp13PublisherBaseEEC2INS0_9PublisherIN8std_msgs3msg7String_ISaIvEEES8_EEvEEOS_IT_E
FN:275,_ZNSt10shared_ptrIN6rclcpp13PublisherBaseEEC2IS1_vEERKSt8weak_ptrIT_E
FNDA:0,_ZNSt10shared_ptrIN6rclcpp13PublisherBaseEEC2IS1_vEERKSt8weak_ptrIT_E
FN:290,_ZNSt10shared_ptrIN8std_msgs3msg7String_ISaIvEEEEC2IS4_St14default_deleteIS4_EvEEOSt10unique_ptrIT_T0_E
FNDA:0,_ZNSt10shared_ptrIN8std_msgs3msg7String_ISaIvEEEEC2IS4_St14default_deleteIS4_EvEEOSt10unique_ptrIT_T0_E
FN:307,_ZNSt10shared_ptrIKN8std_msgs3msg7String_ISaIvEEEEC2EDn
FNDA:0,_ZNSt10shared_ptrIKN8std_msgs3msg7String_ISaIvEEEEC2EDn
FN:307,_ZNSt10shared_ptrIN6rclcpp6detail41RMWImplementationSpecificPublisherPayloadEEC2EDn
FNDA:4,_ZNSt10shared_ptrIN6rclcpp6detail41RMWImplementationSpecificPublisherPayloadEEC2EDn
FN:307,_ZNSt10shared_ptrISaIvEEC2EDn
FNDA:4,_ZNSt10shared_ptrISaIvEEC2EDn
FN:313,_ZNSt10shared_ptrIvEaSIN6rclcpp12experimental19IntraProcessManagerEEENSt9enable_ifIXsrSt13is_assignableIRSt12__shared_ptrIvLN9__gnu_cxx12_Lock_policyE2EERKS_IT_EE5valueERS0_E4typeESF_
FNDA:0,_ZNSt10shared_ptrIvEaSIN6rclcpp12experimental19IntraProcessManagerEEENSt9enable_ifIXsrSt13is_assignableIRSt12__shared_ptrIvLN9__gnu_cxx12_Lock_policyE2EERKS_IT_EE5valueERS0_E4typeESF_
FN:333,_ZNSt10shared_ptrIN6rclcpp4NodeEEaSEOS2_
FNDA:4,_ZNSt10shared_ptrIN6rclcpp4NodeEEaSEOS2_
FN:333,_ZNSt10shared_ptrIN6rclcpp12experimental19IntraProcessManagerEEaSEOS3_
FNDA:0,_ZNSt10shared_ptrIN6rclcpp12experimental19IntraProcessManagerEEaSEOS3_
FN:358,_ZNSt10shared_ptrIN6rclcpp15QOSEventHandlerISt8functionIFvR28rmw_liveliness_lost_status_tEES_I15rcl_publisher_tEEEEC2ISaIS9_EJRKS6_RFiP11rcl_event_tPKS7_26rcl_publisher_event_type_tERS8_RKSJ_EEESt20_Sp_alloc_shared_tagIT_EDpOT0_
FNDA:0,_ZNSt10shared_ptrIN6rclcpp15QOSEventHandlerISt8functionIFvR28rmw_liveliness_lost_status_tEES_I15rcl_publisher_tEEEEC2ISaIS9_EJRKS6_RFiP11rcl_event_tPKS7_26rcl_publisher_event_type_tERS8_RKSJ_EEESt20_Sp_alloc_shared_tagIT_EDpOT0_
FN:358,_ZNSt10shared_ptrIN6rclcpp9PublisherIN8std_msgs3msg7String_ISaIvEEES5_EEEC2ISaIS7_EJRPNS0_15node_interfaces17NodeBaseInterfaceERKNSt7__cxx1112basic_stringIcSt11char_traitsIcESaIcEEERKNS0_3QoSERKNS0_29PublisherOptionsWithAllocatorIS5_EEEEESt20_Sp_alloc_shared_tagIT_EDpOT0_
FNDA:2,_ZNSt10shared_ptrIN6rclcpp9PublisherIN8std_msgs3msg7String_ISaIvEEES5_EEEC2ISaIS7_EJRPNS0_15node_interfaces17NodeBaseInterfaceERKNSt7__cxx1112basic_stringIcSt11char_traitsIcESaIcEEERKNS0_3QoSERKNS0_29PublisherOptionsWithAllocatorIS5_EEEEESt20_Sp_alloc_shared_tagIT_EDpOT0_
FN:358,_ZNSt10shared_ptrISaIN8std_msgs3msg7String_ISaIvEEEEEC2ISaIS5_EJRS3_EEESt20_Sp_alloc_shared_tagIT_EDpOT0_
FNDA:2,_ZNSt10shared_ptrISaIN8std_msgs3msg7String_ISaIvEEEEEC2ISaIS5_EJRS3_EEESt20_Sp_alloc_shared_tagIT_EDpOT0_
FN:358,_ZNSt10shared_ptrISaIvEEC2ISaIS0_EJEEESt20_Sp_alloc_shared_tagIT_EDpOT0_
FNDA:8,_ZNSt10shared_ptrISaIvEEC2ISaIS0_EJEEESt20_Sp_alloc_shared_tagIT_EDpOT0_
FN:358,_ZNSt10shared_ptrIN6rclcpp15QOSEventHandlerISt8functionIFvR36rmw_offered_deadline_missed_status_tEES_I15rcl_publisher_tEEEEC2ISaIS9_EJRKS6_RFiP11rcl_event_tPKS7_26rcl_publisher_event_type_tERS8_RKSJ_EEESt20_Sp_alloc_shared_tagIT_EDpOT0_
FNDA:0,_ZNSt10shared_ptrIN6rclcpp15QOSEventHandlerISt8functionIFvR36rmw_offered_deadline_missed_status_tEES_I15rcl_publisher_tEEEEC2ISaIS9_EJRKS6_RFiP11rcl_event_tPKS7_26rcl_publisher_event_type_tERS8_RKSJ_EEESt20_Sp_alloc_shared_tagIT_EDpOT0_
FN:358,_ZNSt10shared_ptrIN6rclcpp4NodeEEC2ISaIS1_EJRA18_KcEEESt20_Sp_alloc_shared_tagIT_EDpOT0_
FNDA:1,_ZNSt10shared_ptrIN6rclcpp4NodeEEC2ISaIS1_EJRA18_KcEEESt20_Sp_alloc_shared_tagIT_EDpOT0_
FN:358,_ZNSt10shared_ptrIN6rclcpp15QOSEventHandlerISt8functionIFvR35rmw_qos_incompatible_event_status_tEES_I15rcl_publisher_tEEEEC2ISaIS9_EJRKS6_RFiP11rcl_event_tPKS7_26rcl_publisher_event_type_tERS8_RKSJ_EEESt20_Sp_alloc_shared_tagIT_EDpOT0_
FNDA:0,_ZNSt10shared_ptrIN6rclcpp15QOSEventHandlerISt8functionIFvR35rmw_qos_incompatible_event_status_tEES_I15rcl_publisher_tEEEEC2ISaIS9_EJRKS6_RFiP11rcl_event_tPKS7_26rcl_publisher_event_type_tERS8_RKSJ_EEESt20_Sp_alloc_shared_tagIT_EDpOT0_
FN:358,_ZNSt10shared_ptrIN6rclcpp15QOSEventHandlerIZNS0_9PublisherIN8std_msgs3msg7String_ISaIvEEES6_EC4EPNS0_15node_interfaces17NodeBaseInterfaceERKNSt7__cxx1112basic_stringIcSt11char_traitsIcESaIcEEERKNS0_3QoSERKNS0_29PublisherOptionsWithAllocatorIS6_EEEUlR35rmw_qos_incompatible_event_status_tE_S_I15rcl_publisher_tEEEEC2ISaISW_EJRKST_RFiP11rcl_event_tPKSU_26rcl_publisher_event_type_tERSV_RKS16_EEESt20_Sp_alloc_shared_tagIT_EDpOT0_
FNDA:2,_ZNSt10shared_ptrIN6rclcpp15QOSEventHandlerIZNS0_9PublisherIN8std_msgs3msg7String_ISaIvEEES6_EC4EPNS0_15node_interfaces17NodeBaseInterfaceERKNSt7__cxx1112basic_stringIcSt11char_traitsIcESaIcEEERKNS0_3QoSERKNS0_29PublisherOptionsWithAllocatorIS6_EEEUlR35rmw_qos_incompatible_event_status_tE_S_I15rcl_publisher_tEEEEC2ISaISW_EJRKST_RFiP11rcl_event_tPKSU_26rcl_publisher_event_type_tERSV_RKS16_EEESt20_Sp_alloc_shared_tagIT_EDpOT0_
FN:358,_ZNSt10shared_ptrIN8std_msgs3msg7String_ISaIvEEEEC2ISaIS4_EJRS4_EEESt20_Sp_alloc_shared_tagIT_EDpOT0_
FNDA:0,_ZNSt10shared_ptrIN8std_msgs3msg7String_ISaIvEEEEC2ISaIS4_EJRS4_EEESt20_Sp_alloc_shared_tagIT_EDpOT0_
FN:367,_ZNSt10shared_ptrIN6rclcpp12experimental19IntraProcessManagerEEC2ERKSt8weak_ptrIS2_ESt9nothrow_t
FNDA:0,_ZNSt10shared_ptrIN6rclcpp12experimental19IntraProcessManagerEEC2ERKSt8weak_ptrIS2_ESt9nothrow_t
FN:393,_ZSteqIN6rclcpp12experimental24SubscriptionIntraProcessIN8std_msgs3msg7String_ISaIvEEES6_St14default_deleteIS7_ES7_EEEbDnRKSt10shared_ptrIT_E
FNDA:0,_ZSteqIN6rclcpp12experimental24SubscriptionIntraProcessIN8std_msgs3msg7String_ISaIvEEES6_St14default_deleteIS7_ES7_EEEbDnRKSt10shared_ptrIT_E
FN:491,_ZSt19static_pointer_castIN6rclcpp12experimental19IntraProcessManagerEvESt10shared_ptrIT_ERKS3_IT0_E
FNDA:0,_ZSt19static_pointer_castIN6rclcpp12experimental19IntraProcessManagerEvESt10shared_ptrIT_ERKS3_IT0_E
FN:507,_ZSt20dynamic_pointer_castIN6rclcpp9PublisherIN8std_msgs3msg7String_ISaIvEEES5_EENS0_13PublisherBaseEESt10shared_ptrIT_ERKS9_IT0_E
FNDA:2,_ZSt20dynamic_pointer_castIN6rclcpp9PublisherIN8std_msgs3msg7String_ISaIvEEES5_EENS0_13PublisherBaseEESt10shared_ptrIT_ERKS9_IT0_E
FN:507,_ZSt20dynamic_pointer_castIN6rclcpp12experimental24SubscriptionIntraProcessIN8std_msgs3msg7String_ISaIvEEES6_St14default_deleteIS7_ES7_EENS1_28SubscriptionIntraProcessBaseEESt10shared_ptrIT_ERKSC_IT0_E
FNDA:0,_ZSt20dynamic_pointer_castIN6rclcpp12experimental24SubscriptionIntraProcessIN8std_msgs3msg7String_ISaIvEEES6_St14default_deleteIS7_ES7_EENS1_28SubscriptionIntraProcessBaseEESt10shared_ptrIT_ERKSC_IT0_E
FN:594,_ZNKSt8weak_ptrIN6rclcpp12experimental19IntraProcessManagerEE4lockEv
FNDA:0,_ZNKSt8weak_ptrIN6rclcpp12experimental19IntraProcessManagerEE4lockEv
FN:650,_ZNSt23enable_shared_from_thisIN6rclcpp13PublisherBaseEE16shared_from_thisEv
FNDA:0,_ZNSt23enable_shared_from_thisIN6rclcpp13PublisherBaseEE16shared_from_thisEv
FN:671,_ZNKSt23enable_shared_from_thisIN6rclcpp13PublisherBaseEE14_M_weak_assignINS0_9PublisherIN8std_msgs3msg7String_ISaIvEEES8_EEEEvPT_RKSt14__shared_countILN9__gnu_cxx12_Lock_policyE2EE
FNDA:2,_ZNKSt23enable_shared_from_thisIN6rclcpp13PublisherBaseEE14_M_weak_assignINS0_9PublisherIN8std_msgs3msg7String_ISaIvEEES8_EEEEvPT_RKSt14__shared_countILN9__gnu_cxx12_Lock_policyE2EE
FN:671,_ZNKSt23enable_shared_from_thisIN6rclcpp4NodeEE14_M_weak_assignIS1_EEvPT_RKSt14__shared_countILN9__gnu_cxx12_Lock_policyE2EE
FNDA:4,_ZNKSt23enable_shared_from_thisIN6rclcpp4NodeEE14_M_weak_assignIS1_EEvPT_RKSt14__shared_countILN9__gnu_cxx12_Lock_policyE2EE
FN:676,_ZSt30__enable_shared_from_this_baseRKSt14__shared_countILN9__gnu_cxx12_Lock_policyE2EEPKSt23enable_shared_from_thisIN6rclcpp13PublisherBaseEE
FNDA:4,_ZSt30__enable_shared_from_this_baseRKSt14__shared_countILN9__gnu_cxx12_Lock_policyE2EEPKSt23enable_shared_from_thisIN6rclcpp13PublisherBaseEE
FN:676,_ZSt30__enable_shared_from_this_baseRKSt14__shared_countILN9__gnu_cxx12_Lock_policyE2EEPKSt23enable_shared_from_thisIN6rclcpp4NodeEE
FNDA:4,_ZSt30__enable_shared_from_this_baseRKSt14__shared_countILN9__gnu_cxx12_Lock_policyE2EEPKSt23enable_shared_from_thisIN6rclcpp4NodeEE
FN:699,_ZSt15allocate_sharedISaIN8std_msgs3msg7String_ISaIvEEEESaIS5_EJRS3_EESt10shared_ptrIT_ERKT0_DpOT1_
FNDA:2,_ZSt15allocate_sharedISaIN8std_msgs3msg7String_ISaIvEEEESaIS5_EJRS3_EESt10shared_ptrIT_ERKT0_DpOT1_
FN:699,_ZSt15allocate_sharedISaIvESaIS0_EJEESt10shared_ptrIT_ERKT0_DpOT1_
FNDA:8,_ZSt15allocate_sharedISaIvESaIS0_EJEESt10shared_ptrIT_ERKT0_DpOT1_
FN:699,_ZSt15allocate_sharedIN6rclcpp4NodeESaIS1_EJRA18_KcEESt10shared_ptrIT_ERKT0_DpOT1_
FNDA:1,_ZSt15allocate_sharedIN6rclcpp4NodeESaIS1_EJRA18_KcEESt10shared_ptrIT_ERKT0_DpOT1_
FN:699,_ZSt15allocate_sharedIN6rclcpp15QOSEventHandlerISt8functionIFvR36rmw_offered_deadline_missed_status_tEESt10shared_ptrI15rcl_publisher_tEEESaISA_EJRKS6_RFiP11rcl_event_tPKS8_26rcl_publisher_event_type_tERS9_RKSI_EES7_IT_ERKT0_DpOT1_
FNDA:0,_ZSt15allocate_sharedIN6rclcpp15QOSEventHandlerISt8functionIFvR36rmw_offered_deadline_missed_status_tEESt10shared_ptrI15rcl_publisher_tEEESaISA_EJRKS6_RFiP11rcl_event_tPKS8_26rcl_publisher_event_type_tERS9_RKSI_EES7_IT_ERKT0_DpOT1_
FN:699,_ZSt15allocate_sharedIN8std_msgs3msg7String_ISaIvEEESaIS4_EJRS4_EESt10shared_ptrIT_ERKT0_DpOT1_
FNDA:0,_ZSt15allocate_sharedIN8std_msgs3msg7String_ISaIvEEESaIS4_EJRS4_EESt10shared_ptrIT_ERKT0_DpOT1_
FN:699,_ZSt15allocate_sharedIN6rclcpp15QOSEventHandlerISt8functionIFvR28rmw_liveliness_lost_status_tEESt10shared_ptrI15rcl_publisher_tEEESaISA_EJRKS6_RFiP11rcl_event_tPKS8_26rcl_publisher_event_type_tERS9_RKSI_EES7_IT_ERKT0_DpOT1_
FNDA:0,_ZSt15allocate_sharedIN6rclcpp15QOSEventHandlerISt8functionIFvR28rmw_liveliness_lost_status_tEESt10shared_ptrI15rcl_publisher_tEEESaISA_EJRKS6_RFiP11rcl_event_tPKS8_26rcl_publisher_event_type_tERS9_RKSI_EES7_IT_ERKT0_DpOT1_
FN:699,_ZSt15allocate_sharedIN6rclcpp15QOSEventHandlerISt8functionIFvR35rmw_qos_incompatible_event_status_tEESt10shared_ptrI15rcl_publisher_tEEESaISA_EJRKS6_RFiP11rcl_event_tPKS8_26rcl_publisher_event_type_tERS9_RKSI_EES7_IT_ERKT0_DpOT1_
FNDA:0,_ZSt15allocate_sharedIN6rclcpp15QOSEventHandlerISt8functionIFvR35rmw_qos_incompatible_event_status_tEESt10shared_ptrI15rcl_publisher_tEEESaISA_EJRKS6_RFiP11rcl_event_tPKS8_26rcl_publisher_event_type_tERS9_RKSI_EES7_IT_ERKT0_DpOT1_
FN:699,_ZSt15allocate_sharedIN6rclcpp15QOSEventHandlerIZNS0_9PublisherIN8std_msgs3msg7String_ISaIvEEES6_EC4EPNS0_15node_interfaces17NodeBaseInterfaceERKNSt7__cxx1112basic_stringIcSt11char_traitsIcESaIcEEERKNS0_3QoSERKNS0_29PublisherOptionsWithAllocatorIS6_EEEUlR35rmw_qos_incompatible_event_status_tE_St10shared_ptrI15rcl_publisher_tEEESaISX_EJRKST_RFiP11rcl_event_tPKSV_26rcl_publisher_event_type_tERSW_RKS15_EESU_IT_ERKT0_DpOT1_
FNDA:2,_ZSt15allocate_sharedIN6rclcpp15QOSEventHandlerIZNS0_9PublisherIN8std_msgs3msg7String_ISaIvEEES6_EC4EPNS0_15node_interfaces17NodeBaseInterfaceERKNSt7__cxx1112basic_stringIcSt11char_traitsIcESaIcEEERKNS0_3QoSERKNS0_29PublisherOptionsWithAllocatorIS6_EEEUlR35rmw_qos_incompatible_event_status_tE_St10shared_ptrI15rcl_publisher_tEEESaISX_EJRKST_RFiP11rcl_event_tPKSV_26rcl_publisher_event_type_tERSW_RKS15_EESU_IT_ERKT0_DpOT1_
FN:699,_ZSt15allocate_sharedIN6rclcpp9PublisherIN8std_msgs3msg7String_ISaIvEEES5_EESaIS7_EJRPNS0_15node_interfaces17NodeBaseInterfaceERKNSt7__cxx1112basic_stringIcSt11char_traitsIcESaIcEEERKNS0_3QoSERKNS0_29PublisherOptionsWithAllocatorIS5_EEEESt10shared_ptrIT_ERKT0_DpOT1_
FNDA:2,_ZSt15allocate_sharedIN6rclcpp9PublisherIN8std_msgs3msg7String_ISaIvEEES5_EESaIS7_EJRPNS0_15node_interfaces17NodeBaseInterfaceERKNSt7__cxx1112basic_stringIcSt11char_traitsIcESaIcEEERKNS0_3QoSERKNS0_29PublisherOptionsWithAllocatorIS5_EEEESt10shared_ptrIT_ERKT0_DpOT1_
FN:714,_ZSt11make_sharedIN6rclcpp9PublisherIN8std_msgs3msg7String_ISaIvEEES5_EEJRPNS0_15node_interfaces17NodeBaseInterfaceERKNSt7__cxx1112basic_stringIcSt11char_traitsIcESaIcEEERKNS0_3QoSERKNS0_29PublisherOptionsWithAllocatorIS5_EEEESt10shared_ptrIT_EDpOT0_
FNDA:2,_ZSt11make_sharedIN6rclcpp9PublisherIN8std_msgs3msg7String_ISaIvEEES5_EEJRPNS0_15node_interfaces17NodeBaseInterfaceERKNSt7__cxx1112basic_stringIcSt11char_traitsIcESaIcEEERKNS0_3QoSERKNS0_29PublisherOptionsWithAllocatorIS5_EEEESt10shared_ptrIT_EDpOT0_
FN:714,_ZSt11make_sharedISaIN8std_msgs3msg7String_ISaIvEEEEJRS3_EESt10shared_ptrIT_EDpOT0_
FNDA:2,_ZSt11make_sharedISaIN8std_msgs3msg7String_ISaIvEEEEJRS3_EESt10shared_ptrIT_EDpOT0_
FN:714,_ZSt11make_sharedIN6rclcpp4NodeEJRA18_KcEESt10shared_ptrIT_EDpOT0_
FNDA:1,_ZSt11make_sharedIN6rclcpp4NodeEJRA18_KcEESt10shared_ptrIT_EDpOT0_
FN:714,_ZSt11make_sharedISaIvEJEESt10shared_ptrIT_EDpOT0_
FNDA:8,_ZSt11make_sharedISaIvEJEESt10shared_ptrIT_EDpOT0_
FN:714,_ZSt11make_sharedIN6rclcpp15QOSEventHandlerISt8functionIFvR36rmw_offered_deadline_missed_status_tEESt10shared_ptrI15rcl_publisher_tEEEJRKS6_RFiP11rcl_event_tPKS8_26rcl_publisher_event_type_tERS9_RKSH_EES7_IT_EDpOT0_
FNDA:0,_ZSt11make_sharedIN6rclcpp15QOSEventHandlerISt8functionIFvR36rmw_offered_deadline_missed_status_tEESt10shared_ptrI15rcl_publisher_tEEEJRKS6_RFiP11rcl_event_tPKS8_26rcl_publisher_event_type_tERS9_RKSH_EES7_IT_EDpOT0_
FN:714,_ZSt11make_sharedIN6rclcpp15QOSEventHandlerISt8functionIFvR28rmw_liveliness_lost_status_tEESt10shared_ptrI15rcl_publisher_tEEEJRKS6_RFiP11rcl_event_tPKS8_26rcl_publisher_event_type_tERS9_RKSH_EES7_IT_EDpOT0_
FNDA:0,_ZSt11make_sharedIN6rclcpp15QOSEventHandlerISt8functionIFvR28rmw_liveliness_lost_status_tEESt10shared_ptrI15rcl_publisher_tEEEJRKS6_RFiP11rcl_event_tPKS8_26rcl_publisher_event_type_tERS9_RKSH_EES7_IT_EDpOT0_
FN:714,_ZSt11make_sharedIN6rclcpp15QOSEventHandlerISt8functionIFvR35rmw_qos_incompatible_event_status_tEESt10shared_ptrI15rcl_publisher_tEEEJRKS6_RFiP11rcl_event_tPKS8_26rcl_publisher_event_type_tERS9_RKSH_EES7_IT_EDpOT0_
FNDA:0,_ZSt11make_sharedIN6rclcpp15QOSEventHandlerISt8functionIFvR35rmw_qos_incompatible_event_status_tEESt10shared_ptrI15rcl_publisher_tEEEJRKS6_RFiP11rcl_event_tPKS8_26rcl_publisher_event_type_tERS9_RKSH_EES7_IT_EDpOT0_
FN:714,_ZSt11make_sharedIN6rclcpp15QOSEventHandlerIZNS0_9PublisherIN8std_msgs3msg7String_ISaIvEEES6_EC4EPNS0_15node_interfaces17NodeBaseInterfaceERKNSt7__cxx1112basic_stringIcSt11char_traitsIcESaIcEEERKNS0_3QoSERKNS0_29PublisherOptionsWithAllocatorIS6_EEEUlR35rmw_qos_incompatible_event_status_tE_St10shared_ptrI15rcl_publisher_tEEEJRKST_RFiP11rcl_event_tPKSV_26rcl_publisher_event_type_tERSW_RKS14_EESU_IT_EDpOT0_
FNDA:2,_ZSt11make_sharedIN6rclcpp15QOSEventHandlerIZNS0_9PublisherIN8std_msgs3msg7String_ISaIvEEES6_EC4EPNS0_15node_interfaces17NodeBaseInterfaceERKNSt7__cxx1112basic_stringIcSt11char_traitsIcESaIcEEERKNS0_3QoSERKNS0_29PublisherOptionsWithAllocatorIS6_EEEUlR35rmw_qos_incompatible_event_status_tE_St10shared_ptrI15rcl_publisher_tEEEJRKST_RFiP11rcl_event_tPKSV_26rcl_publisher_event_type_tERSW_RKS14_EESU_IT_EDpOT0_
DA:103,4
DA:127,0
DA:127,0
DA:127,4
DA:127,0
DA:127,0
DA:127,4
DA:127,4
DA:127,4
DA:127,5
DA:129,0
DA:129,0
DA:129,0
DA:129,4
DA:129,0
DA:129,12
DA:129,17
DA:129,38
DA:129,4
DA:139,2
DA:156,0
DA:157,0
DA:234,0
DA:235,0
DA:234,0
DA:235,0
DA:234,2
DA:235,2
DA:246,0
DA:247,0
DA:246,0
DA:247,0
DA:246,0
DA:247,0
DA:246,0
DA:247,0
DA:246,0
DA:247,0
DA:254,0
DA:255,0
DA:254,0
DA:255,0
DA:254,2
DA:255,2
DA:263,0
DA:264,0
DA:263,2
DA:264,2
DA:275,0
DA:276,0
DA:290,0
DA:291,0
DA:307,0
DA:307,4
DA:307,4
DA:313,0
DA:315,0
DA:316,0
DA:333,0
DA:335,0
DA:336,0
DA:333,4
DA:335,4
DA:336,4
DA:358,0
DA:359,0
DA:360,0
DA:358,2
DA:359,2
DA:360,0
DA:358,0
DA:359,0
DA:360,0
DA:358,0
DA:359,0
DA:360,0
DA:358,0
DA:359,0
DA:360,0
DA:358,8
DA:359,8
DA:360,8
DA:358,2
DA:359,2
DA:360,2
DA:358,2
DA:359,2
DA:360,2
DA:358,1
DA:359,1
DA:360,1
DA:367,0
DA:368,0
DA:393,0
DA:394,0
DA:491,0
DA:494,0
DA:507,0
DA:510,0
DA:511,0
DA:512,0
DA:507,2
DA:510,2
DA:511,2
DA:512,0
DA:594,0
DA:595,0
DA:650,0
DA:651,0
DA:671,2
DA:672,2
DA:671,4
DA:672,4
DA:676,4
DA:678,4
DA:676,4
DA:678,4
DA:699,0
DA:702,0
DA:699,2
DA:702,2
DA:699,0
DA:702,0
DA:699,0
DA:702,0
DA:699,0
DA:702,0
DA:699,8
DA:702,8
DA:699,2
DA:702,2
DA:699,2
DA:702,2
DA:699,1
DA:702,1
DA:714,2
DA:718,2
DA:714,0
DA:718,0
DA:714,0
DA:718,0
DA:714,0
DA:718,0
DA:714,8
DA:718,8
DA:714,2
DA:718,2
DA:714,2
DA:718,2
DA:714,1
DA:718,1
end_of_record
SF:/media/okritvik/NSSD/foxy_ws/src/MARIO-COM/mario_com/test/manipulation_test.cpp
FN:37,_ZN41TaskManipulation_test_num_publishers_Test8TestBodyEv
FNDA:1,_ZN41TaskManipulation_test_num_publishers_Test8TestBodyEv
FN:37,_ZN41TaskManipulation_test_num_publishers_TestC2Ev
FNDA:1,_ZN41TaskManipulation_test_num_publishers_TestC2Ev
DA:37,1
DA:38,1
DA:39,1
DA:40,3
DA:42,1
DA:43,1
DA:44,1
DA:37,1
end_of_record
SF:/usr/include/c++/9/bits/unique_ptr.h
FN:75,_ZNKSt14default_deleteINSt7__cxx1112basic_stringIcSt11char_traitsIcESaIcEEEEclEPS5_
FNDA:0,_ZNKSt14default_deleteINSt7__cxx1112basic_stringIcSt11char_traitsIcESaIcEEEEclEPS5_
FN:75,_ZNKSt14default_deleteINSt7__cxx1118basic_stringstreamIcSt11char_traitsIcESaIcEEEEclEPS5_
FNDA:111,_ZNKSt14default_deleteINSt7__cxx1118basic_stringstreamIcSt11char_traitsIcESaIcEEEEclEPS5_
FN:75,_ZNKSt14default_deleteIN8std_msgs3msg7String_ISaIvEEEEclEPS4_
FNDA:0,_ZNKSt14default_deleteIN8std_msgs3msg7String_ISaIvEEEEclEPS4_
FN:150,_ZNSt15__uniq_ptr_implIN8std_msgs3msg7String_ISaIvEEESt14default_deleteIS4_EEC2IS6_EEPS4_OT_
FNDA:0,_ZNSt15__uniq_ptr_implIN8std_msgs3msg7String_ISaIvEEESt14default_deleteIS4_EEC2IS6_EEPS4_OT_
FN:150,_ZNSt15__uniq_ptr_implIN8std_msgs3msg7String_ISaIvEEESt14default_deleteIS4_EEC2IRKS6_EEPS4_OT_
FNDA:0,_ZNSt15__uniq_ptr_implIN8std_msgs3msg7String_ISaIvEEESt14default_deleteIS4_EEC2IRKS6_EEPS4_OT_
FN:153,_ZNSt15__uniq_ptr_implI18rcl_node_options_tPFvPS0_EE6_M_ptrEv
FNDA:5,_ZNSt15__uniq_ptr_implI18rcl_node_options_tPFvPS0_EE6_M_ptrEv
FN:153,_ZNSt15__uniq_ptr_implINSt7__cxx1118basic_stringstreamIcSt11char_traitsIcESaIcEEESt14default_deleteIS5_EE6_M_ptrEv
FNDA:222,_ZNSt15__uniq_ptr_implINSt7__cxx1118basic_stringstreamIcSt11char_traitsIcESaIcEEESt14default_deleteIS5_EE6_M_ptrEv
FN:153,_ZNSt15__uniq_ptr_implINSt7__cxx1112basic_stringIcSt11char_traitsIcESaIcEEESt14default_deleteIS5_EE6_M_ptrEv
FNDA:3,_ZNSt15__uniq_ptr_implINSt7__cxx1112basic_stringIcSt11char_traitsIcESaIcEEESt14default_deleteIS5_EE6_M_ptrEv
FN:153,_ZNSt15__uniq_ptr_implIN8std_msgs3msg7String_ISaIvEEESt14default_deleteIS4_EE6_M_ptrEv
FNDA:0,_ZNSt15__uniq_ptr_implIN8std_msgs3msg7String_ISaIvEEESt14default_deleteIS4_EE6_M_ptrEv
FN:154,_ZNKSt15__uniq_ptr_implIN6rclcpp12experimental7buffers18IntraProcessBufferIN8std_msgs3msg7String_ISaIvEEES7_St14default_deleteIS8_EEES9_ISB_EE6_M_ptrEv
FNDA:0,_ZNKSt15__uniq_ptr_implIN6rclcpp12experimental7buffers18IntraProcessBufferIN8std_msgs3msg7String_ISaIvEEES7_St14default_deleteIS8_EEES9_ISB_EE6_M_ptrEv
FN:154,_ZNKSt15__uniq_ptr_implINSt7__cxx1112basic_stringIcSt11char_traitsIcESaIcEEESt14default_deleteIS5_EE6_M_ptrEv
FNDA:0,_ZNKSt15__uniq_ptr_implINSt7__cxx1112basic_stringIcSt11char_traitsIcESaIcEEESt14default_deleteIS5_EE6_M_ptrEv
FN:154,_ZNKSt15__uniq_ptr_implIN8std_msgs3msg7String_ISaIvEEESt14default_deleteIS4_EE6_M_ptrEv
FNDA:0,_ZNKSt15__uniq_ptr_implIN8std_msgs3msg7String_ISaIvEEESt14default_deleteIS4_EE6_M_ptrEv
FN:155,_ZNSt15__uniq_ptr_implI18rcl_node_options_tPFvPS0_EE10_M_deleterEv
FNDA:5,_ZNSt15__uniq_ptr_implI18rcl_node_options_tPFvPS0_EE10_M_deleterEv
FN:155,_ZNSt15__uniq_ptr_implIN8std_msgs3msg7String_ISaIvEEESt14default_deleteIS4_EE10_M_deleterEv
FNDA:0,_ZNSt15__uniq_ptr_implIN8std_msgs3msg7String_ISaIvEEESt14default_deleteIS4_EE10_M_deleterEv
FN:155,_ZNSt15__uniq_ptr_implINSt7__cxx1118basic_stringstreamIcSt11char_traitsIcESaIcEEESt14default_deleteIS5_EE10_M_deleterEv
FNDA:111,_ZNSt15__uniq_ptr_implINSt7__cxx1118basic_stringstreamIcSt11char_traitsIcESaIcEEESt14default_deleteIS5_EE10_M_deleterEv
FN:155,_ZNSt15__uniq_ptr_implINSt7__cxx1112basic_stringIcSt11char_traitsIcESaIcEEESt14default_deleteIS5_EE10_M_deleterEv
FNDA:0,_ZNSt15__uniq_ptr_implINSt7__cxx1112basic_stringIcSt11char_traitsIcESaIcEEESt14default_deleteIS5_EE10_M_deleterEv
FN:224,_ZNSt10unique_ptrIN8std_msgs3msg7String_ISaIvEEESt14default_deleteIS4_EEC2IS6_vEEPS4_RKS6_
FNDA:0,_ZNSt10unique_ptrIN8std_msgs3msg7String_ISaIvEEESt14default_deleteIS4_EEC2IS6_vEEPS4_RKS6_
FN:257,_ZNSt10unique_ptrIN8std_msgs3msg7String_ISaIvEEESt14default_deleteIS4_EEC2EOS7_
FNDA:0,_ZNSt10unique_ptrIN8std_msgs3msg7String_ISaIvEEESt14default_deleteIS4_EEC2EOS7_
FN:286,_ZNSt10unique_ptrINSt7__cxx1112basic_stringIcSt11char_traitsIcESaIcEEESt14default_deleteIS5_EED2Ev
FNDA:3,_ZNSt10unique_ptrINSt7__cxx1112basic_stringIcSt11char_traitsIcESaIcEEESt14default_deleteIS5_EED2Ev
FN:286,_ZNSt10unique_ptrINSt7__cxx1118basic_stringstreamIcSt11char_traitsIcESaIcEEESt14default_deleteIS5_EED2Ev
FNDA:111,_ZNSt10unique_ptrINSt7__cxx1118basic_stringstreamIcSt11char_traitsIcESaIcEEESt14default_deleteIS5_EED2Ev
FN:286,_ZNSt10unique_ptrI18rcl_node_options_tPFvPS0_EED2Ev
FNDA:5,_ZNSt10unique_ptrI18rcl_node_options_tPFvPS0_EED2Ev
FN:286,_ZNSt10unique_ptrIN8std_msgs3msg7String_ISaIvEEESt14default_deleteIS4_EED2Ev
FNDA:0,_ZNSt10unique_ptrIN8std_msgs3msg7String_ISaIvEEESt14default_deleteIS4_EED2Ev
FN:305,_ZNSt10unique_ptrIN8std_msgs3msg7String_ISaIvEEESt14default_deleteIS4_EEaSEOS7_
FNDA:0,_ZNSt10unique_ptrIN8std_msgs3msg7String_ISaIvEEESt14default_deleteIS4_EEaSEOS7_
FN:344,_ZNKSt10unique_ptrIN8std_msgs3msg7String_ISaIvEEESt14default_deleteIS4_EEdeEv
FNDA:0,_ZNKSt10unique_ptrIN8std_msgs3msg7String_ISaIvEEESt14default_deleteIS4_EEdeEv
FN:352,_ZNKSt10unique_ptrIN6rclcpp12experimental7buffers18IntraProcessBufferIN8std_msgs3msg7String_ISaIvEEES7_St14default_deleteIS8_EEES9_ISB_EEptEv
FNDA:0,_ZNKSt10unique_ptrIN6rclcpp12experimental7buffers18IntraProcessBufferIN8std_msgs3msg7String_ISaIvEEES7_St14default_deleteIS8_EEES9_ISB_EEptEv
FN:352,_ZNKSt10unique_ptrINSt7__cxx1112basic_stringIcSt11char_traitsIcESaIcEEESt14default_deleteIS5_EEptEv
FNDA:0,_ZNKSt10unique_ptrINSt7__cxx1112basic_stringIcSt11char_traitsIcESaIcEEESt14default_deleteIS5_EEptEv
FN:360,_ZNKSt10unique_ptrIN8std_msgs3msg7String_ISaIvEEESt14default_deleteIS4_EE3getEv
FNDA:0,_ZNKSt10unique_ptrIN8std_msgs3msg7String_ISaIvEEESt14default_deleteIS4_EE3getEv
FN:360,_ZNKSt10unique_ptrINSt7__cxx1112basic_stringIcSt11char_traitsIcESaIcEEESt14default_deleteIS5_EE3getEv
FNDA:0,_ZNKSt10unique_ptrINSt7__cxx1112basic_stringIcSt11char_traitsIcESaIcEEESt14default_deleteIS5_EE3getEv
FN:360,_ZNKSt10unique_ptrIN6rclcpp12experimental7buffers18IntraProcessBufferIN8std_msgs3msg7String_ISaIvEEES7_St14default_deleteIS8_EEES9_ISB_EE3getEv
FNDA:0,_ZNKSt10unique_ptrIN6rclcpp12experimental7buffers18IntraProcessBufferIN8std_msgs3msg7String_ISaIvEEES7_St14default_deleteIS8_EEES9_ISB_EE3getEv
FN:365,_ZNSt10unique_ptrI18rcl_node_options_tPFvPS0_EE11get_deleterEv
FNDA:5,_ZNSt10unique_ptrI18rcl_node_options_tPFvPS0_EE11get_deleterEv
FN:365,_ZNSt10unique_ptrINSt7__cxx1112basic_stringIcSt11char_traitsIcESaIcEEESt14default_deleteIS5_EE11get_deleterEv
FNDA:0,_ZNSt10unique_ptrINSt7__cxx1112basic_stringIcSt11char_traitsIcESaIcEEESt14default_deleteIS5_EE11get_deleterEv
FN:365,_ZNSt10unique_ptrIN8std_msgs3msg7String_ISaIvEEESt14default_deleteIS4_EE11get_deleterEv
FNDA:0,_ZNSt10unique_ptrIN8std_msgs3msg7String_ISaIvEEESt14default_deleteIS4_EE11get_deleterEv
FN:365,_ZNSt10unique_ptrINSt7__cxx1118basic_stringstreamIcSt11char_traitsIcESaIcEEESt14default_deleteIS5_EE11get_deleterEv
FNDA:111,_ZNSt10unique_ptrINSt7__cxx1118basic_stringstreamIcSt11char_traitsIcESaIcEEESt14default_deleteIS5_EE11get_deleterEv
FN:374,_ZNKSt10unique_ptrIN8std_msgs3msg7String_ISaIvEEESt14default_deleteIS4_EEcvbEv
FNDA:0,_ZNKSt10unique_ptrIN8std_msgs3msg7String_ISaIvEEESt14default_deleteIS4_EEcvbEv
FN:381,_ZNSt10unique_ptrIN8std_msgs3msg7String_ISaIvEEESt14default_deleteIS4_EE7releaseEv
FNDA:0,_ZNSt10unique_ptrIN8std_msgs3msg7String_ISaIvEEESt14default_deleteIS4_EE7releaseEv
FN:395,_ZNSt10unique_ptrIN8std_msgs3msg7String_ISaIvEEESt14default_deleteIS4_EE5resetEPS4_
FNDA:0,_ZNSt10unique_ptrIN8std_msgs3msg7String_ISaIvEEESt14default_deleteIS4_EE5resetEPS4_
DA:75,0
DA:81,0
DA:82,0
DA:75,0
DA:81,0
DA:82,0
DA:75,111
DA:81,111
DA:82,111
DA:150,0
DA:151,0
DA:150,0
DA:151,0
DA:153,0
DA:153,5
DA:153,3
DA:153,222
DA:154,0
DA:154,0
DA:154,0
DA:155,0
DA:155,5
DA:155,0
DA:155,111
DA:224,0
DA:225,0
DA:257,0
DA:258,0
DA:286,0
DA:290,0
DA:291,0
DA:292,0
DA:293,0
DA:294,0
DA:286,5
DA:290,5
DA:291,5
DA:292,5
DA:293,5
DA:294,5
DA:286,3
DA:290,3
DA:291,3
DA:292,0
DA:293,3
DA:294,3
DA:286,111
DA:290,111
DA:291,111
DA:292,111
DA:293,111
DA:294,111
DA:305,0
DA:307,0
DA:308,0
DA:309,0
DA:344,0
DA:347,0
DA:352,0
DA:355,0
DA:352,0
DA:355,0
DA:360,0
DA:361,0
DA:360,0
DA:361,0
DA:360,0
DA:361,0
DA:365,0
DA:366,0
DA:365,5
DA:366,5
DA:365,0
DA:366,0
DA:365,111
DA:366,111
DA:374,0
DA:375,0
DA:381,0
DA:383,0
DA:384,0
DA:385,0
DA:395,0
DA:400,0
DA:401,0
DA:402,0
DA:403,0
end_of_record
SF:/usr/include/x86_64-linux-gnu/c++/9/bits/gthr-default.h
FN:248,_ZL18__gthread_active_pv
FNDA:30,_ZL18__gthread_active_pv
FN:746,_ZL20__gthread_mutex_lockP15pthread_mutex_t
FNDA:0,_ZL20__gthread_mutex_lockP15pthread_mutex_t
FN:776,_ZL22__gthread_mutex_unlockP15pthread_mutex_t
FNDA:0,_ZL22__gthread_mutex_unlockP15pthread_mutex_t
FN:809,_ZL30__gthread_recursive_mutex_lockP15pthread_mutex_t
FNDA:0,_ZL30__gthread_recursive_mutex_lockP15pthread_mutex_t
FN:830,_ZL32__gthread_recursive_mutex_unlockP15pthread_mutex_t
FNDA:0,_ZL32__gthread_recursive_mutex_unlockP15pthread_mutex_t
DA:248,30
DA:252,30
DA:746,0
DA:748,0
DA:749,0
DA:751,0
DA:776,0
DA:778,0
DA:779,0
DA:781,0
DA:809,0
DA:811,0
DA:830,0
DA:832,0
end_of_record
SF:/opt/ros/foxy/include/rcl_interfaces/msg/detail/parameter_value__struct.hpp
end_of_record
SF:/usr/include/c++/9/bits/ptr_traits.h
FN:146,_ZNSt14pointer_traitsIPPNSt8__detail15_Hash_node_baseEE10pointer_toERS2_
FNDA:0,_ZNSt14pointer_traitsIPPNSt8__detail15_Hash_node_baseEE10pointer_toERS2_
FN:146,_ZNSt14pointer_traitsIPNSt8__detail10_Hash_nodeISt4pairIKSt10type_indexSt10shared_ptrIvEELb0EEEE10pointer_toERS8_
FNDA:0,_ZNSt14pointer_traitsIPNSt8__detail10_Hash_nodeISt4pairIKSt10type_indexSt10shared_ptrIvEELb0EEEE10pointer_toERS8_
FN:156,_ZSt12__to_addressISt23_Sp_counted_ptr_inplaceIN8std_msgs3msg7String_ISaIvEEESaIS5_ELN9__gnu_cxx12_Lock_policyE2EEEPT_SB_
FNDA:0,_ZSt12__to_addressISt23_Sp_counted_ptr_inplaceIN8std_msgs3msg7String_ISaIvEEESaIS5_ELN9__gnu_cxx12_Lock_policyE2EEEPT_SB_
FN:156,_ZSt12__to_addressIN8std_msgs3msg7String_ISaIvEEEEPT_S6_
FNDA:0,_ZSt12__to_addressIN8std_msgs3msg7String_ISaIvEEEEPT_S6_
FN:156,_ZSt12__to_addressISt23_Sp_counted_ptr_inplaceIN6rclcpp15QOSEventHandlerIZNS1_9PublisherIN8std_msgs3msg7String_ISaIvEEES7_EC4EPNS1_15node_interfaces17NodeBaseInterfaceERKNSt7__cxx1112basic_stringIcSt11char_traitsIcESaIcEEERKNS1_3QoSERKNS1_29PublisherOptionsWithAllocatorIS7_EEEUlR35rmw_qos_incompatible_event_status_tE_St10shared_ptrI15rcl_publisher_tEEESaISY_ELN9__gnu_cxx12_Lock_policyE2EEEPT_S14_
FNDA:2,_ZSt12__to_addressISt23_Sp_counted_ptr_inplaceIN6rclcpp15QOSEventHandlerIZNS1_9PublisherIN8std_msgs3msg7String_ISaIvEEES7_EC4EPNS1_15node_interfaces17NodeBaseInterfaceERKNSt7__cxx1112basic_stringIcSt11char_traitsIcESaIcEEERKNS1_3QoSERKNS1_29PublisherOptionsWithAllocatorIS7_EEEUlR35rmw_qos_incompatible_event_status_tE_St10shared_ptrI15rcl_publisher_tEEESaISY_ELN9__gnu_cxx12_Lock_policyE2EEEPT_S14_
FN:156,_ZSt12__to_addressISt23_Sp_counted_ptr_inplaceIN6rclcpp15QOSEventHandlerISt8functionIFvR35rmw_qos_incompatible_event_status_tEESt10shared_ptrI15rcl_publisher_tEEESaISB_ELN9__gnu_cxx12_Lock_policyE2EEEPT_SH_
FNDA:0,_ZSt12__to_addressISt23_Sp_counted_ptr_inplaceIN6rclcpp15QOSEventHandlerISt8functionIFvR35rmw_qos_incompatible_event_status_tEESt10shared_ptrI15rcl_publisher_tEEESaISB_ELN9__gnu_cxx12_Lock_policyE2EEEPT_SH_
FN:156,_ZSt12__to_addressISt23_Sp_counted_ptr_inplaceIN6rclcpp15QOSEventHandlerISt8functionIFvR28rmw_liveliness_lost_status_tEESt10shared_ptrI15rcl_publisher_tEEESaISB_ELN9__gnu_cxx12_Lock_policyE2EEEPT_SH_
FNDA:0,_ZSt12__to_addressISt23_Sp_counted_ptr_inplaceIN6rclcpp15QOSEventHandlerISt8functionIFvR28rmw_liveliness_lost_status_tEESt10shared_ptrI15rcl_publisher_tEEESaISB_ELN9__gnu_cxx12_Lock_policyE2EEEPT_SH_
FN:156,_ZSt12__to_addressISt23_Sp_counted_ptr_inplaceIN6rclcpp15QOSEventHandlerISt8functionIFvR36rmw_offered_deadline_missed_status_tEESt10shared_ptrI15rcl_publisher_tEEESaISB_ELN9__gnu_cxx12_Lock_policyE2EEEPT_SH_
FNDA:0,_ZSt12__to_addressISt23_Sp_counted_ptr_inplaceIN6rclcpp15QOSEventHandlerISt8functionIFvR36rmw_offered_deadline_missed_status_tEESt10shared_ptrI15rcl_publisher_tEEESaISB_ELN9__gnu_cxx12_Lock_policyE2EEEPT_SH_
FN:156,_ZSt12__to_addressISt23_Sp_counted_ptr_inplaceISaIvESaIS1_ELN9__gnu_cxx12_Lock_policyE2EEEPT_S7_
FNDA:8,_ZSt12__to_addressISt23_Sp_counted_ptr_inplaceISaIvESaIS1_ELN9__gnu_cxx12_Lock_policyE2EEEPT_S7_
FN:156,_ZSt12__to_addressISt23_Sp_counted_ptr_inplaceISaIN8std_msgs3msg7String_ISaIvEEEESaIS6_ELN9__gnu_cxx12_Lock_policyE2EEEPT_SC_
FNDA:2,_ZSt12__to_addressISt23_Sp_counted_ptr_inplaceISaIN8std_msgs3msg7String_ISaIvEEEESaIS6_ELN9__gnu_cxx12_Lock_policyE2EEEPT_SC_
FN:156,_ZSt12__to_addressIPNSt8__detail15_Hash_node_baseEEPT_S4_
FNDA:1,_ZSt12__to_addressIPNSt8__detail15_Hash_node_baseEEPT_S4_
FN:156,_ZSt12__to_addressISt19_Sp_counted_deleterIPN6rclcpp12experimental19IntraProcessManagerEZNS1_7Context15get_sub_contextIS3_JEEESt10shared_ptrIT_EDpOT0_EUlS4_E_SaIvELN9__gnu_cxx12_Lock_policyE2EEEPS8_SI_
FNDA:0,_ZSt12__to_addressISt19_Sp_counted_deleterIPN6rclcpp12experimental19IntraProcessManagerEZNS1_7Context15get_sub_contextIS3_JEEESt10shared_ptrIT_EDpOT0_EUlS4_E_SaIvELN9__gnu_cxx12_Lock_policyE2EEEPS8_SI_
FN:156,_ZSt12__to_addressISt23_Sp_counted_ptr_inplaceIN6rclcpp9PublisherIN8std_msgs3msg7String_ISaIvEEES6_EESaIS8_ELN9__gnu_cxx12_Lock_policyE2EEEPT_SE_
FNDA:2,_ZSt12__to_addressISt23_Sp_counted_ptr_inplaceIN6rclcpp9PublisherIN8std_msgs3msg7String_ISaIvEEES6_EESaIS8_ELN9__gnu_cxx12_Lock_policyE2EEEPT_SE_
FN:156,_ZSt12__to_addressINSt8__detail10_Hash_nodeISt4pairIKSt10type_indexSt10shared_ptrIvEELb0EEEEPT_SA_
FNDA:0,_ZSt12__to_addressINSt8__detail10_Hash_nodeISt4pairIKSt10type_indexSt10shared_ptrIvEELb0EEEEPT_SA_
FN:156,_ZSt12__to_addressISt23_Sp_counted_ptr_inplaceIN6rclcpp4NodeESaIS2_ELN9__gnu_cxx12_Lock_policyE2EEEPT_S8_
FNDA:4,_ZSt12__to_addressISt23_Sp_counted_ptr_inplaceIN6rclcpp4NodeESaIS2_ELN9__gnu_cxx12_Lock_policyE2EEEPT_S8_
DA:146,0
DA:147,0
DA:146,0
DA:147,0
DA:156,0
DA:159,0
DA:156,0
DA:159,0
DA:156,2
DA:159,2
DA:156,0
DA:159,0
DA:156,0
DA:159,0
DA:156,0
DA:159,0
DA:156,8
DA:159,8
DA:156,2
DA:159,2
DA:156,1
DA:159,1
DA:156,0
DA:159,0
DA:156,2
DA:159,2
DA:156,0
DA:159,0
DA:156,4
DA:159,4
end_of_record
SF:/usr/include/c++/9/typeinfo
FN:99,_ZNKSt9type_info4nameEv
FNDA:1,_ZNKSt9type_info4nameEv
FN:120,_ZNKSt9type_infoeqERKS_
FNDA:4,_ZNKSt9type_infoeqERKS_
FN:140,_ZNKSt9type_info9hash_codeEv
FNDA:0,_ZNKSt9type_info9hash_codeEv
DA:99,1
DA:100,1
DA:120,4
DA:122,4
DA:123,4
DA:124,4
DA:140,0
DA:143,0
DA:144,0
end_of_record
SF:/opt/ros/foxy/include/rclcpp/node.hpp
FN:77,_ZN6rclcpp4Node11make_sharedIJRA18_KcEEESt10shared_ptrIS0_EDpOT_
FNDA:1,_ZN6rclcpp4Node11make_sharedIJRA18_KcEEESt10shared_ptrIS0_EDpOT_
DA:77,1
end_of_record
SF:/usr/include/c++/9/bits/stl_iterator_base_funcs.h
FN:98,_ZSt10__distanceIN9__gnu_cxx17__normal_iteratorIPKmSt6vectorImSaImEEEEENSt15iterator_traitsIT_E15difference_typeES9_S9_St26random_access_iterator_tag
FNDA:0,_ZSt10__distanceIN9__gnu_cxx17__normal_iteratorIPKmSt6vectorImSaImEEEEENSt15iterator_traitsIT_E15difference_typeES9_S9_St26random_access_iterator_tag
FN:98,_ZSt10__distanceIPcENSt15iterator_traitsIT_E15difference_typeES2_S2_St26random_access_iterator_tag
FNDA:0,_ZSt10__distanceIPcENSt15iterator_traitsIT_E15difference_typeES2_S2_St26random_access_iterator_tag
FN:98,_ZSt10__distanceIPKcENSt15iterator_traitsIT_E15difference_typeES3_S3_St26random_access_iterator_tag
FNDA:0,_ZSt10__distanceIPKcENSt15iterator_traitsIT_E15difference_typeES3_S3_St26random_access_iterator_tag
FN:138,_ZSt8distanceIN9__gnu_cxx17__normal_iteratorIPKmSt6vectorImSaImEEEEENSt15iterator_traitsIT_E15difference_typeES9_S9_
FNDA:0,_ZSt8distanceIN9__gnu_cxx17__normal_iteratorIPKmSt6vectorImSaImEEEEENSt15iterator_traitsIT_E15difference_typeES9_S9_
FN:138,_ZSt8distanceIPcENSt15iterator_traitsIT_E15difference_typeES2_S2_
FNDA:0,_ZSt8distanceIPcENSt15iterator_traitsIT_E15difference_typeES2_S2_
FN:138,_ZSt8distanceIPKcENSt15iterator_traitsIT_E15difference_typeES3_S3_
FNDA:0,_ZSt8distanceIPKcENSt15iterator_traitsIT_E15difference_typeES3_S3_
FN:174,_ZSt9__advanceIN9__gnu_cxx17__normal_iteratorIPKmSt6vectorImSaImEEEElEvRT_T0_St26random_access_iterator_tag
FNDA:0,_ZSt9__advanceIN9__gnu_cxx17__normal_iteratorIPKmSt6vectorImSaImEEEElEvRT_T0_St26random_access_iterator_tag
FN:174,_ZSt9__advanceIN9__gnu_cxx17__normal_iteratorIPmSt6vectorImSaImEEEElEvRT_T0_St26random_access_iterator_tag
FNDA:0,_ZSt9__advanceIN9__gnu_cxx17__normal_iteratorIPmSt6vectorImSaImEEEElEvRT_T0_St26random_access_iterator_tag
FN:202,_ZSt7advanceIN9__gnu_cxx17__normal_iteratorIPKmSt6vectorImSaImEEEEmEvRT_T0_
FNDA:0,_ZSt7advanceIN9__gnu_cxx17__normal_iteratorIPKmSt6vectorImSaImEEEEmEvRT_T0_
FN:202,_ZSt7advanceIN9__gnu_cxx17__normal_iteratorIPmSt6vectorImSaImEEEElEvRT_T0_
FNDA:0,_ZSt7advanceIN9__gnu_cxx17__normal_iteratorIPmSt6vectorImSaImEEEElEvRT_T0_
FN:213,_ZSt4nextIN9__gnu_cxx17__normal_iteratorIPmSt6vectorImSaImEEEEET_S7_NSt15iterator_traitsIS7_E15difference_typeE
FNDA:0,_ZSt4nextIN9__gnu_cxx17__normal_iteratorIPmSt6vectorImSaImEEEEET_S7_NSt15iterator_traitsIS7_E15difference_typeE
DA:98,0
DA:104,0
DA:98,0
DA:104,0
DA:98,0
DA:104,0
DA:138,0
DA:141,0
DA:142,0
DA:138,0
DA:141,0
DA:142,0
DA:138,0
DA:141,0
DA:142,0
DA:174,0
DA:185,0
DA:186,0
DA:174,0
DA:185,0
DA:186,0
DA:202,0
DA:205,0
DA:206,0
DA:207,0
DA:202,0
DA:205,0
DA:206,0
DA:207,0
DA:213,0
DA:218,0
DA:219,0
end_of_record
SF:/usr/include/c++/9/bits/alloc_traits.h
FN:442,_ZNSt16allocator_traitsISaISt10shared_ptrIN6rclcpp19QOSEventHandlerBaseEEEE8allocateERS4_m
FNDA:0,_ZNSt16allocator_traitsISaISt10shared_ptrIN6rclcpp19QOSEventHandlerBaseEEEE8allocateERS4_m
FN:442,_ZNSt16allocator_traitsISaISt23_Sp_counted_ptr_inplaceIN6rclcpp15QOSEventHandlerISt8functionIFvR28rmw_liveliness_lost_status_tEESt10shared_ptrI15rcl_publisher_tEEESaISB_ELN9__gnu_cxx12_Lock_policyE2EEEE8allocateERSG_m
FNDA:0,_ZNSt16allocator_traitsISaISt23_Sp_counted_ptr_inplaceIN6rclcpp15QOSEventHandlerISt8functionIFvR28rmw_liveliness_lost_status_tEESt10shared_ptrI15rcl_publisher_tEEESaISB_ELN9__gnu_cxx12_Lock_policyE2EEEE8allocateERSG_m
FN:442,_ZNSt16allocator_traitsISaISt23_Sp_counted_ptr_inplaceIN6rclcpp15QOSEventHandlerISt8functionIFvR35rmw_qos_incompatible_event_status_tEESt10shared_ptrI15rcl_publisher_tEEESaISB_ELN9__gnu_cxx12_Lock_policyE2EEEE8allocateERSG_m
FNDA:0,_ZNSt16allocator_traitsISaISt23_Sp_counted_ptr_inplaceIN6rclcpp15QOSEventHandlerISt8functionIFvR35rmw_qos_incompatible_event_status_tEESt10shared_ptrI15rcl_publisher_tEEESaISB_ELN9__gnu_cxx12_Lock_policyE2EEEE8allocateERSG_m
FN:442,_ZNSt16allocator_traitsISaISt23_Sp_counted_ptr_inplaceIN6rclcpp15QOSEventHandlerISt8functionIFvR36rmw_offered_deadline_missed_status_tEESt10shared_ptrI15rcl_publisher_tEEESaISB_ELN9__gnu_cxx12_Lock_policyE2EEEE8allocateERSG_m
FNDA:0,_ZNSt16allocator_traitsISaISt23_Sp_counted_ptr_inplaceIN6rclcpp15QOSEventHandlerISt8functionIFvR36rmw_offered_deadline_missed_status_tEESt10shared_ptrI15rcl_publisher_tEEESaISB_ELN9__gnu_cxx12_Lock_policyE2EEEE8allocateERSG_m
FN:442,_ZNSt16allocator_traitsISaISt23_Sp_counted_ptr_inplaceIN6rclcpp15QOSEventHandlerIZNS1_9PublisherIN8std_msgs3msg7String_ISaIvEEES7_EC4EPNS1_15node_interfaces17NodeBaseInterfaceERKNSt7__cxx1112basic_stringIcSt11char_traitsIcESaIcEEERKNS1_3QoSERKNS1_29PublisherOptionsWithAllocatorIS7_EEEUlR35rmw_qos_incompatible_event_status_tE_St10shared_ptrI15rcl_publisher_tEEESaISY_ELN9__gnu_cxx12_Lock_policyE2EEEE8allocateERS13_m
FNDA:2,_ZNSt16allocator_traitsISaISt23_Sp_counted_ptr_inplaceIN6rclcpp15QOSEventHandlerIZNS1_9PublisherIN8std_msgs3msg7String_ISaIvEEES7_EC4EPNS1_15node_interfaces17NodeBaseInterfaceERKNSt7__cxx1112basic_stringIcSt11char_traitsIcESaIcEEERKNS1_3QoSERKNS1_29PublisherOptionsWithAllocatorIS7_EEEUlR35rmw_qos_incompatible_event_status_tE_St10shared_ptrI15rcl_publisher_tEEESaISY_ELN9__gnu_cxx12_Lock_policyE2EEEE8allocateERS13_m
FN:442,_ZNSt16allocator_traitsISaISt23_Sp_counted_ptr_inplaceISaIvESaIS1_ELN9__gnu_cxx12_Lock_policyE2EEEE8allocateERS6_m
FNDA:8,_ZNSt16allocator_traitsISaISt23_Sp_counted_ptr_inplaceISaIvESaIS1_ELN9__gnu_cxx12_Lock_policyE2EEEE8allocateERS6_m
FN:442,_ZNSt16allocator_traitsISaISt23_Sp_counted_ptr_inplaceISaIN8std_msgs3msg7String_ISaIvEEEESaIS6_ELN9__gnu_cxx12_Lock_policyE2EEEE8allocateERSB_m
FNDA:2,_ZNSt16allocator_traitsISaISt23_Sp_counted_ptr_inplaceISaIN8std_msgs3msg7String_ISaIvEEEESaIS6_ELN9__gnu_cxx12_Lock_policyE2EEEE8allocateERSB_m
FN:442,_ZNSt16allocator_traitsISaISt23_Sp_counted_ptr_inplaceIN6rclcpp4NodeESaIS2_ELN9__gnu_cxx12_Lock_policyE2EEEE8allocateERS7_m
FNDA:4,_ZNSt16allocator_traitsISaISt23_Sp_counted_ptr_inplaceIN6rclcpp4NodeESaIS2_ELN9__gnu_cxx12_Lock_policyE2EEEE8allocateERS7_m
FN:442,_ZNSt16allocator_traitsISaImEE8allocateERS0_m
FNDA:0,_ZNSt16allocator_traitsISaImEE8allocateERS0_m
FN:442,_ZNSt16allocator_traitsISaINSt8__detail10_Hash_nodeISt4pairIKSt10type_indexSt10shared_ptrIvEELb0EEEEE8allocateERS9_m
FNDA:0,_ZNSt16allocator_traitsISaINSt8__detail10_Hash_nodeISt4pairIKSt10type_indexSt10shared_ptrIvEELb0EEEEE8allocateERS9_m
FN:442,_ZNSt16allocator_traitsISaIN8std_msgs3msg7String_ISaIvEEEEE8allocateERS5_m
FNDA:10,_ZNSt16allocator_traitsISaIN8std_msgs3msg7String_ISaIvEEEEE8allocateERS5_m
FN:442,_ZNSt16allocator_traitsISaIPNSt8__detail15_Hash_node_baseEEE8allocateERS3_m
FNDA:1,_ZNSt16allocator_traitsISaIPNSt8__detail15_Hash_node_baseEEE8allocateERS3_m
FN:442,_ZNSt16allocator_traitsISaISt19_Sp_counted_deleterIPN8std_msgs3msg7String_ISaIvEEESt14default_deleteIS5_ES4_LN9__gnu_cxx12_Lock_policyE2EEEE8allocateERSC_m
FNDA:0,_ZNSt16allocator_traitsISaISt19_Sp_counted_deleterIPN8std_msgs3msg7String_ISaIvEEESt14default_deleteIS5_ES4_LN9__gnu_cxx12_Lock_policyE2EEEE8allocateERSC_m
FN:442,_ZNSt16allocator_traitsISaISt19_Sp_counted_deleterIPN6rclcpp12experimental19IntraProcessManagerEZNS1_7Context15get_sub_contextIS3_JEEESt10shared_ptrIT_EDpOT0_EUlS4_E_SaIvELN9__gnu_cxx12_Lock_policyE2EEEE8allocateERSI_m
FNDA:0,_ZNSt16allocator_traitsISaISt19_Sp_counted_deleterIPN6rclcpp12experimental19IntraProcessManagerEZNS1_7Context15get_sub_contextIS3_JEEESt10shared_ptrIT_EDpOT0_EUlS4_E_SaIvELN9__gnu_cxx12_Lock_policyE2EEEE8allocateERSI_m
FN:442,_ZNSt16allocator_traitsISaISt23_Sp_counted_ptr_inplaceIN8std_msgs3msg7String_ISaIvEEESaIS5_ELN9__gnu_cxx12_Lock_policyE2EEEE8allocateERSA_m
FNDA:0,_ZNSt16allocator_traitsISaISt23_Sp_counted_ptr_inplaceIN8std_msgs3msg7String_ISaIvEEESaIS5_ELN9__gnu_cxx12_Lock_policyE2EEEE8allocateERSA_m
FN:442,_ZNSt16allocator_traitsISaISt23_Sp_counted_ptr_inplaceIN6rclcpp9PublisherIN8std_msgs3msg7String_ISaIvEEES6_EESaIS8_ELN9__gnu_cxx12_Lock_policyE2EEEE8allocateERSD_m
FNDA:2,_ZNSt16allocator_traitsISaISt23_Sp_counted_ptr_inplaceIN6rclcpp9PublisherIN8std_msgs3msg7String_ISaIvEEES6_EESaIS8_ELN9__gnu_cxx12_Lock_policyE2EEEE8allocateERSD_m
FN:468,_ZNSt16allocator_traitsISaIN8std_msgs3msg7String_ISaIvEEEEE10deallocateERS5_PS4_m
FNDA:10,_ZNSt16allocator_traitsISaIN8std_msgs3msg7String_ISaIvEEEEE10deallocateERS5_PS4_m
FN:468,_ZNSt16allocator_traitsISaIPNSt8__detail15_Hash_node_baseEEE10deallocateERS3_PS2_m
FNDA:0,_ZNSt16allocator_traitsISaIPNSt8__detail15_Hash_node_baseEEE10deallocateERS3_PS2_m
FN:468,_ZNSt16allocator_traitsISaISt19_Sp_counted_deleterIPN8std_msgs3msg7String_ISaIvEEESt14default_deleteIS5_ES4_LN9__gnu_cxx12_Lock_policyE2EEEE10deallocateERSC_PSB_m
FNDA:0,_ZNSt16allocator_traitsISaISt19_Sp_counted_deleterIPN8std_msgs3msg7String_ISaIvEEESt14default_deleteIS5_ES4_LN9__gnu_cxx12_Lock_policyE2EEEE10deallocateERSC_PSB_m
FN:468,_ZNSt16allocator_traitsISaISt19_Sp_counted_deleterIPN6rclcpp12experimental19IntraProcessManagerEZNS1_7Context15get_sub_contextIS3_JEEESt10shared_ptrIT_EDpOT0_EUlS4_E_SaIvELN9__gnu_cxx12_Lock_policyE2EEEE10deallocateERSI_PSH_m
FNDA:0,_ZNSt16allocator_traitsISaISt19_Sp_counted_deleterIPN6rclcpp12experimental19IntraProcessManagerEZNS1_7Context15get_sub_contextIS3_JEEESt10shared_ptrIT_EDpOT0_EUlS4_E_SaIvELN9__gnu_cxx12_Lock_policyE2EEEE10deallocateERSI_PSH_m
FN:468,_ZNSt16allocator_traitsISaISt10shared_ptrIN6rclcpp19QOSEventHandlerBaseEEEE10deallocateERS4_PS3_m
FNDA:0,_ZNSt16allocator_traitsISaISt10shared_ptrIN6rclcpp19QOSEventHandlerBaseEEEE10deallocateERS4_PS3_m
FN:468,_ZNSt16allocator_traitsISaISt23_Sp_counted_ptr_inplaceISaIN8std_msgs3msg7String_ISaIvEEEESaIS6_ELN9__gnu_cxx12_Lock_policyE2EEEE10deallocateERSB_PSA_m
FNDA:2,_ZNSt16allocator_traitsISaISt23_Sp_counted_ptr_inplaceISaIN8std_msgs3msg7String_ISaIvEEEESaIS6_ELN9__gnu_cxx12_Lock_policyE2EEEE10deallocateERSB_PSA_m
FN:468,_ZNSt16allocator_traitsISaISt23_Sp_counted_ptr_inplaceISaIvESaIS1_ELN9__gnu_cxx12_Lock_policyE2EEEE10deallocateERS6_PS5_m
FNDA:28,_ZNSt16allocator_traitsISaISt23_Sp_counted_ptr_inplaceISaIvESaIS1_ELN9__gnu_cxx12_Lock_policyE2EEEE10deallocateERS6_PS5_m
FN:468,_ZNSt16allocator_traitsISaISt23_Sp_counted_ptr_inplaceIN6rclcpp9PublisherIN8std_msgs3msg7String_ISaIvEEES6_EESaIS8_ELN9__gnu_cxx12_Lock_policyE2EEEE10deallocateERSD_PSC_m
FNDA:2,_ZNSt16allocator_traitsISaISt23_Sp_counted_ptr_inplaceIN6rclcpp9PublisherIN8std_msgs3msg7String_ISaIvEEES6_EESaIS8_ELN9__gnu_cxx12_Lock_policyE2EEEE10deallocateERSD_PSC_m
FN:468,_ZNSt16allocator_traitsISaISt23_Sp_counted_ptr_inplaceIN6rclcpp15QOSEventHandlerISt8functionIFvR36rmw_offered_deadline_missed_status_tEESt10shared_ptrI15rcl_publisher_tEEESaISB_ELN9__gnu_cxx12_Lock_policyE2EEEE10deallocateERSG_PSF_m
FNDA:0,_ZNSt16allocator_traitsISaISt23_Sp_counted_ptr_inplaceIN6rclcpp15QOSEventHandlerISt8functionIFvR36rmw_offered_deadline_missed_status_tEESt10shared_ptrI15rcl_publisher_tEEESaISB_ELN9__gnu_cxx12_Lock_policyE2EEEE10deallocateERSG_PSF_m
FN:468,_ZNSt16allocator_traitsISaINSt8__detail10_Hash_nodeISt4pairIKSt10type_indexSt10shared_ptrIvEELb0EEEEE10deallocateERS9_PS8_m
FNDA:0,_ZNSt16allocator_traitsISaINSt8__detail10_Hash_nodeISt4pairIKSt10type_indexSt10shared_ptrIvEELb0EEEEE10deallocateERS9_PS8_m
FN:468,_ZNSt16allocator_traitsISaISt23_Sp_counted_ptr_inplaceIN6rclcpp15QOSEventHandlerISt8functionIFvR28rmw_liveliness_lost_status_tEESt10shared_ptrI15rcl_publisher_tEEESaISB_ELN9__gnu_cxx12_Lock_policyE2EEEE10deallocateERSG_PSF_m
FNDA:0,_ZNSt16allocator_traitsISaISt23_Sp_counted_ptr_inplaceIN6rclcpp15QOSEventHandlerISt8functionIFvR28rmw_liveliness_lost_status_tEESt10shared_ptrI15rcl_publisher_tEEESaISB_ELN9__gnu_cxx12_Lock_policyE2EEEE10deallocateERSG_PSF_m
FN:468,_ZNSt16allocator_traitsISaINSt7__cxx1112basic_stringIcSt11char_traitsIcESaIcEEEEE10deallocateERS6_PS5_m
FNDA:41,_ZNSt16allocator_traitsISaINSt7__cxx1112basic_stringIcSt11char_traitsIcESaIcEEEEE10deallocateERS6_PS5_m
FN:468,_ZNSt16allocator_traitsISaISt23_Sp_counted_ptr_inplaceIN6rclcpp15QOSEventHandlerISt8functionIFvR35rmw_qos_incompatible_event_status_tEESt10shared_ptrI15rcl_publisher_tEEESaISB_ELN9__gnu_cxx12_Lock_policyE2EEEE10deallocateERSG_PSF_m
FNDA:0,_ZNSt16allocator_traitsISaISt23_Sp_counted_ptr_inplaceIN6rclcpp15QOSEventHandlerISt8functionIFvR35rmw_qos_incompatible_event_status_tEESt10shared_ptrI15rcl_publisher_tEEESaISB_ELN9__gnu_cxx12_Lock_policyE2EEEE10deallocateERSG_PSF_m
FN:468,_ZNSt16allocator_traitsISaISt23_Sp_counted_ptr_inplaceIN8std_msgs3msg7String_ISaIvEEESaIS5_ELN9__gnu_cxx12_Lock_policyE2EEEE10deallocateERSA_PS9_m
FNDA:0,_ZNSt16allocator_traitsISaISt23_Sp_counted_ptr_inplaceIN8std_msgs3msg7String_ISaIvEEESaIS5_ELN9__gnu_cxx12_Lock_policyE2EEEE10deallocateERSA_PS9_m
FN:468,_ZNSt16allocator_traitsISaISt23_Sp_counted_ptr_inplaceIN6rclcpp15QOSEventHandlerIZNS1_9PublisherIN8std_msgs3msg7String_ISaIvEEES7_EC4EPNS1_15node_interfaces17NodeBaseInterfaceERKNSt7__cxx1112basic_stringIcSt11char_traitsIcESaIcEEERKNS1_3QoSERKNS1_29PublisherOptionsWithAllocatorIS7_EEEUlR35rmw_qos_incompatible_event_status_tE_St10shared_ptrI15rcl_publisher_tEEESaISY_ELN9__gnu_cxx12_Lock_policyE2EEEE10deallocateERS13_PS12_m
FNDA:2,_ZNSt16allocator_traitsISaISt23_Sp_counted_ptr_inplaceIN6rclcpp15QOSEventHandlerIZNS1_9PublisherIN8std_msgs3msg7String_ISaIvEEES7_EC4EPNS1_15node_interfaces17NodeBaseInterfaceERKNSt7__cxx1112basic_stringIcSt11char_traitsIcESaIcEEERKNS1_3QoSERKNS1_29PublisherOptionsWithAllocatorIS7_EEEUlR35rmw_qos_incompatible_event_status_tE_St10shared_ptrI15rcl_publisher_tEEESaISY_ELN9__gnu_cxx12_Lock_policyE2EEEE10deallocateERS13_PS12_m
FN:468,_ZNSt16allocator_traitsISaImEE10deallocateERS0_Pmm
FNDA:0,_ZNSt16allocator_traitsISaImEE10deallocateERS0_Pmm
FN:468,_ZNSt16allocator_traitsISaIhEE10deallocateERS0_Phm
FNDA:0,_ZNSt16allocator_traitsISaIhEE10deallocateERS0_Phm
FN:468,_ZNSt16allocator_traitsISaIlEE10deallocateERS0_Plm
FNDA:0,_ZNSt16allocator_traitsISaIlEE10deallocateERS0_Plm
FN:468,_ZNSt16allocator_traitsISaIdEE10deallocateERS0_Pdm
FNDA:0,_ZNSt16allocator_traitsISaIdEE10deallocateERS0_Pdm
FN:468,_ZNSt16allocator_traitsISaISt23_Sp_counted_ptr_inplaceIN6rclcpp4NodeESaIS2_ELN9__gnu_cxx12_Lock_policyE2EEEE10deallocateERS7_PS6_m
FNDA:4,_ZNSt16allocator_traitsISaISt23_Sp_counted_ptr_inplaceIN6rclcpp4NodeESaIS2_ELN9__gnu_cxx12_Lock_policyE2EEEE10deallocateERS7_PS6_m
FN:468,_ZNSt16allocator_traitsISaIN6rclcpp9ParameterEEE10deallocateERS2_PS1_m
FNDA:0,_ZNSt16allocator_traitsISaIN6rclcpp9ParameterEEE10deallocateERS2_PS1_m
FN:481,_ZNSt16allocator_traitsISaISt10shared_ptrIN6rclcpp19QOSEventHandlerBaseEEEE9constructIS3_JRS0_INS1_15QOSEventHandlerISt8functionIFvR36rmw_offered_deadline_missed_status_tEES0_I15rcl_publisher_tEEEEEEEvRS4_PT_DpOT0_
FNDA:0,_ZNSt16allocator_traitsISaISt10shared_ptrIN6rclcpp19QOSEventHandlerBaseEEEE9constructIS3_JRS0_INS1_15QOSEventHandlerISt8functionIFvR36rmw_offered_deadline_missed_status_tEES0_I15rcl_publisher_tEEEEEEEvRS4_PT_DpOT0_
FN:481,_ZNSt16allocator_traitsISaIN6rclcpp15QOSEventHandlerISt8functionIFvR36rmw_offered_deadline_missed_status_tEESt10shared_ptrI15rcl_publisher_tEEEEE9constructISA_JRKS6_RFiP11rcl_event_tPKS8_26rcl_publisher_event_type_tERS9_RKSK_EEEvRSB_PT_DpOT0_
FNDA:0,_ZNSt16allocator_traitsISaIN6rclcpp15QOSEventHandlerISt8functionIFvR36rmw_offered_deadline_missed_status_tEESt10shared_ptrI15rcl_publisher_tEEEEE9constructISA_JRKS6_RFiP11rcl_event_tPKS8_26rcl_publisher_event_type_tERS9_RKSK_EEEvRSB_PT_DpOT0_
FN:481,_ZNSt16allocator_traitsISaIN8std_msgs3msg7String_ISaIvEEEEE9constructIS4_JRKS4_EEEvRS5_PT_DpOT0_
FNDA:0,_ZNSt16allocator_traitsISaIN8std_msgs3msg7String_ISaIvEEEEE9constructIS4_JRKS4_EEEvRS5_PT_DpOT0_
FN:481,_ZNSt16allocator_traitsISaIN8std_msgs3msg7String_ISaIvEEEEE9constructIS4_JRS4_EEEvRS5_PT_DpOT0_
FNDA:0,_ZNSt16allocator_traitsISaIN8std_msgs3msg7String_ISaIvEEEEE9constructIS4_JRS4_EEEvRS5_PT_DpOT0_
FN:481,_ZNSt16allocator_traitsISaISt19_Sp_counted_deleterIPN8std_msgs3msg7String_ISaIvEEESt14default_deleteIS5_ES4_LN9__gnu_cxx12_Lock_policyE2EEEE9constructISB_JS6_RS8_EEEvRSC_PT_DpOT0_
FNDA:0,_ZNSt16allocator_traitsISaISt19_Sp_counted_deleterIPN8std_msgs3msg7String_ISaIvEEESt14default_deleteIS5_ES4_LN9__gnu_cxx12_Lock_policyE2EEEE9constructISB_JS6_RS8_EEEvRSC_PT_DpOT0_
FN:481,_ZNSt16allocator_traitsISaINSt8__detail10_Hash_nodeISt4pairIKSt10type_indexSt10shared_ptrIvEELb0EEEEE9constructIS7_JRKSt21piecewise_construct_tSt5tupleIJRS4_EESF_IJEEEEEvRS9_PT_DpOT0_
FNDA:0,_ZNSt16allocator_traitsISaINSt8__detail10_Hash_nodeISt4pairIKSt10type_indexSt10shared_ptrIvEELb0EEEEE9constructIS7_JRKSt21piecewise_construct_tSt5tupleIJRS4_EESF_IJEEEEEvRS9_PT_DpOT0_
FN:481,_ZNSt16allocator_traitsISaIN6rclcpp9PublisherIN8std_msgs3msg7String_ISaIvEEES5_EEEE9constructIS7_JRPNS0_15node_interfaces17NodeBaseInterfaceERKNSt7__cxx1112basic_stringIcSt11char_traitsIcESaIcEEERKNS0_3QoSERKNS0_29PublisherOptionsWithAllocatorIS5_EEEEEvRS8_PT_DpOT0_
FNDA:2,_ZNSt16allocator_traitsISaIN6rclcpp9PublisherIN8std_msgs3msg7String_ISaIvEEES5_EEEE9constructIS7_JRPNS0_15node_interfaces17NodeBaseInterfaceERKNSt7__cxx1112basic_stringIcSt11char_traitsIcESaIcEEERKNS0_3QoSERKNS0_29PublisherOptionsWithAllocatorIS5_EEEEEvRS8_PT_DpOT0_
FN:481,_ZNSt16allocator_traitsISaISt10shared_ptrIN6rclcpp19QOSEventHandlerBaseEEEE9constructIS3_JRS0_INS1_15QOSEventHandlerISt8functionIFvR28rmw_liveliness_lost_status_tEES0_I15rcl_publisher_tEEEEEEEvRS4_PT_DpOT0_
FNDA:0,_ZNSt16allocator_traitsISaISt10shared_ptrIN6rclcpp19QOSEventHandlerBaseEEEE9constructIS3_JRS0_INS1_15QOSEventHandlerISt8functionIFvR28rmw_liveliness_lost_status_tEES0_I15rcl_publisher_tEEEEEEEvRS4_PT_DpOT0_
FN:481,_ZNSt16allocator_traitsISaISt10shared_ptrIN6rclcpp19QOSEventHandlerBaseEEEE9constructIS3_JRS0_INS1_15QOSEventHandlerISt8functionIFvR35rmw_qos_incompatible_event_status_tEES0_I15rcl_publisher_tEEEEEEEvRS4_PT_DpOT0_
FNDA:0,_ZNSt16allocator_traitsISaISt10shared_ptrIN6rclcpp19QOSEventHandlerBaseEEEE9constructIS3_JRS0_INS1_15QOSEventHandlerISt8functionIFvR35rmw_qos_incompatible_event_status_tEES0_I15rcl_publisher_tEEEEEEEvRS4_PT_DpOT0_
FN:481,_ZNSt16allocator_traitsISaISt10shared_ptrIN6rclcpp19QOSEventHandlerBaseEEEE9constructIS3_JRS0_INS1_15QOSEventHandlerIZNS1_9PublisherIN8std_msgs3msg7String_ISaIvEEESC_EC4EPNS1_15node_interfaces17NodeBaseInterfaceERKNSt7__cxx1112basic_stringIcSt11char_traitsIcESaIcEEERKNS1_3QoSERKNS1_29PublisherOptionsWithAllocatorISC_EEEUlR35rmw_qos_incompatible_event_status_tE_S0_I15rcl_publisher_tEEEEEEEvRS4_PT_DpOT0_
FNDA:0,_ZNSt16allocator_traitsISaISt10shared_ptrIN6rclcpp19QOSEventHandlerBaseEEEE9constructIS3_JRS0_INS1_15QOSEventHandlerIZNS1_9PublisherIN8std_msgs3msg7String_ISaIvEEESC_EC4EPNS1_15node_interfaces17NodeBaseInterfaceERKNSt7__cxx1112basic_stringIcSt11char_traitsIcESaIcEEERKNS1_3QoSERKNS1_29PublisherOptionsWithAllocatorISC_EEEUlR35rmw_qos_incompatible_event_status_tE_S0_I15rcl_publisher_tEEEEEEEvRS4_PT_DpOT0_
FN:481,_ZNSt16allocator_traitsISaIN6rclcpp4NodeEEE9constructIS1_JRA18_KcEEEvRS2_PT_DpOT0_
FNDA:1,_ZNSt16allocator_traitsISaIN6rclcpp4NodeEEE9constructIS1_JRA18_KcEEEvRS2_PT_DpOT0_
FN:481,_ZNSt16allocator_traitsISaISt10shared_ptrIN6rclcpp19QOSEventHandlerBaseEEEE9constructIS3_JS3_EEEvRS4_PT_DpOT0_
FNDA:0,_ZNSt16allocator_traitsISaISt10shared_ptrIN6rclcpp19QOSEventHandlerBaseEEEE9constructIS3_JS3_EEEvRS4_PT_DpOT0_
FN:481,_ZNSt16allocator_traitsISaIN6rclcpp15QOSEventHandlerIZNS0_9PublisherIN8std_msgs3msg7String_ISaIvEEES6_EC4EPNS0_15node_interfaces17NodeBaseInterfaceERKNSt7__cxx1112basic_stringIcSt11char_traitsIcESaIcEEERKNS0_3QoSERKNS0_29PublisherOptionsWithAllocatorIS6_EEEUlR35rmw_qos_incompatible_event_status_tE_St10shared_ptrI15rcl_publisher_tEEEEE9constructISX_JRKST_RFiP11rcl_event_tPKSV_26rcl_publisher_event_type_tERSW_RKS17_EEEvRSY_PT_DpOT0_
FNDA:2,_ZNSt16allocator_traitsISaIN6rclcpp15QOSEventHandlerIZNS0_9PublisherIN8std_msgs3msg7String_ISaIvEEES6_EC4EPNS0_15node_interfaces17NodeBaseInterfaceERKNSt7__cxx1112basic_stringIcSt11char_traitsIcESaIcEEERKNS0_3QoSERKNS0_29PublisherOptionsWithAllocatorIS6_EEEUlR35rmw_qos_incompatible_event_status_tE_St10shared_ptrI15rcl_publisher_tEEEEE9constructISX_JRKST_RFiP11rcl_event_tPKSV_26rcl_publisher_event_type_tERSW_RKS17_EEEvRSY_PT_DpOT0_
FN:481,_ZNSt16allocator_traitsISaISaIN8std_msgs3msg7String_ISaIvEEEEEE9constructIS5_JRS3_EEEvRS6_PT_DpOT0_
FNDA:2,_ZNSt16allocator_traitsISaISaIN8std_msgs3msg7String_ISaIvEEEEEE9constructIS5_JRS3_EEEvRS6_PT_DpOT0_
FN:481,_ZNSt16allocator_traitsISaIN6rclcpp15QOSEventHandlerISt8functionIFvR35rmw_qos_incompatible_event_status_tEESt10shared_ptrI15rcl_publisher_tEEEEE9constructISA_JRKS6_RFiP11rcl_event_tPKS8_26rcl_publisher_event_type_tERS9_RKSK_EEEvRSB_PT_DpOT0_
FNDA:0,_ZNSt16allocator_traitsISaIN6rclcpp15QOSEventHandlerISt8functionIFvR35rmw_qos_incompatible_event_status_tEESt10shared_ptrI15rcl_publisher_tEEEEE9constructISA_JRKS6_RFiP11rcl_event_tPKS8_26rcl_publisher_event_type_tERS9_RKSK_EEEvRSB_PT_DpOT0_
FN:481,_ZNSt16allocator_traitsISaISaIvEEE9constructIS0_JEEEvRS1_PT_DpOT0_
FNDA:8,_ZNSt16allocator_traitsISaISaIvEEE9constructIS0_JEEEvRS1_PT_DpOT0_
FN:481,_ZNSt16allocator_traitsISaIN6rclcpp15QOSEventHandlerISt8functionIFvR28rmw_liveliness_lost_status_tEESt10shared_ptrI15rcl_publisher_tEEEEE9constructISA_JRKS6_RFiP11rcl_event_tPKS8_26rcl_publisher_event_type_tERS9_RKSK_EEEvRSB_PT_DpOT0_
FNDA:0,_ZNSt16allocator_traitsISaIN6rclcpp15QOSEventHandlerISt8functionIFvR28rmw_liveliness_lost_status_tEESt10shared_ptrI15rcl_publisher_tEEEEE9constructISA_JRKS6_RFiP11rcl_event_tPKS8_26rcl_publisher_event_type_tERS9_RKSK_EEEvRSB_PT_DpOT0_
FN:494,_ZNSt16allocator_traitsISaIN8std_msgs3msg7String_ISaIvEEEEE7destroyIS4_EEvRS5_PT_
FNDA:0,_ZNSt16allocator_traitsISaIN8std_msgs3msg7String_ISaIvEEEEE7destroyIS4_EEvRS5_PT_
FN:494,_ZNSt16allocator_traitsISaINSt8__detail10_Hash_nodeISt4pairIKSt10type_indexSt10shared_ptrIvEELb0EEEEE7destroyIS7_EEvRS9_PT_
FNDA:0,_ZNSt16allocator_traitsISaINSt8__detail10_Hash_nodeISt4pairIKSt10type_indexSt10shared_ptrIvEELb0EEEEE7destroyIS7_EEvRS9_PT_
FN:494,_ZNSt16allocator_traitsISaISt10shared_ptrIN6rclcpp19QOSEventHandlerBaseEEEE7destroyIS3_EEvRS4_PT_
FNDA:0,_ZNSt16allocator_traitsISaISt10shared_ptrIN6rclcpp19QOSEventHandlerBaseEEEE7destroyIS3_EEvRS4_PT_
FN:494,_ZNSt16allocator_traitsISaIN6rclcpp15QOSEventHandlerIZNS0_9PublisherIN8std_msgs3msg7String_ISaIvEEES6_EC4EPNS0_15node_interfaces17NodeBaseInterfaceERKNSt7__cxx1112basic_stringIcSt11char_traitsIcESaIcEEERKNS0_3QoSERKNS0_29PublisherOptionsWithAllocatorIS6_EEEUlR35rmw_qos_incompatible_event_status_tE_St10shared_ptrI15rcl_publisher_tEEEEE7destroyISX_EEvRSY_PT_
FNDA:0,_ZNSt16allocator_traitsISaIN6rclcpp15QOSEventHandlerIZNS0_9PublisherIN8std_msgs3msg7String_ISaIvEEES6_EC4EPNS0_15node_interfaces17NodeBaseInterfaceERKNSt7__cxx1112basic_stringIcSt11char_traitsIcESaIcEEERKNS0_3QoSERKNS0_29PublisherOptionsWithAllocatorIS6_EEEUlR35rmw_qos_incompatible_event_status_tE_St10shared_ptrI15rcl_publisher_tEEEEE7destroyISX_EEvRSY_PT_
FN:494,_ZNSt16allocator_traitsISaIN6rclcpp15QOSEventHandlerISt8functionIFvR35rmw_qos_incompatible_event_status_tEESt10shared_ptrI15rcl_publisher_tEEEEE7destroyISA_EEvRSB_PT_
FNDA:0,_ZNSt16allocator_traitsISaIN6rclcpp15QOSEventHandlerISt8functionIFvR35rmw_qos_incompatible_event_status_tEESt10shared_ptrI15rcl_publisher_tEEEEE7destroyISA_EEvRSB_PT_
FN:494,_ZNSt16allocator_traitsISaIN6rclcpp15QOSEventHandlerISt8functionIFvR28rmw_liveliness_lost_status_tEESt10shared_ptrI15rcl_publisher_tEEEEE7destroyISA_EEvRSB_PT_
FNDA:0,_ZNSt16allocator_traitsISaIN6rclcpp15QOSEventHandlerISt8functionIFvR28rmw_liveliness_lost_status_tEESt10shared_ptrI15rcl_publisher_tEEEEE7destroyISA_EEvRSB_PT_
FN:494,_ZNSt16allocator_traitsISaIN6rclcpp15QOSEventHandlerISt8functionIFvR36rmw_offered_deadline_missed_status_tEESt10shared_ptrI15rcl_publisher_tEEEEE7destroyISA_EEvRSB_PT_
FNDA:0,_ZNSt16allocator_traitsISaIN6rclcpp15QOSEventHandlerISt8functionIFvR36rmw_offered_deadline_missed_status_tEESt10shared_ptrI15rcl_publisher_tEEEEE7destroyISA_EEvRSB_PT_
FN:494,_ZNSt16allocator_traitsISaISaIvEEE7destroyIS0_EEvRS1_PT_
FNDA:28,_ZNSt16allocator_traitsISaISaIvEEE7destroyIS0_EEvRS1_PT_
FN:494,_ZNSt16allocator_traitsISaISaIN8std_msgs3msg7String_ISaIvEEEEEE7destroyIS5_EEvRS6_PT_
FNDA:2,_ZNSt16allocator_traitsISaISaIN8std_msgs3msg7String_ISaIvEEEEEE7destroyIS5_EEvRS6_PT_
FN:494,_ZNSt16allocator_traitsISaIN6rclcpp9PublisherIN8std_msgs3msg7String_ISaIvEEES5_EEEE7destroyIS7_EEvRS8_PT_
FNDA:2,_ZNSt16allocator_traitsISaIN6rclcpp9PublisherIN8std_msgs3msg7String_ISaIvEEES5_EEEE7destroyIS7_EEvRS8_PT_
FN:494,_ZNSt16allocator_traitsISaIN6rclcpp4NodeEEE7destroyIS1_EEvRS2_PT_
FNDA:4,_ZNSt16allocator_traitsISaIN6rclcpp4NodeEEE7destroyIS1_EEvRS2_PT_
FN:504,_ZNSt16allocator_traitsISaISt10shared_ptrIN6rclcpp19QOSEventHandlerBaseEEEE8max_sizeERKS4_
FNDA:0,_ZNSt16allocator_traitsISaISt10shared_ptrIN6rclcpp19QOSEventHandlerBaseEEEE8max_sizeERKS4_
FN:504,_ZNSt16allocator_traitsISaImEE8max_sizeERKS0_
FNDA:0,_ZNSt16allocator_traitsISaImEE8max_sizeERKS0_
FN:513,_ZNSt16allocator_traitsISaImEE37select_on_container_copy_constructionERKS0_
FNDA:0,_ZNSt16allocator_traitsISaImEE37select_on_container_copy_constructionERKS0_
FN:513,_ZNSt16allocator_traitsISaIcEE37select_on_container_copy_constructionERKS0_
FNDA:0,_ZNSt16allocator_traitsISaIcEE37select_on_container_copy_constructionERKS0_
DA:442,0
DA:443,0
DA:442,0
DA:443,0
DA:442,2
DA:443,2
DA:442,0
DA:443,0
DA:442,0
DA:443,0
DA:442,0
DA:443,0
DA:442,8
DA:443,8
DA:442,2
DA:443,2
DA:442,0
DA:443,0
DA:442,10
DA:443,10
DA:442,1
DA:443,1
DA:442,0
DA:443,0
DA:442,2
DA:443,2
DA:442,0
DA:443,0
DA:442,4
DA:443,4
DA:442,0
DA:443,0
DA:468,0
DA:469,0
DA:468,41
DA:469,41
DA:468,0
DA:469,0
DA:468,0
DA:469,0
DA:468,0
DA:469,0
DA:468,0
DA:469,0
DA:468,0
DA:469,0
DA:468,4
DA:469,4
DA:468,0
DA:469,0
DA:468,2
DA:469,2
DA:468,0
DA:469,0
DA:468,0
DA:469,0
DA:468,10
DA:469,10
DA:468,0
DA:469,0
DA:468,2
DA:469,2
DA:468,28
DA:469,28
DA:468,0
DA:469,0
DA:468,0
DA:469,0
DA:468,0
DA:469,0
DA:468,2
DA:469,2
DA:468,0
DA:469,0
DA:481,8
DA:483,8
DA:481,1
DA:483,1
DA:481,0
DA:483,0
DA:481,2
DA:483,2
DA:481,0
DA:483,0
DA:481,0
DA:483,0
DA:481,0
DA:483,0
DA:481,0
DA:483,0
DA:481,2
DA:483,2
DA:481,0
DA:483,0
DA:481,0
DA:483,0
DA:481,0
DA:483,0
DA:481,0
DA:483,0
DA:481,2
DA:483,2
DA:481,0
DA:483,0
DA:481,0
DA:483,0
DA:481,0
DA:483,0
DA:494,0
DA:496,0
DA:494,4
DA:496,4
DA:494,2
DA:496,2
DA:494,2
DA:496,2
DA:494,28
DA:496,28
DA:494,0
DA:496,0
DA:494,0
DA:496,0
DA:494,0
DA:496,0
DA:494,0
DA:496,0
DA:494,0
DA:496,0
DA:494,0
DA:496,0
DA:504,0
DA:505,0
DA:504,0
DA:505,0
DA:513,0
DA:514,0
DA:513,0
DA:514,0
end_of_record
SF:/opt/ros/foxy/include/rclcpp/node_interfaces/get_node_topics_interface.hpp
FN:53,_ZN6rclcpp15node_interfaces6detail38get_node_topics_interface_from_pointerIPNS_4NodeELi0EEESt10shared_ptrINS0_19NodeTopicsInterfaceEET_
FNDA:4,_ZN6rclcpp15node_interfaces6detail38get_node_topics_interface_from_pointerIPNS_4NodeELi0EEESt10shared_ptrINS0_19NodeTopicsInterfaceEET_
FN:87,_ZN6rclcpp15node_interfaces25get_node_topics_interfaceIRNS_4NodeELi0EEESt10shared_ptrINS0_19NodeTopicsInterfaceEEOT_
FNDA:4,_ZN6rclcpp15node_interfaces25get_node_topics_interfaceIRNS_4NodeELi0EEESt10shared_ptrINS0_19NodeTopicsInterfaceEEOT_
DA:53,4
DA:55,4
DA:56,0
DA:58,4
DA:87,4
DA:90,4
end_of_record
SF:/opt/ros/foxy/include/rclcpp/experimental/intra_process_manager.hpp
FN:181,_ZN6rclcpp12experimental19IntraProcessManager24do_intra_process_publishIN8std_msgs3msg7String_ISaIvEEES6_St14default_deleteIS7_EEEvmSt10unique_ptrIT_T1_ESt10shared_ptrINSt16allocator_traitsIT0_E13rebind_traitsISB_E14allocator_typeEE
FNDA:0,_ZN6rclcpp12experimental19IntraProcessManager24do_intra_process_publishIN8std_msgs3msg7String_ISaIvEEES6_St14default_deleteIS7_EEEvmSt10unique_ptrIT_T1_ESt10shared_ptrINSt16allocator_traitsIT0_E13rebind_traitsISB_E14allocator_typeEE
FN:243,_ZN6rclcpp12experimental19IntraProcessManager42do_intra_process_publish_and_return_sharedIN8std_msgs3msg7String_ISaIvEEES6_St14default_deleteIS7_EEESt10shared_ptrIKT_EmSt10unique_ptrISB_T1_ESA_INSt16allocator_traitsIT0_E13rebind_traitsISB_E14allocator_typeEE
FNDA:0,_ZN6rclcpp12experimental19IntraProcessManager42do_intra_process_publish_and_return_sharedIN8std_msgs3msg7String_ISaIvEEES6_St14default_deleteIS7_EEESt10shared_ptrIKT_EmSt10unique_ptrISB_T1_ESA_INSt16allocator_traitsIT0_E13rebind_traitsISB_E14allocator_typeEE
FN:359,_ZN6rclcpp12experimental19IntraProcessManager25add_shared_msg_to_buffersIN8std_msgs3msg7String_ISaIvEEES6_St14default_deleteIS7_EEEvSt10shared_ptrIKT_ESt6vectorImSaImEE
FNDA:0,_ZN6rclcpp12experimental19IntraProcessManager25add_shared_msg_to_buffersIN8std_msgs3msg7String_ISaIvEEES6_St14default_deleteIS7_EEEvSt10shared_ptrIKT_ESt6vectorImSaImEE
FN:389,_ZN6rclcpp12experimental19IntraProcessManager24add_owned_msg_to_buffersIN8std_msgs3msg7String_ISaIvEEES6_St14default_deleteIS7_EEEvSt10unique_ptrIT_T1_ESt6vectorImSaImEESt10shared_ptrINSt16allocator_traitsIT0_E13rebind_traitsISB_E14allocator_typeEE
FNDA:0,_ZN6rclcpp12experimental19IntraProcessManager24add_owned_msg_to_buffersIN8std_msgs3msg7String_ISaIvEEES6_St14default_deleteIS7_EEEvSt10unique_ptrIT_T1_ESt6vectorImSaImEESt10shared_ptrINSt16allocator_traitsIT0_E13rebind_traitsISB_E14allocator_typeEE
DA:181,0
DA:189,0
DA:191,0
DA:192,0
DA:194,0
DA:197,0
DA:199,0
DA:201,0
DA:203,0
DA:205,0
DA:206,0
DA:207,0
DA:208,0
DA:214,0
DA:215,0
DA:216,0
DA:220,0
DA:221,0
DA:224,0
DA:225,0
DA:229,0
DA:231,0
DA:232,0
DA:233,0
DA:234,0
DA:243,0
DA:251,0
DA:253,0
DA:254,0
DA:256,0
DA:259,0
DA:261,0
DA:263,0
DA:265,0
DA:266,0
DA:267,0
DA:268,0
DA:270,0
DA:274,0
DA:276,0
DA:277,0
DA:279,0
DA:281,0
DA:282,0
DA:283,0
DA:284,0
DA:288,0
DA:359,0
DA:363,0
DA:364,0
DA:365,0
DA:366,0
DA:368,0
DA:370,0
DA:373,0
DA:378,0
DA:380,0
DA:382,0
DA:389,0
DA:397,0
DA:398,0
DA:399,0
DA:400,0
DA:402,0
DA:404,0
DA:407,0
DA:412,0
DA:415,0
DA:417,0
DA:420,0
DA:421,0
DA:422,0
DA:423,0
DA:424,0
DA:426,0
DA:429,0
end_of_record
SF:/usr/include/c++/9/bits/move.h
FN:47,_ZSt11__addressofISaISt23_Sp_counted_ptr_inplaceISaIN8std_msgs3msg7String_ISaIvEEEESaIS6_ELN9__gnu_cxx12_Lock_policyE2EEEEPT_RSC_
FNDA:4,_ZSt11__addressofISaISt23_Sp_counted_ptr_inplaceISaIN8std_msgs3msg7String_ISaIvEEEESaIS6_ELN9__gnu_cxx12_Lock_policyE2EEEEPT_RSC_
FN:47,_ZSt11__addressofIZN6rclcpp7Context15get_sub_contextINS0_12experimental19IntraProcessManagerEJEEESt10shared_ptrIT_EDpOT0_EUlPS4_E_EPS6_RS6_
FNDA:0,_ZSt11__addressofIZN6rclcpp7Context15get_sub_contextINS0_12experimental19IntraProcessManagerEJEEESt10shared_ptrIT_EDpOT0_EUlPS4_E_EPS6_RS6_
FN:47,_ZSt11__addressofISaISt23_Sp_counted_ptr_inplaceIN6rclcpp15QOSEventHandlerIZNS1_9PublisherIN8std_msgs3msg7String_ISaIvEEES7_EC4EPNS1_15node_interfaces17NodeBaseInterfaceERKNSt7__cxx1112basic_stringIcSt11char_traitsIcESaIcEEERKNS1_3QoSERKNS1_29PublisherOptionsWithAllocatorIS7_EEEUlR35rmw_qos_incompatible_event_status_tE_St10shared_ptrI15rcl_publisher_tEEESaISY_ELN9__gnu_cxx12_Lock_policyE2EEEEPT_RS14_
FNDA:2,_ZSt11__addressofISaISt23_Sp_counted_ptr_inplaceIN6rclcpp15QOSEventHandlerIZNS1_9PublisherIN8std_msgs3msg7String_ISaIvEEES7_EC4EPNS1_15node_interfaces17NodeBaseInterfaceERKNSt7__cxx1112basic_stringIcSt11char_traitsIcESaIcEEERKNS1_3QoSERKNS1_29PublisherOptionsWithAllocatorIS7_EEEUlR35rmw_qos_incompatible_event_status_tE_St10shared_ptrI15rcl_publisher_tEEESaISY_ELN9__gnu_cxx12_Lock_policyE2EEEEPT_RS14_
FN:47,_ZSt11__addressofINSt8__detail10_Hash_nodeISt4pairIKSt10type_indexSt10shared_ptrIvEELb0EEEEPT_RS9_
FNDA:0,_ZSt11__addressofINSt8__detail10_Hash_nodeISt4pairIKSt10type_indexSt10shared_ptrIvEELb0EEEEPT_RS9_
FN:47,_ZSt11__addressofISaISt23_Sp_counted_ptr_inplaceIN6rclcpp15QOSEventHandlerISt8functionIFvR35rmw_qos_incompatible_event_status_tEESt10shared_ptrI15rcl_publisher_tEEESaISB_ELN9__gnu_cxx12_Lock_policyE2EEEEPT_RSH_
FNDA:0,_ZSt11__addressofISaISt23_Sp_counted_ptr_inplaceIN6rclcpp15QOSEventHandlerISt8functionIFvR35rmw_qos_incompatible_event_status_tEESt10shared_ptrI15rcl_publisher_tEEESaISB_ELN9__gnu_cxx12_Lock_policyE2EEEEPT_RSH_
FN:47,_ZSt11__addressofISaISt23_Sp_counted_ptr_inplaceIN6rclcpp15QOSEventHandlerISt8functionIFvR28rmw_liveliness_lost_status_tEESt10shared_ptrI15rcl_publisher_tEEESaISB_ELN9__gnu_cxx12_Lock_policyE2EEEEPT_RSH_
FNDA:0,_ZSt11__addressofISaISt23_Sp_counted_ptr_inplaceIN6rclcpp15QOSEventHandlerISt8functionIFvR28rmw_liveliness_lost_status_tEESt10shared_ptrI15rcl_publisher_tEEESaISB_ELN9__gnu_cxx12_Lock_policyE2EEEEPT_RSH_
FN:47,_ZSt11__addressofISaISt19_Sp_counted_deleterIPN6rclcpp12experimental19IntraProcessManagerEZNS1_7Context15get_sub_contextIS3_JEEESt10shared_ptrIT_EDpOT0_EUlS4_E_SaIvELN9__gnu_cxx12_Lock_policyE2EEEEPS8_RS8_
FNDA:0,_ZSt11__addressofISaISt19_Sp_counted_deleterIPN6rclcpp12experimental19IntraProcessManagerEZNS1_7Context15get_sub_contextIS3_JEEESt10shared_ptrIT_EDpOT0_EUlS4_E_SaIvELN9__gnu_cxx12_Lock_policyE2EEEEPS8_RS8_
FN:47,_ZSt11__addressofISaISt23_Sp_counted_ptr_inplaceIN6rclcpp9PublisherIN8std_msgs3msg7String_ISaIvEEES6_EESaIS8_ELN9__gnu_cxx12_Lock_policyE2EEEEPT_RSE_
FNDA:4,_ZSt11__addressofISaISt23_Sp_counted_ptr_inplaceIN6rclcpp9PublisherIN8std_msgs3msg7String_ISaIvEEES6_EESaIS8_ELN9__gnu_cxx12_Lock_policyE2EEEEPT_RSE_
FN:47,_ZSt11__addressofISt18shared_timed_mutexEPT_RS1_
FNDA:0,_ZSt11__addressofISt18shared_timed_mutexEPT_RS1_
FN:47,_ZSt11__addressofISaISt23_Sp_counted_ptr_inplaceIN6rclcpp15QOSEventHandlerISt8functionIFvR36rmw_offered_deadline_missed_status_tEESt10shared_ptrI15rcl_publisher_tEEESaISB_ELN9__gnu_cxx12_Lock_policyE2EEEEPT_RSH_
FNDA:0,_ZSt11__addressofISaISt23_Sp_counted_ptr_inplaceIN6rclcpp15QOSEventHandlerISt8functionIFvR36rmw_offered_deadline_missed_status_tEESt10shared_ptrI15rcl_publisher_tEEESaISB_ELN9__gnu_cxx12_Lock_policyE2EEEEPT_RSH_
FN:47,_ZSt11__addressofISaISt23_Sp_counted_ptr_inplaceISaIvESaIS1_ELN9__gnu_cxx12_Lock_policyE2EEEEPT_RS7_
FNDA:36,_ZSt11__addressofISaISt23_Sp_counted_ptr_inplaceISaIvESaIS1_ELN9__gnu_cxx12_Lock_policyE2EEEEPT_RS7_
FN:47,_ZSt11__addressofIN6rclcpp9ParameterEEPT_RS2_
FNDA:0,_ZSt11__addressofIN6rclcpp9ParameterEEPT_RS2_
FN:47,_ZSt11__addressofISaISt23_Sp_counted_ptr_inplaceIN6rclcpp4NodeESaIS2_ELN9__gnu_cxx12_Lock_policyE2EEEEPT_RS8_
FNDA:8,_ZSt11__addressofISaISt23_Sp_counted_ptr_inplaceIN6rclcpp4NodeESaIS2_ELN9__gnu_cxx12_Lock_policyE2EEEEPT_RS8_
FN:47,_ZSt11__addressofISt10shared_ptrIN6rclcpp19QOSEventHandlerBaseEEEPT_RS4_
FNDA:0,_ZSt11__addressofISt10shared_ptrIN6rclcpp19QOSEventHandlerBaseEEEPT_RS4_
FN:47,_ZSt11__addressofIPNSt8__detail15_Hash_node_baseEEPT_RS3_
FNDA:0,_ZSt11__addressofIPNSt8__detail15_Hash_node_baseEEPT_RS3_
FN:47,_ZSt11__addressofISaISt23_Sp_counted_ptr_inplaceIN8std_msgs3msg7String_ISaIvEEESaIS5_ELN9__gnu_cxx12_Lock_policyE2EEEEPT_RSB_
FNDA:0,_ZSt11__addressofISaISt23_Sp_counted_ptr_inplaceIN8std_msgs3msg7String_ISaIvEEESaIS5_ELN9__gnu_cxx12_Lock_policyE2EEEEPT_RSB_
FN:47,_ZSt11__addressofISaISt19_Sp_counted_deleterIPN8std_msgs3msg7String_ISaIvEEESt14default_deleteIS5_ES4_LN9__gnu_cxx12_Lock_policyE2EEEEPT_RSD_
FNDA:0,_ZSt11__addressofISaISt19_Sp_counted_deleterIPN8std_msgs3msg7String_ISaIvEEESt14default_deleteIS5_ES4_LN9__gnu_cxx12_Lock_policyE2EEEEPT_RSD_
FN:47,_ZSt11__addressofINSt7__cxx1112basic_stringIcSt11char_traitsIcESaIcEEEEPT_RS6_
FNDA:532,_ZSt11__addressofINSt7__cxx1112basic_stringIcSt11char_traitsIcESaIcEEEEPT_RS6_
FN:47,_ZSt11__addressofImEPT_RS0_
FNDA:0,_ZSt11__addressofImEPT_RS0_
FN:47,_ZSt11__addressofISt14default_deleteIN8std_msgs3msg7String_ISaIvEEEEEPT_RS7_
FNDA:0,_ZSt11__addressofISt14default_deleteIN8std_msgs3msg7String_ISaIvEEEEEPT_RS7_
FN:74,_ZSt7forwardIRKSt8functionIFvR35rmw_qos_incompatible_event_status_tEEEOT_RNSt16remove_referenceIS7_E4typeE
FNDA:0,_ZSt7forwardIRKSt8functionIFvR35rmw_qos_incompatible_event_status_tEEEOT_RNSt16remove_referenceIS7_E4typeE
FN:74,_ZSt7forwardIRSt10shared_ptrIN6rclcpp15QOSEventHandlerISt8functionIFvR36rmw_offered_deadline_missed_status_tEES0_I15rcl_publisher_tEEEEEOT_RNSt16remove_referenceISD_E4typeE
FNDA:0,_ZSt7forwardIRSt10shared_ptrIN6rclcpp15QOSEventHandlerISt8functionIFvR36rmw_offered_deadline_missed_status_tEES0_I15rcl_publisher_tEEEEEOT_RNSt16remove_referenceISD_E4typeE
FN:74,_ZSt7forwardIRK26rcl_publisher_event_type_tEOT_RNSt16remove_referenceIS3_E4typeE
FNDA:32,_ZSt7forwardIRK26rcl_publisher_event_type_tEOT_RNSt16remove_referenceIS3_E4typeE
FN:74,_ZSt7forwardIRKSt8functionIFvR28rmw_liveliness_lost_status_tEEEOT_RNSt16remove_referenceIS7_E4typeE
FNDA:0,_ZSt7forwardIRKSt8functionIFvR28rmw_liveliness_lost_status_tEEEOT_RNSt16remove_referenceIS7_E4typeE
FN:74,_ZSt7forwardIRSt10shared_ptrIN6rclcpp15QOSEventHandlerISt8functionIFvR28rmw_liveliness_lost_status_tEES0_I15rcl_publisher_tEEEEEOT_RNSt16remove_referenceISD_E4typeE
FNDA:0,_ZSt7forwardIRSt10shared_ptrIN6rclcpp15QOSEventHandlerISt8functionIFvR28rmw_liveliness_lost_status_tEES0_I15rcl_publisher_tEEEEEOT_RNSt16remove_referenceISD_E4typeE
FN:74,_ZSt7forwardIRSt10shared_ptrI15rcl_publisher_tEEOT_RNSt16remove_referenceIS4_E4typeE
FNDA:32,_ZSt7forwardIRSt10shared_ptrI15rcl_publisher_tEEOT_RNSt16remove_referenceIS4_E4typeE
FN:74,_ZSt7forwardIRFiP11rcl_event_tPK15rcl_publisher_t26rcl_publisher_event_type_tEEOT_RNSt16remove_referenceIS8_E4typeE
FNDA:32,_ZSt7forwardIRFiP11rcl_event_tPK15rcl_publisher_t26rcl_publisher_event_type_tEEOT_RNSt16remove_referenceIS8_E4typeE
FN:74,_ZSt7forwardIRKSt8functionIFvR36rmw_offered_deadline_missed_status_tEEEOT_RNSt16remove_referenceIS7_E4typeE
FNDA:0,_ZSt7forwardIRKSt8functionIFvR36rmw_offered_deadline_missed_status_tEEEOT_RNSt16remove_referenceIS7_E4typeE
FN:74,_ZSt7forwardIRSaIvEEOT_RNSt16remove_referenceIS2_E4typeE
FNDA:32,_ZSt7forwardIRSaIvEEOT_RNSt16remove_referenceIS2_E4typeE
FN:74,_ZSt7forwardIRKSt4pairIKSt10type_indexSt10shared_ptrIvEEEOT_RNSt16remove_referenceIS8_E4typeE
FNDA:0,_ZSt7forwardIRKSt4pairIKSt10type_indexSt10shared_ptrIvEEEOT_RNSt16remove_referenceIS8_E4typeE
FN:74,_ZSt7forwardIRKSt10type_indexEOT_RNSt16remove_referenceIS3_E4typeE
FNDA:0,_ZSt7forwardIRKSt10type_indexEOT_RNSt16remove_referenceIS3_E4typeE
FN:74,_ZSt7forwardIRSt4pairIKSt10type_indexSt10shared_ptrIvEEEOT_RNSt16remove_referenceIS7_E4typeE
FNDA:5,_ZSt7forwardIRSt4pairIKSt10type_indexSt10shared_ptrIvEEEOT_RNSt16remove_referenceIS7_E4typeE
FN:74,_ZSt7forwardISt5tupleIJEEEOT_RNSt16remove_referenceIS2_E4typeE
FNDA:0,_ZSt7forwardISt5tupleIJEEEOT_RNSt16remove_referenceIS2_E4typeE
FN:74,_ZSt7forwardISt5tupleIJRKSt10type_indexEEEOT_RNSt16remove_referenceIS5_E4typeE
FNDA:0,_ZSt7forwardISt5tupleIJRKSt10type_indexEEEOT_RNSt16remove_referenceIS5_E4typeE
FN:74,_ZSt7forwardIRKSt21piecewise_construct_tEOT_RNSt16remove_referenceIS3_E4typeE
FNDA:0,_ZSt7forwardIRKSt21piecewise_construct_tEOT_RNSt16remove_referenceIS3_E4typeE
FN:74,_ZSt7forwardIPN6rclcpp15node_interfaces17NodeBaseInterfaceEEOT_RNSt16remove_referenceIS4_E4typeE
FNDA:4,_ZSt7forwardIPN6rclcpp15node_interfaces17NodeBaseInterfaceEEOT_RNSt16remove_referenceIS4_E4typeE
FN:74,_ZSt7forwardIRKN6rclcpp29PublisherOptionsWithAllocatorISaIvEEEEOT_RNSt16remove_referenceIS6_E4typeE
FNDA:32,_ZSt7forwardIRKN6rclcpp29PublisherOptionsWithAllocatorISaIvEEEEOT_RNSt16remove_referenceIS6_E4typeE
FN:74,_ZSt7forwardIRKN6rclcpp3QoSEEOT_RNSt16remove_referenceIS4_E4typeE
FNDA:36,_ZSt7forwardIRKN6rclcpp3QoSEEOT_RNSt16remove_referenceIS4_E4typeE
FN:74,_ZSt7forwardIRKNSt7__cxx1112basic_stringIcSt11char_traitsIcESaIcEEEEOT_RNSt16remove_referenceIS8_E4typeE
FNDA:38,_ZSt7forwardIRKNSt7__cxx1112basic_stringIcSt11char_traitsIcESaIcEEEEOT_RNSt16remove_referenceIS8_E4typeE
FN:74,_ZSt7forwardIRPN6rclcpp15node_interfaces17NodeBaseInterfaceEEOT_RNSt16remove_referenceIS5_E4typeE
FNDA:32,_ZSt7forwardIRPN6rclcpp15node_interfaces17NodeBaseInterfaceEEOT_RNSt16remove_referenceIS5_E4typeE
FN:74,_ZSt7forwardIRA18_KcEOT_RNSt16remove_referenceIS3_E4typeE
FNDA:9,_ZSt7forwardIRA18_KcEOT_RNSt16remove_referenceIS3_E4typeE
FN:74,_ZSt7forwardIR36rmw_offered_deadline_missed_status_tEOT_RNSt16remove_referenceIS2_E4typeE
FNDA:0,_ZSt7forwardIR36rmw_offered_deadline_missed_status_tEOT_RNSt16remove_referenceIS2_E4typeE
FN:74,_ZSt7forwardIRKSt4pairIKmN6rclcpp12experimental19IntraProcessManager21SplittedSubscriptionsEEEOT_RNSt16remove_referenceIS9_E4typeE
FNDA:0,_ZSt7forwardIRKSt4pairIKmN6rclcpp12experimental19IntraProcessManager21SplittedSubscriptionsEEEOT_RNSt16remove_referenceIS9_E4typeE
FN:74,_ZSt7forwardIRPN8std_msgs3msg7String_ISaIvEEEEOT_RNSt16remove_referenceIS7_E4typeE
FNDA:0,_ZSt7forwardIRPN8std_msgs3msg7String_ISaIvEEEEOT_RNSt16remove_referenceIS7_E4typeE
FN:74,_ZSt7forwardIRN8std_msgs3msg7String_ISaIvEEEEOT_RNSt16remove_referenceIS6_E4typeE
FNDA:0,_ZSt7forwardIRN8std_msgs3msg7String_ISaIvEEEEOT_RNSt16remove_referenceIS6_E4typeE
FN:74,_ZSt7forwardIRSt4pairIKmN6rclcpp12experimental19IntraProcessManager21SplittedSubscriptionsEEEOT_RNSt16remove_referenceIS8_E4typeE
FNDA:0,_ZSt7forwardIRSt4pairIKmN6rclcpp12experimental19IntraProcessManager21SplittedSubscriptionsEEEOT_RNSt16remove_referenceIS8_E4typeE
FN:74,_ZSt7forwardIRSt4pairIKmN6rclcpp12experimental19IntraProcessManager16SubscriptionInfoEEEOT_RNSt16remove_referenceIS8_E4typeE
FNDA:0,_ZSt7forwardIRSt4pairIKmN6rclcpp12experimental19IntraProcessManager16SubscriptionInfoEEEOT_RNSt16remove_referenceIS8_E4typeE
FN:74,_ZSt7forwardIRKSt14default_deleteIN8std_msgs3msg7String_ISaIvEEEEEOT_RNSt16remove_referenceIS9_E4typeE
FNDA:0,_ZSt7forwardIRKSt14default_deleteIN8std_msgs3msg7String_ISaIvEEEEEOT_RNSt16remove_referenceIS9_E4typeE
FN:74,_ZSt7forwardIRKN8std_msgs3msg7String_ISaIvEEEEOT_RNSt16remove_referenceIS7_E4typeE
FNDA:0,_ZSt7forwardIRKN8std_msgs3msg7String_ISaIvEEEEOT_RNSt16remove_referenceIS7_E4typeE
FN:74,_ZSt7forwardISt14default_deleteIN8std_msgs3msg7String_ISaIvEEEEEOT_RNSt16remove_referenceIS7_E4typeE
FNDA:0,_ZSt7forwardISt14default_deleteIN8std_msgs3msg7String_ISaIvEEEEEOT_RNSt16remove_referenceIS7_E4typeE
FN:74,_ZSt7forwardIRKSt4pairIKmN6rclcpp12experimental19IntraProcessManager16SubscriptionInfoEEEOT_RNSt16remove_referenceIS9_E4typeE
FNDA:0,_ZSt7forwardIRKSt4pairIKmN6rclcpp12experimental19IntraProcessManager16SubscriptionInfoEEEOT_RNSt16remove_referenceIS9_E4typeE
FN:74,_ZSt7forwardIR28rmw_liveliness_lost_status_tEOT_RNSt16remove_referenceIS2_E4typeE
FNDA:0,_ZSt7forwardIR28rmw_liveliness_lost_status_tEOT_RNSt16remove_referenceIS2_E4typeE
FN:74,_ZSt7forwardIR35rmw_qos_incompatible_event_status_tEOT_RNSt16remove_referenceIS2_E4typeE
FNDA:0,_ZSt7forwardIR35rmw_qos_incompatible_event_status_tEOT_RNSt16remove_referenceIS2_E4typeE
FN:74,_ZSt7forwardIRSt14default_deleteIN8std_msgs3msg7String_ISaIvEEEEEOT_RNSt16remove_referenceIS8_E4typeE
FNDA:0,_ZSt7forwardIRSt14default_deleteIN8std_msgs3msg7String_ISaIvEEEEEOT_RNSt16remove_referenceIS8_E4typeE
FN:74,_ZSt7forwardIPN8std_msgs3msg7String_ISaIvEEEEOT_RNSt16remove_referenceIS6_E4typeE
FNDA:0,_ZSt7forwardIPN8std_msgs3msg7String_ISaIvEEEEOT_RNSt16remove_referenceIS6_E4typeE
FN:74,_ZSt7forwardISt10shared_ptrIN6rclcpp19QOSEventHandlerBaseEEEOT_RNSt16remove_referenceIS4_E4typeE
FNDA:0,_ZSt7forwardISt10shared_ptrIN6rclcpp19QOSEventHandlerBaseEEEOT_RNSt16remove_referenceIS4_E4typeE
FN:74,_ZSt7forwardIRSt10shared_ptrIN6rclcpp15QOSEventHandlerISt8functionIFvR35rmw_qos_incompatible_event_status_tEES0_I15rcl_publisher_tEEEEEOT_RNSt16remove_referenceISD_E4typeE
FNDA:0,_ZSt7forwardIRSt10shared_ptrIN6rclcpp15QOSEventHandlerISt8functionIFvR35rmw_qos_incompatible_event_status_tEES0_I15rcl_publisher_tEEEEEOT_RNSt16remove_referenceISD_E4typeE
FN:74,_ZSt7forwardIRSt10shared_ptrIN6rclcpp15QOSEventHandlerIZNS1_9PublisherIN8std_msgs3msg7String_ISaIvEEES7_EC4EPNS1_15node_interfaces17NodeBaseInterfaceERKNSt7__cxx1112basic_stringIcSt11char_traitsIcESaIcEEERKNS1_3QoSERKNS1_29PublisherOptionsWithAllocatorIS7_EEEUlR35rmw_qos_incompatible_event_status_tE_S0_I15rcl_publisher_tEEEEEOT_RNSt16remove_referenceIS10_E4typeE
FNDA:0,_ZSt7forwardIRSt10shared_ptrIN6rclcpp15QOSEventHandlerIZNS1_9PublisherIN8std_msgs3msg7String_ISaIvEEES7_EC4EPNS1_15node_interfaces17NodeBaseInterfaceERKNSt7__cxx1112basic_stringIcSt11char_traitsIcESaIcEEERKNS1_3QoSERKNS1_29PublisherOptionsWithAllocatorIS7_EEEUlR35rmw_qos_incompatible_event_status_tE_S0_I15rcl_publisher_tEEEEEOT_RNSt16remove_referenceIS10_E4typeE
FN:74,_ZSt7forwardIRKZN6rclcpp9PublisherIN8std_msgs3msg7String_ISaIvEEES5_EC4EPNS0_15node_interfaces17NodeBaseInterfaceERKNSt7__cxx1112basic_stringIcSt11char_traitsIcESaIcEEERKNS0_3QoSERKNS0_29PublisherOptionsWithAllocatorIS5_EEEUlR35rmw_qos_incompatible_event_status_tE_EOT_RNSt16remove_referenceISV_E4typeE
FNDA:16,_ZSt7forwardIRKZN6rclcpp9PublisherIN8std_msgs3msg7String_ISaIvEEES5_EC4EPNS0_15node_interfaces17NodeBaseInterfaceERKNSt7__cxx1112basic_stringIcSt11char_traitsIcESaIcEEERKNS0_3QoSERKNS0_29PublisherOptionsWithAllocatorIS5_EEEUlR35rmw_qos_incompatible_event_status_tE_EOT_RNSt16remove_referenceISV_E4typeE
FN:99,_ZSt4moveIRSt10shared_ptrIN6rclcpp9PublisherIN8std_msgs3msg7String_ISaIvEEES6_EEEEONSt16remove_referenceIT_E4typeEOSC_
FNDA:4,_ZSt4moveIRSt10shared_ptrIN6rclcpp9PublisherIN8std_msgs3msg7String_ISaIvEEES6_EEEEONSt16remove_referenceIT_E4typeEOSC_
FN:99,_ZSt4moveIRSt14default_deleteIN8std_msgs3msg7String_ISaIvEEEEEONSt16remove_referenceIT_E4typeEOS9_
FNDA:0,_ZSt4moveIRSt14default_deleteIN8std_msgs3msg7String_ISaIvEEEEEONSt16remove_referenceIT_E4typeEOS9_
FN:99,_ZSt4moveIRNSt7__cxx1112basic_stringIcSt11char_traitsIcESaIcEEEEONSt16remove_referenceIT_E4typeEOS8_
FNDA:141,_ZSt4moveIRNSt7__cxx1112basic_stringIcSt11char_traitsIcESaIcEEEEONSt16remove_referenceIT_E4typeEOS8_
FN:99,_ZSt4moveIRPN6rclcpp4NodeEEONSt16remove_referenceIT_E4typeEOS5_
FNDA:12,_ZSt4moveIRPN6rclcpp4NodeEEONSt16remove_referenceIT_E4typeEOS5_
FN:99,_ZSt4moveIRSt12__shared_ptrIN6rclcpp4NodeELN9__gnu_cxx12_Lock_policyE2EEEONSt16remove_referenceIT_E4typeEOS8_
FNDA:4,_ZSt4moveIRSt12__shared_ptrIN6rclcpp4NodeELN9__gnu_cxx12_Lock_policyE2EEEONSt16remove_referenceIT_E4typeEOS8_
FN:99,_ZSt4moveIRSt10shared_ptrIN6rclcpp4NodeEEEONSt16remove_referenceIT_E4typeEOS6_
FNDA:4,_ZSt4moveIRSt10shared_ptrIN6rclcpp4NodeEEEONSt16remove_referenceIT_E4typeEOS6_
FN:99,_ZSt4moveIRPNSt7__cxx1112basic_stringIcSt11char_traitsIcESaIcEEEEONSt16remove_referenceIT_E4typeEOS9_
FNDA:0,_ZSt4moveIRPNSt7__cxx1112basic_stringIcSt11char_traitsIcESaIcEEEEONSt16remove_referenceIT_E4typeEOS9_
FN:99,_ZSt4moveIRPNSt7__cxx1118basic_stringstreamIcSt11char_traitsIcESaIcEEEEONSt16remove_referenceIT_E4typeEOS9_
FNDA:111,_ZSt4moveIRPNSt7__cxx1118basic_stringstreamIcSt11char_traitsIcESaIcEEEEONSt16remove_referenceIT_E4typeEOS9_
FN:99,_ZSt4moveIRSaIcEEONSt16remove_referenceIT_E4typeEOS3_
FNDA:0,_ZSt4moveIRSaIcEEONSt16remove_referenceIT_E4typeEOS3_
FN:99,_ZSt4moveIRZN6rclcpp7Context15get_sub_contextINS0_12experimental19IntraProcessManagerEJEEESt10shared_ptrIT_EDpOT0_EUlPS4_E_EONSt16remove_referenceIS6_E4typeEOS6_
FNDA:0,_ZSt4moveIRZN6rclcpp7Context15get_sub_contextINS0_12experimental19IntraProcessManagerEJEEESt10shared_ptrIT_EDpOT0_EUlPS4_E_EONSt16remove_referenceIS6_E4typeEOS6_
FN:99,_ZSt4moveIRSt10shared_ptrIN6rclcpp12experimental19IntraProcessManagerEEEONSt16remove_referenceIT_E4typeEOS7_
FNDA:0,_ZSt4moveIRSt10shared_ptrIN6rclcpp12experimental19IntraProcessManagerEEEONSt16remove_referenceIT_E4typeEOS7_
FN:99,_ZSt4moveIRSt12__shared_ptrIN6rclcpp12experimental19IntraProcessManagerELN9__gnu_cxx12_Lock_policyE2EEEONSt16remove_referenceIT_E4typeEOS9_
FNDA:0,_ZSt4moveIRSt12__shared_ptrIN6rclcpp12experimental19IntraProcessManagerELN9__gnu_cxx12_Lock_policyE2EEEONSt16remove_referenceIT_E4typeEOS9_
FN:99,_ZSt4moveIRSt10shared_ptrIKN8std_msgs3msg7String_ISaIvEEEEEONSt16remove_referenceIT_E4typeEOSA_
FNDA:0,_ZSt4moveIRSt10shared_ptrIKN8std_msgs3msg7String_ISaIvEEEEEONSt16remove_referenceIT_E4typeEOSA_
FN:99,_ZSt4moveIRPN6rclcpp12experimental19IntraProcessManagerEEONSt16remove_referenceIT_E4typeEOS6_
FNDA:0,_ZSt4moveIRPN6rclcpp12experimental19IntraProcessManagerEEONSt16remove_referenceIT_E4typeEOS6_
FN:99,_ZSt4moveIRSt10shared_ptrIN6rclcpp19QOSEventHandlerBaseEEEONSt16remove_referenceIT_E4typeEOS6_
FNDA:0,_ZSt4moveIRSt10shared_ptrIN6rclcpp19QOSEventHandlerBaseEEEONSt16remove_referenceIT_E4typeEOS6_
FN:99,_ZSt4moveIRZN6rclcpp24create_publisher_factoryIN8std_msgs3msg7String_ISaIvEEES5_NS0_9PublisherIS6_S5_EEEENS0_16PublisherFactoryERKNS0_29PublisherOptionsWithAllocatorIT0_EEEUlPNS0_15node_interfaces17NodeBaseInterfaceERKNSt7__cxx1112basic_stringIcSt11char_traitsIcESaIcEEERKNS0_3QoSEE_EONSt16remove_referenceIT_E4typeEOSW_
FNDA:6,_ZSt4moveIRZN6rclcpp24create_publisher_factoryIN8std_msgs3msg7String_ISaIvEEES5_NS0_9PublisherIS6_S5_EEEENS0_16PublisherFactoryERKNS0_29PublisherOptionsWithAllocatorIT0_EEEUlPNS0_15node_interfaces17NodeBaseInterfaceERKNSt7__cxx1112basic_stringIcSt11char_traitsIcESaIcEEERKNS0_3QoSEE_EONSt16remove_referenceIT_E4typeEOSW_
FN:99,_ZSt4moveIRSt10shared_ptrIN8std_msgs3msg7String_ISaIvEEEEEONSt16remove_referenceIT_E4typeEOS9_
FNDA:0,_ZSt4moveIRSt10shared_ptrIN8std_msgs3msg7String_ISaIvEEEEEONSt16remove_referenceIT_E4typeEOS9_
FN:99,_ZSt4moveIRSaIvEEONSt16remove_referenceIT_E4typeEOS3_
FNDA:0,_ZSt4moveIRSaIvEEONSt16remove_referenceIT_E4typeEOS3_
FN:99,_ZSt4moveIRPN8std_msgs3msg7String_ISaIvEEEEONSt16remove_referenceIT_E4typeEOS8_
FNDA:0,_ZSt4moveIRPN8std_msgs3msg7String_ISaIvEEEEONSt16remove_referenceIT_E4typeEOS8_
FN:99,_ZSt4moveIRP18rcl_node_options_tEONSt16remove_referenceIT_E4typeEOS4_
FNDA:5,_ZSt4moveIRP18rcl_node_options_tEONSt16remove_referenceIT_E4typeEOS4_
FN:99,_ZSt4moveIRSt10unique_ptrIN8std_msgs3msg7String_ISaIvEEESt14default_deleteIS5_EEEONSt16remove_referenceIT_E4typeEOSB_
FNDA:0,_ZSt4moveIRSt10unique_ptrIN8std_msgs3msg7String_ISaIvEEESt14default_deleteIS5_EEEONSt16remove_referenceIT_E4typeEOSB_
FN:138,_ZSt9addressofIPNSt8__detail15_Hash_node_baseEEPT_RS3_
FNDA:0,_ZSt9addressofIPNSt8__detail15_Hash_node_baseEEPT_RS3_
FN:138,_ZSt9addressofINSt8__detail10_Hash_nodeISt4pairIKSt10type_indexSt10shared_ptrIvEELb0EEEEPT_RS9_
FNDA:0,_ZSt9addressofINSt8__detail10_Hash_nodeISt4pairIKSt10type_indexSt10shared_ptrIvEELb0EEEEPT_RS9_
FN:182,_ZSt4swapIPN6rclcpp12experimental19IntraProcessManagerEENSt9enable_ifIXsrSt6__and_IJSt6__not_ISt15__is_tuple_likeIT_EESt21is_move_constructibleIS8_ESt18is_move_assignableIS8_EEE5valueEvE4typeERS8_SI_
FNDA:0,_ZSt4swapIPN6rclcpp12experimental19IntraProcessManagerEENSt9enable_ifIXsrSt6__and_IJSt6__not_ISt15__is_tuple_likeIT_EESt21is_move_constructibleIS8_ESt18is_move_assignableIS8_EEE5valueEvE4typeERS8_SI_
FN:182,_ZSt4swapIPN6rclcpp4NodeEENSt9enable_ifIXsrSt6__and_IJSt6__not_ISt15__is_tuple_likeIT_EESt21is_move_constructibleIS7_ESt18is_move_assignableIS7_EEE5valueEvE4typeERS7_SH_
FNDA:4,_ZSt4swapIPN6rclcpp4NodeEENSt9enable_ifIXsrSt6__and_IJSt6__not_ISt15__is_tuple_likeIT_EESt21is_move_constructibleIS7_ESt18is_move_assignableIS7_EEE5valueEvE4typeERS7_SH_
FN:182,_ZSt4swapIPN8std_msgs3msg7String_ISaIvEEEENSt9enable_ifIXsrSt6__and_IJSt6__not_ISt15__is_tuple_likeIT_EESt21is_move_constructibleISA_ESt18is_move_assignableISA_EEE5valueEvE4typeERSA_SK_
FNDA:0,_ZSt4swapIPN8std_msgs3msg7String_ISaIvEEEENSt9enable_ifIXsrSt6__and_IJSt6__not_ISt15__is_tuple_likeIT_EESt21is_move_constructibleISA_ESt18is_move_assignableISA_EEE5valueEvE4typeERSA_SK_
DA:47,36
DA:48,36
DA:47,0
DA:48,0
DA:47,532
DA:48,532
DA:47,8
DA:48,8
DA:47,4
DA:48,4
DA:47,0
DA:48,0
DA:47,0
DA:48,0
DA:47,0
DA:48,0
DA:47,0
DA:48,0
DA:47,4
DA:48,4
DA:47,0
DA:48,0
DA:47,0
DA:48,0
DA:47,0
DA:48,0
DA:47,0
DA:48,0
DA:47,2
DA:48,2
DA:47,0
DA:48,0
DA:47,0
DA:48,0
DA:47,0
DA:48,0
DA:47,0
DA:48,0
DA:47,0
DA:48,0
DA:74,5
DA:75,5
DA:74,0
DA:75,0
DA:74,0
DA:75,0
DA:74,32
DA:75,32
DA:74,32
DA:75,32
DA:74,32
DA:75,32
DA:74,0
DA:75,0
DA:74,32
DA:75,32
DA:74,0
DA:75,0
DA:74,0
DA:75,0
DA:74,0
DA:75,0
DA:74,0
DA:75,0
DA:74,0
DA:75,0
DA:74,0
DA:75,0
DA:74,4
DA:75,4
DA:74,32
DA:75,32
DA:74,36
DA:75,36
DA:74,38
DA:75,38
DA:74,32
DA:75,32
DA:74,9
DA:75,9
DA:74,0
DA:75,0
DA:74,0
DA:75,0
DA:74,0
DA:75,0
DA:74,0
DA:75,0
DA:74,0
DA:75,0
DA:74,0
DA:75,0
DA:74,0
DA:75,0
DA:74,0
DA:75,0
DA:74,0
DA:75,0
DA:74,0
DA:75,0
DA:74,0
DA:75,0
DA:74,0
DA:75,0
DA:74,0
DA:75,0
DA:74,0
DA:75,0
DA:74,0
DA:75,0
DA:74,0
DA:75,0
DA:74,16
DA:75,16
DA:74,0
DA:75,0
DA:74,0
DA:75,0
DA:99,0
DA:100,0
DA:99,141
DA:100,141
DA:99,0
DA:100,0
DA:99,111
DA:100,111
DA:99,0
DA:100,0
DA:99,4
DA:100,4
DA:99,4
DA:100,4
DA:99,12
DA:100,12
DA:99,4
DA:100,4
DA:99,6
DA:100,6
DA:99,0
DA:100,0
DA:99,0
DA:100,0
DA:99,0
DA:100,0
DA:99,0
DA:100,0
DA:99,0
DA:100,0
DA:99,0
DA:100,0
DA:99,0
DA:100,0
DA:99,5
DA:100,5
DA:99,0
DA:100,0
DA:99,0
DA:100,0
DA:99,0
DA:100,0
DA:138,0
DA:139,0
DA:138,0
DA:139,0
DA:182,0
DA:193,0
DA:194,0
DA:195,0
DA:196,0
DA:182,0
DA:193,0
DA:194,0
DA:195,0
DA:196,0
DA:182,4
DA:193,4
DA:194,4
DA:195,4
DA:196,4
end_of_record
SF:/usr/include/c++/9/bits/basic_string.h
FN:247,_ZNSt7__cxx1112basic_stringIcSt11char_traitsIcESaIcEE16_M_construct_auxIPcEEvT_S7_St12__false_type
FNDA:0,_ZNSt7__cxx1112basic_stringIcSt11char_traitsIcESaIcEE16_M_construct_auxIPcEEvT_S7_St12__false_type
FN:247,_ZNSt7__cxx1112basic_stringIcSt11char_traitsIcESaIcEE16_M_construct_auxIPKcEEvT_S8_St12__false_type
FNDA:0,_ZNSt7__cxx1112basic_stringIcSt11char_traitsIcESaIcEE16_M_construct_auxIPKcEEvT_S8_St12__false_type
FN:267,_ZNSt7__cxx1112basic_stringIcSt11char_traitsIcESaIcEE12_M_constructIPcEEvT_S7_
FNDA:0,_ZNSt7__cxx1112basic_stringIcSt11char_traitsIcESaIcEE12_M_constructIPcEEvT_S7_
FN:267,_ZNSt7__cxx1112basic_stringIcSt11char_traitsIcESaIcEE12_M_constructIPKcEEvT_S8_
FNDA:0,_ZNSt7__cxx1112basic_stringIcSt11char_traitsIcESaIcEE12_M_constructIPKcEEvT_S8_
FN:529,_ZNSt7__cxx1112basic_stringIcSt11char_traitsIcESaIcEEC2IS3_EEPKcRKS3_
FNDA:0,_ZNSt7__cxx1112basic_stringIcSt11char_traitsIcESaIcEEC2IS3_EEPKcRKS3_
FN:6060,_ZStplIcSt11char_traitsIcESaIcEENSt7__cxx1112basic_stringIT_T0_T1_EERKS8_PKS5_
FNDA:50,_ZStplIcSt11char_traitsIcESaIcEENSt7__cxx1112basic_stringIT_T0_T1_EERKS8_PKS5_
FN:6088,_ZStplIcSt11char_traitsIcESaIcEENSt7__cxx1112basic_stringIT_T0_T1_EEOS8_RKS8_
FNDA:0,_ZStplIcSt11char_traitsIcESaIcEENSt7__cxx1112basic_stringIT_T0_T1_EEOS8_RKS8_
FN:6178,_ZSteqIcSt11char_traitsIcESaIcEEbRKNSt7__cxx1112basic_stringIT_T0_T1_EEPKS5_
FNDA:85,_ZSteqIcSt11char_traitsIcESaIcEEbRKNSt7__cxx1112basic_stringIT_T0_T1_EEPKS5_
FN:6216,_ZStneIcSt11char_traitsIcESaIcEEbRKNSt7__cxx1112basic_stringIT_T0_T1_EEPKS5_
FNDA:4,_ZStneIcSt11char_traitsIcESaIcEEbRKNSt7__cxx1112basic_stringIT_T0_T1_EEPKS5_
DA:247,0
DA:251,0
DA:252,0
DA:247,0
DA:251,0
DA:252,0
DA:267,0
DA:270,0
DA:271,0
DA:267,0
DA:270,0
DA:271,0
DA:529,0
DA:530,0
DA:531,0
DA:6060,50
DA:6063,50
DA:6064,50
DA:6065,50
DA:6088,0
DA:6090,0
DA:6178,85
DA:6180,85
DA:6216,4
DA:6218,4
end_of_record
SF:/opt/ros/foxy/include/rclcpp/allocator/allocator_common.hpp
FN:33,_ZN6rclcpp9allocator16retyped_allocateISaIN8std_msgs3msg7String_ISaIvEEEEEEPvmS8_
FNDA:10,_ZN6rclcpp9allocator16retyped_allocateISaIN8std_msgs3msg7String_ISaIvEEEEEEPvmS8_
FN:43,_ZN6rclcpp9allocator18retyped_deallocateIN8std_msgs3msg7String_ISaIvEEESaIS6_EEEvPvS8_
FNDA:10,_ZN6rclcpp9allocator18retyped_deallocateIN8std_msgs3msg7String_ISaIvEEESaIS6_EEEvPvS8_
FN:54,_ZN6rclcpp9allocator18retyped_reallocateIN8std_msgs3msg7String_ISaIvEEESaIS6_EEEPvS8_mS8_
FNDA:0,_ZN6rclcpp9allocator18retyped_reallocateIN8std_msgs3msg7String_ISaIvEEESaIS6_EEEPvS8_mS8_
FN:71,_ZN6rclcpp9allocator17get_rcl_allocatorIN8std_msgs3msg7String_ISaIvEEESaIS6_ELPv0EEE19rcutils_allocator_tRT0_
FNDA:2,_ZN6rclcpp9allocator17get_rcl_allocatorIN8std_msgs3msg7String_ISaIvEEESaIS6_ELPv0EEE19rcutils_allocator_tRT0_
DA:33,10
DA:35,10
DA:36,10
DA:37,0
DA:39,10
DA:43,10
DA:45,10
DA:46,10
DA:47,0
DA:49,10
DA:50,10
DA:51,10
DA:54,0
DA:56,0
DA:57,0
DA:58,0
DA:60,0
DA:61,0
DA:62,0
DA:71,2
DA:73,2
DA:75,2
DA:76,2
DA:77,2
DA:78,2
DA:82,2
end_of_record
SF:/opt/ros/foxy/include/rclcpp/create_publisher.hpp
FN:43,_ZN6rclcpp16create_publisherIN8std_msgs3msg7String_ISaIvEEES4_NS_9PublisherIS5_S4_EENS_4NodeEEESt10shared_ptrIT1_ERT2_RKNSt7__cxx1112basic_stringIcSt11char_traitsIcESaIcEEERKNS_3QoSERKNS_29PublisherOptionsWithAllocatorIT0_EE
FNDA:2,_ZN6rclcpp16create_publisherIN8std_msgs3msg7String_ISaIvEEES4_NS_9PublisherIS5_S4_EENS_4NodeEEESt10shared_ptrIT1_ERT2_RKNSt7__cxx1112basic_stringIcSt11char_traitsIcESaIcEEERKNS_3QoSERKNS_29PublisherOptionsWithAllocatorIT0_EE
DA:43,2
DA:54,4
DA:57,4
DA:64,2
DA:66,4
end_of_record
SF:/usr/include/c++/9/shared_mutex
FN:71,_ZStL23__glibcxx_rwlock_rdlockP16pthread_rwlock_t
FNDA:0,_ZStL23__glibcxx_rwlock_rdlockP16pthread_rwlock_t
FN:75,_ZStL23__glibcxx_rwlock_unlockP16pthread_rwlock_t
FNDA:0,_ZStL23__glibcxx_rwlock_unlockP16pthread_rwlock_t
FN:204,_ZNSt22__shared_mutex_pthread6unlockEv
FNDA:0,_ZNSt22__shared_mutex_pthread6unlockEv
FN:214,_ZNSt22__shared_mutex_pthread11lock_sharedEv
FNDA:0,_ZNSt22__shared_mutex_pthread11lock_sharedEv
FN:244,_ZNSt22__shared_mutex_pthread13unlock_sharedEv
FNDA:0,_ZNSt22__shared_mutex_pthread13unlock_sharedEv
FN:472,_ZNSt18shared_timed_mutex11lock_sharedEv
FNDA:0,_ZNSt18shared_timed_mutex11lock_sharedEv
FN:474,_ZNSt18shared_timed_mutex13unlock_sharedEv
FNDA:0,_ZNSt18shared_timed_mutex13unlock_sharedEv
FN:634,_ZNSt11shared_lockISt18shared_timed_mutexEC2ERS0_
FNDA:0,_ZNSt11shared_lockISt18shared_timed_mutexEC2ERS0_
FN:659,_ZNSt11shared_lockISt18shared_timed_mutexED2Ev
FNDA:0,_ZNSt11shared_lockISt18shared_timed_mutexED2Ev
DA:71,0
DA:75,0
DA:204,0
DA:206,0
DA:209,0
DA:214,0
DA:221,0
DA:222,0
DA:223,0
DA:224,0
DA:225,0
DA:228,0
DA:244,0
DA:246,0
DA:247,0
DA:472,0
DA:474,0
DA:634,0
DA:635,0
DA:636,0
DA:659,0
DA:661,0
DA:662,0
DA:663,0
end_of_record
SF:/opt/ros/foxy/include/rclcpp/exceptions/exceptions.hpp
FN:140,_ZN6rclcpp10exceptions12RCLErrorBaseD0Ev
FNDA:0,_ZN6rclcpp10exceptions12RCLErrorBaseD0Ev
FN:140,_ZN6rclcpp10exceptions12RCLErrorBaseD2Ev
FNDA:28,_ZN6rclcpp10exceptions12RCLErrorBaseD2Ev
DA:140,0
DA:140,28
end_of_record
SF:/opt/ros/foxy/include/rclcpp/experimental/subscription_intra_process.hpp
FN:118,_ZN6rclcpp12experimental24SubscriptionIntraProcessIN8std_msgs3msg7String_ISaIvEEES5_St14default_deleteIS6_ES6_E29provide_intra_process_messageESt10shared_ptrIKS6_E
FNDA:0,_ZN6rclcpp12experimental24SubscriptionIntraProcessIN8std_msgs3msg7String_ISaIvEEES5_St14default_deleteIS6_ES6_E29provide_intra_process_messageESt10shared_ptrIKS6_E
FN:125,_ZN6rclcpp12experimental24SubscriptionIntraProcessIN8std_msgs3msg7String_ISaIvEEES5_St14default_deleteIS6_ES6_E29provide_intra_process_messageESt10unique_ptrIS6_S8_E
FNDA:0,_ZN6rclcpp12experimental24SubscriptionIntraProcessIN8std_msgs3msg7String_ISaIvEEES5_St14default_deleteIS6_ES6_E29provide_intra_process_messageESt10unique_ptrIS6_S8_E
DA:118,0
DA:120,0
DA:121,0
DA:122,0
DA:125,0
DA:127,0
DA:128,0
DA:129,0
end_of_record
SF:/usr/include/c++/9/bits/vector.tcc
FN:109,_ZNSt6vectorISt10shared_ptrIN6rclcpp19QOSEventHandlerBaseEESaIS3_EE12emplace_backIJRS0_INS1_15QOSEventHandlerIZNS1_9PublisherIN8std_msgs3msg7String_ISaIvEEESC_EC4EPNS1_15node_interfaces17NodeBaseInterfaceERKNSt7__cxx1112basic_stringIcSt11char_traitsIcESaIcEEERKNS1_3QoSERKNS1_29PublisherOptionsWithAllocatorISC_EEEUlR35rmw_qos_incompatible_event_status_tE_S0_I15rcl_publisher_tEEEEEEERS3_DpOT_
FNDA:0,_ZNSt6vectorISt10shared_ptrIN6rclcpp19QOSEventHandlerBaseEESaIS3_EE12emplace_backIJRS0_INS1_15QOSEventHandlerIZNS1_9PublisherIN8std_msgs3msg7String_ISaIvEEESC_EC4EPNS1_15node_interfaces17NodeBaseInterfaceERKNSt7__cxx1112basic_stringIcSt11char_traitsIcESaIcEEERKNS1_3QoSERKNS1_29PublisherOptionsWithAllocatorISC_EEEUlR35rmw_qos_incompatible_event_status_tE_S0_I15rcl_publisher_tEEEEEEERS3_DpOT_
FN:109,_ZNSt6vectorISt10shared_ptrIN6rclcpp19QOSEventHandlerBaseEESaIS3_EE12emplace_backIJRS0_INS1_15QOSEventHandlerISt8functionIFvR35rmw_qos_incompatible_event_status_tEES0_I15rcl_publisher_tEEEEEEERS3_DpOT_
FNDA:0,_ZNSt6vectorISt10shared_ptrIN6rclcpp19QOSEventHandlerBaseEESaIS3_EE12emplace_backIJRS0_INS1_15QOSEventHandlerISt8functionIFvR35rmw_qos_incompatible_event_status_tEES0_I15rcl_publisher_tEEEEEEERS3_DpOT_
FN:109,_ZNSt6vectorISt10shared_ptrIN6rclcpp19QOSEventHandlerBaseEESaIS3_EE12emplace_backIJRS0_INS1_15QOSEventHandlerISt8functionIFvR28rmw_liveliness_lost_status_tEES0_I15rcl_publisher_tEEEEEEERS3_DpOT_
FNDA:0,_ZNSt6vectorISt10shared_ptrIN6rclcpp19QOSEventHandlerBaseEESaIS3_EE12emplace_backIJRS0_INS1_15QOSEventHandlerISt8functionIFvR28rmw_liveliness_lost_status_tEES0_I15rcl_publisher_tEEEEEEERS3_DpOT_
FN:109,_ZNSt6vectorISt10shared_ptrIN6rclcpp19QOSEventHandlerBaseEESaIS3_EE12emplace_backIJRS0_INS1_15QOSEventHandlerISt8functionIFvR36rmw_offered_deadline_missed_status_tEES0_I15rcl_publisher_tEEEEEEERS3_DpOT_
FNDA:0,_ZNSt6vectorISt10shared_ptrIN6rclcpp19QOSEventHandlerBaseEESaIS3_EE12emplace_backIJRS0_INS1_15QOSEventHandlerISt8functionIFvR36rmw_offered_deadline_missed_status_tEES0_I15rcl_publisher_tEEEEEEERS3_DpOT_
FN:426,_ZNSt6vectorISt10shared_ptrIN6rclcpp19QOSEventHandlerBaseEESaIS3_EE17_M_realloc_insertIJRS0_INS1_15QOSEventHandlerIZNS1_9PublisherIN8std_msgs3msg7String_ISaIvEEESC_EC4EPNS1_15node_interfaces17NodeBaseInterfaceERKNSt7__cxx1112basic_stringIcSt11char_traitsIcESaIcEEERKNS1_3QoSERKNS1_29PublisherOptionsWithAllocatorISC_EEEUlR35rmw_qos_incompatible_event_status_tE_S0_I15rcl_publisher_tEEEEEEEvN9__gnu_cxx17__normal_iteratorIPS3_S5_EEDpOT_
FNDA:0,_ZNSt6vectorISt10shared_ptrIN6rclcpp19QOSEventHandlerBaseEESaIS3_EE17_M_realloc_insertIJRS0_INS1_15QOSEventHandlerIZNS1_9PublisherIN8std_msgs3msg7String_ISaIvEEESC_EC4EPNS1_15node_interfaces17NodeBaseInterfaceERKNSt7__cxx1112basic_stringIcSt11char_traitsIcESaIcEEERKNS1_3QoSERKNS1_29PublisherOptionsWithAllocatorISC_EEEUlR35rmw_qos_incompatible_event_status_tE_S0_I15rcl_publisher_tEEEEEEEvN9__gnu_cxx17__normal_iteratorIPS3_S5_EEDpOT_
FN:426,_ZNSt6vectorISt10shared_ptrIN6rclcpp19QOSEventHandlerBaseEESaIS3_EE17_M_realloc_insertIJRS0_INS1_15QOSEventHandlerISt8functionIFvR35rmw_qos_incompatible_event_status_tEES0_I15rcl_publisher_tEEEEEEEvN9__gnu_cxx17__normal_iteratorIPS3_S5_EEDpOT_
FNDA:0,_ZNSt6vectorISt10shared_ptrIN6rclcpp19QOSEventHandlerBaseEESaIS3_EE17_M_realloc_insertIJRS0_INS1_15QOSEventHandlerISt8functionIFvR35rmw_qos_incompatible_event_status_tEES0_I15rcl_publisher_tEEEEEEEvN9__gnu_cxx17__normal_iteratorIPS3_S5_EEDpOT_
FN:426,_ZNSt6vectorISt10shared_ptrIN6rclcpp19QOSEventHandlerBaseEESaIS3_EE17_M_realloc_insertIJRS0_INS1_15QOSEventHandlerISt8functionIFvR28rmw_liveliness_lost_status_tEES0_I15rcl_publisher_tEEEEEEEvN9__gnu_cxx17__normal_iteratorIPS3_S5_EEDpOT_
FNDA:0,_ZNSt6vectorISt10shared_ptrIN6rclcpp19QOSEventHandlerBaseEESaIS3_EE17_M_realloc_insertIJRS0_INS1_15QOSEventHandlerISt8functionIFvR28rmw_liveliness_lost_status_tEES0_I15rcl_publisher_tEEEEEEEvN9__gnu_cxx17__normal_iteratorIPS3_S5_EEDpOT_
FN:426,_ZNSt6vectorISt10shared_ptrIN6rclcpp19QOSEventHandlerBaseEESaIS3_EE17_M_realloc_insertIJRS0_INS1_15QOSEventHandlerISt8functionIFvR36rmw_offered_deadline_missed_status_tEES0_I15rcl_publisher_tEEEEEEEvN9__gnu_cxx17__normal_iteratorIPS3_S5_EEDpOT_
FNDA:0,_ZNSt6vectorISt10shared_ptrIN6rclcpp19QOSEventHandlerBaseEESaIS3_EE17_M_realloc_insertIJRS0_INS1_15QOSEventHandlerISt8functionIFvR36rmw_offered_deadline_missed_status_tEES0_I15rcl_publisher_tEEEEEEEvN9__gnu_cxx17__normal_iteratorIPS3_S5_EEDpOT_
FN:721,_ZNSt6vectorImSaImEE15_M_range_insertIN9__gnu_cxx17__normal_iteratorIPKmS1_EEEEvNS4_IPmS1_EET_SA_St20forward_iterator_tag
FNDA:0,_ZNSt6vectorImSaImEE15_M_range_insertIN9__gnu_cxx17__normal_iteratorIPKmS1_EEEEvNS4_IPmS1_EET_SA_St20forward_iterator_tag
DA:109,0
DA:112,0
DA:115,0
DA:117,0
DA:121,0
DA:123,0
DA:109,0
DA:112,0
DA:115,0
DA:117,0
DA:121,0
DA:123,0
DA:109,0
DA:112,0
DA:115,0
DA:117,0
DA:121,0
DA:123,0
DA:109,0
DA:112,0
DA:115,0
DA:117,0
DA:121,0
DA:123,0
DA:426,0
DA:435,0
DA:437,0
DA:438,0
DA:439,0
DA:440,0
DA:441,0
DA:449,0
DA:450,0
DA:456,0
DA:461,0
DA:462,0
DA:464,0
DA:466,0
DA:467,0
DA:500,0
DA:501,0
DA:502,0
DA:503,0
DA:504,0
DA:505,0
DA:426,0
DA:435,0
DA:437,0
DA:438,0
DA:439,0
DA:440,0
DA:441,0
DA:449,0
DA:450,0
DA:456,0
DA:461,0
DA:462,0
DA:464,0
DA:466,0
DA:467,0
DA:500,0
DA:501,0
DA:502,0
DA:503,0
DA:504,0
DA:505,0
DA:426,0
DA:435,0
DA:437,0
DA:438,0
DA:439,0
DA:440,0
DA:441,0
DA:449,0
DA:450,0
DA:456,0
DA:461,0
DA:462,0
DA:464,0
DA:466,0
DA:467,0
DA:500,0
DA:501,0
DA:502,0
DA:503,0
DA:504,0
DA:505,0
DA:426,0
DA:435,0
DA:437,0
DA:438,0
DA:439,0
DA:440,0
DA:441,0
DA:449,0
DA:450,0
DA:456,0
DA:461,0
DA:462,0
DA:464,0
DA:466,0
DA:467,0
DA:500,0
DA:501,0
DA:502,0
DA:503,0
DA:504,0
DA:505,0
DA:721,0
DA:725,0
DA:727,0
DA:728,0
DA:729,0
DA:731,0
DA:732,0
DA:733,0
DA:736,0
DA:739,0
DA:740,0
DA:742,0
DA:744,0
DA:748,0
DA:749,0
DA:751,0
DA:753,0
DA:754,0
DA:756,0
DA:759,0
DA:760,0
DA:762,0
DA:767,0
DA:769,0
DA:770,0
DA:775,0
DA:776,0
DA:778,0
DA:780,0
DA:783,0
DA:784,0
DA:786,0
DA:788,0
DA:789,0
DA:790,0
DA:791,0
DA:793,0
DA:794,0
DA:796,0
DA:797,0
DA:798,0
DA:799,0
DA:800,0
DA:801,0
DA:804,0
end_of_record
SF:/opt/ros/foxy/include/std_msgs/msg/detail/string__struct.hpp
end_of_record
SF:/usr/include/c++/9/bits/stl_construct.h
FN:97,_ZSt8_DestroyIN6rclcpp9ParameterEEvPT_
FNDA:0,_ZSt8_DestroyIN6rclcpp9ParameterEEvPT_
FN:97,_ZSt8_DestroyINSt7__cxx1112basic_stringIcSt11char_traitsIcESaIcEEEEvPT_
FNDA:267,_ZSt8_DestroyINSt7__cxx1112basic_stringIcSt11char_traitsIcESaIcEEEEvPT_
FN:105,_ZNSt12_Destroy_auxILb0EE9__destroyIPN6rclcpp9ParameterEEEvT_S5_
FNDA:5,_ZNSt12_Destroy_auxILb0EE9__destroyIPN6rclcpp9ParameterEEEvT_S5_
FN:105,_ZNSt12_Destroy_auxILb0EE9__destroyIPNSt7__cxx1112basic_stringIcSt11char_traitsIcESaIcEEEEEvT_S9_
FNDA:86,_ZNSt12_Destroy_auxILb0EE9__destroyIPNSt7__cxx1112basic_stringIcSt11char_traitsIcESaIcEEEEEvT_S9_
FN:117,_ZNSt12_Destroy_auxILb1EE9__destroyIPmEEvT_S3_
FNDA:0,_ZNSt12_Destroy_auxILb1EE9__destroyIPmEEvT_S3_
FN:117,_ZNSt12_Destroy_auxILb1EE9__destroyIPdEEvT_S3_
FNDA:40,_ZNSt12_Destroy_auxILb1EE9__destroyIPdEEvT_S3_
FN:117,_ZNSt12_Destroy_auxILb1EE9__destroyIPlEEvT_S3_
FNDA:40,_ZNSt12_Destroy_auxILb1EE9__destroyIPlEEvT_S3_
FN:117,_ZNSt12_Destroy_auxILb1EE9__destroyIPhEEvT_S3_
FNDA:40,_ZNSt12_Destroy_auxILb1EE9__destroyIPhEEvT_S3_
FN:127,_ZSt8_DestroyIPmEvT_S1_
FNDA:0,_ZSt8_DestroyIPmEvT_S1_
FN:127,_ZSt8_DestroyIPNSt7__cxx1112basic_stringIcSt11char_traitsIcESaIcEEEEvT_S7_
FNDA:86,_ZSt8_DestroyIPNSt7__cxx1112basic_stringIcSt11char_traitsIcESaIcEEEEvT_S7_
FN:127,_ZSt8_DestroyIPhEvT_S1_
FNDA:40,_ZSt8_DestroyIPhEvT_S1_
FN:127,_ZSt8_DestroyIPlEvT_S1_
FNDA:40,_ZSt8_DestroyIPlEvT_S1_
FN:127,_ZSt8_DestroyIPdEvT_S1_
FNDA:40,_ZSt8_DestroyIPdEvT_S1_
FN:127,_ZSt8_DestroyIPN6rclcpp9ParameterEEvT_S3_
FNDA:5,_ZSt8_DestroyIPN6rclcpp9ParameterEEvT_S3_
FN:203,_ZSt8_DestroyIPN6rclcpp9ParameterES1_EvT_S3_RSaIT0_E
FNDA:5,_ZSt8_DestroyIPN6rclcpp9ParameterES1_EvT_S3_RSaIT0_E
FN:203,_ZSt8_DestroyIPmmEvT_S1_RSaIT0_E
FNDA:0,_ZSt8_DestroyIPmmEvT_S1_RSaIT0_E
FN:203,_ZSt8_DestroyIPddEvT_S1_RSaIT0_E
FNDA:40,_ZSt8_DestroyIPddEvT_S1_RSaIT0_E
FN:203,_ZSt8_DestroyIPllEvT_S1_RSaIT0_E
FNDA:40,_ZSt8_DestroyIPllEvT_S1_RSaIT0_E
FN:203,_ZSt8_DestroyIPhhEvT_S1_RSaIT0_E
FNDA:40,_ZSt8_DestroyIPhhEvT_S1_RSaIT0_E
FN:203,_ZSt8_DestroyIPNSt7__cxx1112basic_stringIcSt11char_traitsIcESaIcEEES5_EvT_S7_RSaIT0_E
FNDA:86,_ZSt8_DestroyIPNSt7__cxx1112basic_stringIcSt11char_traitsIcESaIcEEES5_EvT_S7_RSaIT0_E
DA:97,0
DA:98,0
DA:97,267
DA:98,267
DA:105,5
DA:107,5
DA:108,0
DA:109,5
DA:105,353
DA:107,353
DA:108,267
DA:109,86
DA:117,0
DA:117,40
DA:117,40
DA:117,40
DA:127,0
DA:137,0
DA:138,0
DA:127,5
DA:137,5
DA:138,5
DA:127,40
DA:137,40
DA:138,40
DA:127,40
DA:137,40
DA:138,40
DA:127,40
DA:137,40
DA:138,40
DA:127,86
DA:137,86
DA:138,86
DA:203,0
DA:206,0
DA:207,0
DA:203,5
DA:206,5
DA:207,5
DA:203,40
DA:206,40
DA:207,40
DA:203,40
DA:206,40
DA:207,40
DA:203,40
DA:206,40
DA:207,40
DA:203,86
DA:206,86
DA:207,86
end_of_record
SF:/usr/include/c++/9/bits/stl_algobase.h
FN:198,_ZSt3minImERKT_S2_S2_
FNDA:101,_ZSt3minImERKT_S2_S2_
FN:222,_ZSt3maxImERKT_S2_S2_
FNDA:32,_ZSt3maxImERKT_S2_S2_
FN:280,_ZSt12__niter_baseIPmET_S1_
FNDA:0,_ZSt12__niter_baseIPmET_S1_
FN:280,_ZSt12__niter_baseIPSt10shared_ptrIN6rclcpp19QOSEventHandlerBaseEEET_S5_
FNDA:0,_ZSt12__niter_baseIPSt10shared_ptrIN6rclcpp19QOSEventHandlerBaseEEET_S5_
FN:289,_ZSt12__niter_wrapIN9__gnu_cxx17__normal_iteratorIPmSt6vectorImSaImEEEES2_ET_S7_T0_
FNDA:0,_ZSt12__niter_wrapIN9__gnu_cxx17__normal_iteratorIPmSt6vectorImSaImEEEES2_ET_S7_T0_
FN:295,_ZSt12__niter_wrapIPmET_RKS1_S1_
FNDA:0,_ZSt12__niter_wrapIPmET_RKS1_S1_
FN:375,_ZNSt11__copy_moveILb1ELb1ESt26random_access_iterator_tagE8__copy_mImEEPT_PKS3_S6_S4_
FNDA:0,_ZNSt11__copy_moveILb1ELb1ESt26random_access_iterator_tagE8__copy_mImEEPT_PKS3_S6_S4_
FN:375,_ZNSt11__copy_moveILb0ELb1ESt26random_access_iterator_tagE8__copy_mImEEPT_PKS3_S6_S4_
FNDA:0,_ZNSt11__copy_moveILb0ELb1ESt26random_access_iterator_tagE8__copy_mImEEPT_PKS3_S6_S4_
FN:393,_ZSt13__copy_move_aILb1EPmS0_ET1_T0_S2_S1_
FNDA:0,_ZSt13__copy_move_aILb1EPmS0_ET1_T0_S2_S1_
FN:393,_ZSt13__copy_move_aILb0EPKmPmET1_T0_S4_S3_
FNDA:0,_ZSt13__copy_move_aILb0EPKmPmET1_T0_S4_S3_
FN:438,_ZSt14__copy_move_a2ILb0EN9__gnu_cxx17__normal_iteratorIPKmSt6vectorImSaImEEEENS1_IPmS6_EEET1_T0_SB_SA_
FNDA:0,_ZSt14__copy_move_a2ILb0EN9__gnu_cxx17__normal_iteratorIPKmSt6vectorImSaImEEEENS1_IPmS6_EEET1_T0_SB_SA_
FN:438,_ZSt14__copy_move_a2ILb0EN9__gnu_cxx17__normal_iteratorIPKmSt6vectorImSaImEEEEPmET1_T0_SA_S9_
FNDA:0,_ZSt14__copy_move_a2ILb0EN9__gnu_cxx17__normal_iteratorIPKmSt6vectorImSaImEEEEPmET1_T0_SA_S9_
FN:438,_ZSt14__copy_move_a2ILb1EPmS0_ET1_T0_S2_S1_
FNDA:0,_ZSt14__copy_move_a2ILb1EPmS0_ET1_T0_S2_S1_
FN:465,_ZSt4copyIN9__gnu_cxx17__normal_iteratorIPKmSt6vectorImSaImEEEEPmET0_T_SA_S9_
FNDA:0,_ZSt4copyIN9__gnu_cxx17__normal_iteratorIPKmSt6vectorImSaImEEEEPmET0_T_SA_S9_
FN:465,_ZSt4copyIN9__gnu_cxx17__normal_iteratorIPKmSt6vectorImSaImEEEENS1_IPmS6_EEET0_T_SB_SA_
FNDA:0,_ZSt4copyIN9__gnu_cxx17__normal_iteratorIPKmSt6vectorImSaImEEEENS1_IPmS6_EEET0_T_SB_SA_
FN:465,_ZSt4copyISt13move_iteratorIPmES1_ET0_T_S4_S3_
FNDA:0,_ZSt4copyISt13move_iteratorIPmES1_ET0_T_S4_S3_
FN:577,_ZNSt20__copy_move_backwardILb1ELb1ESt26random_access_iterator_tagE13__copy_move_bImEEPT_PKS3_S6_S4_
FNDA:0,_ZNSt20__copy_move_backwardILb1ELb1ESt26random_access_iterator_tagE13__copy_move_bImEEPT_PKS3_S6_S4_
FN:595,_ZSt22__copy_move_backward_aILb1EPmS0_ET1_T0_S2_S1_
FNDA:0,_ZSt22__copy_move_backward_aILb1EPmS0_ET1_T0_S2_S1_
FN:613,_ZSt23__copy_move_backward_a2ILb1EPmS0_ET1_T0_S2_S1_
FNDA:0,_ZSt23__copy_move_backward_a2ILb1EPmS0_ET1_T0_S2_S1_
FN:676,_ZSt13move_backwardIPmS0_ET0_T_S2_S1_
FNDA:0,_ZSt13move_backwardIPmS0_ET0_T_S2_S1_
DA:198,101
DA:203,101
DA:204,0
DA:205,101
DA:222,32
DA:227,32
DA:228,26
DA:229,6
DA:280,0
DA:282,0
DA:280,0
DA:282,0
DA:289,0
DA:290,0
DA:295,0
DA:296,0
DA:375,0
DA:384,0
DA:385,0
DA:386,0
DA:387,0
DA:375,0
DA:384,0
DA:385,0
DA:386,0
DA:387,0
DA:393,0
DA:398,0
DA:404,0
DA:393,0
DA:398,0
DA:404,0
DA:438,0
DA:440,0
DA:443,0
DA:438,0
DA:440,0
DA:443,0
DA:438,0
DA:440,0
DA:443,0
DA:465,0
DA:474,0
DA:465,0
DA:474,0
DA:465,0
DA:474,0
DA:577,0
DA:586,0
DA:587,0
DA:588,0
DA:589,0
DA:595,0
DA:600,0
DA:606,0
DA:608,0
DA:613,0
DA:615,0
DA:618,0
DA:676,0
DA:686,0
DA:688,0
end_of_record
SF:/usr/include/c++/9/ext/alloc_traits.h
FN:97,_ZN9__gnu_cxx14__alloc_traitsISaImEmE17_S_select_on_copyERKS1_
FNDA:0,_ZN9__gnu_cxx14__alloc_traitsISaImEmE17_S_select_on_copyERKS1_
FN:97,_ZN9__gnu_cxx14__alloc_traitsISaIcEcE17_S_select_on_copyERKS1_
FNDA:0,_ZN9__gnu_cxx14__alloc_traitsISaIcEcE17_S_select_on_copyERKS1_
DA:97,0
DA:98,0
DA:97,0
DA:98,0
end_of_record
SF:/usr/include/c++/9/bits/allocator.h
FN:137,_ZNSaISaIN8std_msgs3msg7String_ISaIvEEEEEC2Ev
FNDA:2,_ZNSaISaIN8std_msgs3msg7String_ISaIvEEEEEC2Ev
FN:137,_ZNSaISaIvEEC2Ev
FNDA:8,_ZNSaISaIvEEC2Ev
FN:137,_ZNSaISt19_Sp_counted_deleterIPN8std_msgs3msg7String_ISaIvEEESt14default_deleteIS4_ES3_LN9__gnu_cxx12_Lock_policyE2EEEC2Ev
FNDA:0,_ZNSaISt19_Sp_counted_deleterIPN8std_msgs3msg7String_ISaIvEEESt14default_deleteIS4_ES3_LN9__gnu_cxx12_Lock_policyE2EEEC2Ev
FN:137,_ZNSaIN6rclcpp15QOSEventHandlerISt8functionIFvR36rmw_offered_deadline_missed_status_tEESt10shared_ptrI15rcl_publisher_tEEEEC2Ev
FNDA:0,_ZNSaIN6rclcpp15QOSEventHandlerISt8functionIFvR36rmw_offered_deadline_missed_status_tEESt10shared_ptrI15rcl_publisher_tEEEEC2Ev
FN:137,_ZNSaIN6rclcpp15QOSEventHandlerISt8functionIFvR28rmw_liveliness_lost_status_tEESt10shared_ptrI15rcl_publisher_tEEEEC2Ev
FNDA:0,_ZNSaIN6rclcpp15QOSEventHandlerISt8functionIFvR28rmw_liveliness_lost_status_tEESt10shared_ptrI15rcl_publisher_tEEEEC2Ev
FN:137,_ZNSaIN6rclcpp15QOSEventHandlerISt8functionIFvR35rmw_qos_incompatible_event_status_tEESt10shared_ptrI15rcl_publisher_tEEEEC2Ev
FNDA:0,_ZNSaIN6rclcpp15QOSEventHandlerISt8functionIFvR35rmw_qos_incompatible_event_status_tEESt10shared_ptrI15rcl_publisher_tEEEEC2Ev
FN:137,_ZNSaIN6rclcpp15QOSEventHandlerIZNS_9PublisherIN8std_msgs3msg7String_ISaIvEEES5_EC4EPNS_15node_interfaces17NodeBaseInterfaceERKNSt7__cxx1112basic_stringIcSt11char_traitsIcESaIcEEERKNS_3QoSERKNS_29PublisherOptionsWithAllocatorIS5_EEEUlR35rmw_qos_incompatible_event_status_tE_St10shared_ptrI15rcl_publisher_tEEEEC2Ev
FNDA:2,_ZNSaIN6rclcpp15QOSEventHandlerIZNS_9PublisherIN8std_msgs3msg7String_ISaIvEEES5_EC4EPNS_15node_interfaces17NodeBaseInterfaceERKNSt7__cxx1112basic_stringIcSt11char_traitsIcESaIcEEERKNS_3QoSERKNS_29PublisherOptionsWithAllocatorIS5_EEEUlR35rmw_qos_incompatible_event_status_tE_St10shared_ptrI15rcl_publisher_tEEEEC2Ev
FN:137,_ZNSaIN6rclcpp9PublisherIN8std_msgs3msg7String_ISaIvEEES4_EEEC2Ev
FNDA:2,_ZNSaIN6rclcpp9PublisherIN8std_msgs3msg7String_ISaIvEEES4_EEEC2Ev
FN:137,_ZNSaIN6rclcpp4NodeEEC2Ev
FNDA:4,_ZNSaIN6rclcpp4NodeEEC2Ev
FN:140,_ZNSaIN8std_msgs3msg7String_ISaIvEEEEC2ERKS4_
FNDA:0,_ZNSaIN8std_msgs3msg7String_ISaIvEEEEC2ERKS4_
FN:140,_ZNSaIN6rclcpp9PublisherIN8std_msgs3msg7String_ISaIvEEES4_EEEC2ERKS7_
FNDA:6,_ZNSaIN6rclcpp9PublisherIN8std_msgs3msg7String_ISaIvEEES4_EEEC2ERKS7_
FN:140,_ZNSaIN6rclcpp4NodeEEC2ERKS1_
FNDA:12,_ZNSaIN6rclcpp4NodeEEC2ERKS1_
FN:140,_ZNSaISaIN8std_msgs3msg7String_ISaIvEEEEEC2ERKS5_
FNDA:6,_ZNSaISaIN8std_msgs3msg7String_ISaIvEEEEEC2ERKS5_
FN:140,_ZNSaISaIvEEC2ERKS0_
FNDA:24,_ZNSaISaIvEEC2ERKS0_
FN:140,_ZNSaIN6rclcpp15QOSEventHandlerISt8functionIFvR36rmw_offered_deadline_missed_status_tEESt10shared_ptrI15rcl_publisher_tEEEEC2ERKSA_
FNDA:0,_ZNSaIN6rclcpp15QOSEventHandlerISt8functionIFvR36rmw_offered_deadline_missed_status_tEESt10shared_ptrI15rcl_publisher_tEEEEC2ERKSA_
FN:140,_ZNSaIN6rclcpp15QOSEventHandlerISt8functionIFvR28rmw_liveliness_lost_status_tEESt10shared_ptrI15rcl_publisher_tEEEEC2ERKSA_
FNDA:0,_ZNSaIN6rclcpp15QOSEventHandlerISt8functionIFvR28rmw_liveliness_lost_status_tEESt10shared_ptrI15rcl_publisher_tEEEEC2ERKSA_
FN:140,_ZNSaIN6rclcpp15QOSEventHandlerIZNS_9PublisherIN8std_msgs3msg7String_ISaIvEEES5_EC4EPNS_15node_interfaces17NodeBaseInterfaceERKNSt7__cxx1112basic_stringIcSt11char_traitsIcESaIcEEERKNS_3QoSERKNS_29PublisherOptionsWithAllocatorIS5_EEEUlR35rmw_qos_incompatible_event_status_tE_St10shared_ptrI15rcl_publisher_tEEEEC2ERKSX_
FNDA:6,_ZNSaIN6rclcpp15QOSEventHandlerIZNS_9PublisherIN8std_msgs3msg7String_ISaIvEEES5_EC4EPNS_15node_interfaces17NodeBaseInterfaceERKNSt7__cxx1112basic_stringIcSt11char_traitsIcESaIcEEERKNS_3QoSERKNS_29PublisherOptionsWithAllocatorIS5_EEEUlR35rmw_qos_incompatible_event_status_tE_St10shared_ptrI15rcl_publisher_tEEEEC2ERKSX_
FN:140,_ZNSaImEC2ERKS_
FNDA:0,_ZNSaImEC2ERKS_
FN:140,_ZNSaIN6rclcpp15QOSEventHandlerISt8functionIFvR35rmw_qos_incompatible_event_status_tEESt10shared_ptrI15rcl_publisher_tEEEEC2ERKSA_
FNDA:0,_ZNSaIN6rclcpp15QOSEventHandlerISt8functionIFvR35rmw_qos_incompatible_event_status_tEESt10shared_ptrI15rcl_publisher_tEEEEC2ERKSA_
FN:150,_ZNSaISt23_Sp_counted_ptr_inplaceIN6rclcpp15QOSEventHandlerIZNS0_9PublisherIN8std_msgs3msg7String_ISaIvEEES6_EC4EPNS0_15node_interfaces17NodeBaseInterfaceERKNSt7__cxx1112basic_stringIcSt11char_traitsIcESaIcEEERKNS0_3QoSERKNS0_29PublisherOptionsWithAllocatorIS6_EEEUlR35rmw_qos_incompatible_event_status_tE_St10shared_ptrI15rcl_publisher_tEEESaISX_ELN9__gnu_cxx12_Lock_policyE2EEEC2ISX_EERKSaIT_E
FNDA:2,_ZNSaISt23_Sp_counted_ptr_inplaceIN6rclcpp15QOSEventHandlerIZNS0_9PublisherIN8std_msgs3msg7String_ISaIvEEES6_EC4EPNS0_15node_interfaces17NodeBaseInterfaceERKNSt7__cxx1112basic_stringIcSt11char_traitsIcESaIcEEERKNS0_3QoSERKNS0_29PublisherOptionsWithAllocatorIS6_EEEUlR35rmw_qos_incompatible_event_status_tE_St10shared_ptrI15rcl_publisher_tEEESaISX_ELN9__gnu_cxx12_Lock_policyE2EEEC2ISX_EERKSaIT_E
FN:150,_ZNSaISt19_Sp_counted_deleterIPN6rclcpp12experimental19IntraProcessManagerEZNS0_7Context15get_sub_contextIS2_JEEESt10shared_ptrIT_EDpOT0_EUlS3_E_SaIvELN9__gnu_cxx12_Lock_policyE2EEEC2IvEERKSaIS7_E
FNDA:0,_ZNSaISt19_Sp_counted_deleterIPN6rclcpp12experimental19IntraProcessManagerEZNS0_7Context15get_sub_contextIS2_JEEESt10shared_ptrIT_EDpOT0_EUlS3_E_SaIvELN9__gnu_cxx12_Lock_policyE2EEEC2IvEERKSaIS7_E
FN:150,_ZNSaIN8std_msgs3msg7String_ISaIvEEEEC2IvEERKSaIT_E
FNDA:4,_ZNSaIN8std_msgs3msg7String_ISaIvEEEEC2IvEERKSaIT_E
FN:150,_ZNSaIPNSt8__detail15_Hash_node_baseEEC2INS_10_Hash_nodeISt4pairIKSt10type_indexSt10shared_ptrIvEELb0EEEEERKSaIT_E
FNDA:1,_ZNSaIPNSt8__detail15_Hash_node_baseEEC2INS_10_Hash_nodeISt4pairIKSt10type_indexSt10shared_ptrIvEELb0EEEEERKSaIT_E
FN:150,_ZNSaISt19_Sp_counted_deleterIPN8std_msgs3msg7String_ISaIvEEESt14default_deleteIS4_ES3_LN9__gnu_cxx12_Lock_policyE2EEEC2IvEERKSaIT_E
FNDA:0,_ZNSaISt19_Sp_counted_deleterIPN8std_msgs3msg7String_ISaIvEEESt14default_deleteIS4_ES3_LN9__gnu_cxx12_Lock_policyE2EEEC2IvEERKSaIT_E
FN:150,_ZNSaISt23_Sp_counted_ptr_inplaceIN6rclcpp9PublisherIN8std_msgs3msg7String_ISaIvEEES5_EESaIS7_ELN9__gnu_cxx12_Lock_policyE2EEEC2IS7_EERKSaIT_E
FNDA:4,_ZNSaISt23_Sp_counted_ptr_inplaceIN6rclcpp9PublisherIN8std_msgs3msg7String_ISaIvEEES5_EESaIS7_ELN9__gnu_cxx12_Lock_policyE2EEEC2IS7_EERKSaIT_E
FN:150,_ZNSaISt23_Sp_counted_ptr_inplaceIN8std_msgs3msg7String_ISaIvEEESaIS4_ELN9__gnu_cxx12_Lock_policyE2EEEC2IS4_EERKSaIT_E
FNDA:0,_ZNSaISt23_Sp_counted_ptr_inplaceIN8std_msgs3msg7String_ISaIvEEESaIS4_ELN9__gnu_cxx12_Lock_policyE2EEEC2IS4_EERKSaIT_E
FN:150,_ZNSaISt23_Sp_counted_ptr_inplaceIN6rclcpp4NodeESaIS1_ELN9__gnu_cxx12_Lock_policyE2EEEC2IS1_EERKSaIT_E
FNDA:8,_ZNSaISt23_Sp_counted_ptr_inplaceIN6rclcpp4NodeESaIS1_ELN9__gnu_cxx12_Lock_policyE2EEEC2IS1_EERKSaIT_E
FN:150,_ZNSaISt23_Sp_counted_ptr_inplaceIN6rclcpp15QOSEventHandlerISt8functionIFvR28rmw_liveliness_lost_status_tEESt10shared_ptrI15rcl_publisher_tEEESaISA_ELN9__gnu_cxx12_Lock_policyE2EEEC2ISA_EERKSaIT_E
FNDA:0,_ZNSaISt23_Sp_counted_ptr_inplaceIN6rclcpp15QOSEventHandlerISt8functionIFvR28rmw_liveliness_lost_status_tEESt10shared_ptrI15rcl_publisher_tEEESaISA_ELN9__gnu_cxx12_Lock_policyE2EEEC2ISA_EERKSaIT_E
FN:150,_ZNSaISt23_Sp_counted_ptr_inplaceISaIN8std_msgs3msg7String_ISaIvEEEESaIS5_ELN9__gnu_cxx12_Lock_policyE2EEEC2IS5_EERKSaIT_E
FNDA:4,_ZNSaISt23_Sp_counted_ptr_inplaceISaIN8std_msgs3msg7String_ISaIvEEEESaIS5_ELN9__gnu_cxx12_Lock_policyE2EEEC2IS5_EERKSaIT_E
FN:150,_ZNSaISt23_Sp_counted_ptr_inplaceIN6rclcpp15QOSEventHandlerISt8functionIFvR35rmw_qos_incompatible_event_status_tEESt10shared_ptrI15rcl_publisher_tEEESaISA_ELN9__gnu_cxx12_Lock_policyE2EEEC2ISA_EERKSaIT_E
FNDA:0,_ZNSaISt23_Sp_counted_ptr_inplaceIN6rclcpp15QOSEventHandlerISt8functionIFvR35rmw_qos_incompatible_event_status_tEESt10shared_ptrI15rcl_publisher_tEEESaISA_ELN9__gnu_cxx12_Lock_policyE2EEEC2ISA_EERKSaIT_E
FN:150,_ZNSaISt23_Sp_counted_ptr_inplaceISaIvESaIS0_ELN9__gnu_cxx12_Lock_policyE2EEEC2IS0_EERKSaIT_E
FNDA:36,_ZNSaISt23_Sp_counted_ptr_inplaceISaIvESaIS0_ELN9__gnu_cxx12_Lock_policyE2EEEC2IS0_EERKSaIT_E
FN:150,_ZNSaISt23_Sp_counted_ptr_inplaceIN6rclcpp15QOSEventHandlerISt8functionIFvR36rmw_offered_deadline_missed_status_tEESt10shared_ptrI15rcl_publisher_tEEESaISA_ELN9__gnu_cxx12_Lock_policyE2EEEC2ISA_EERKSaIT_E
FNDA:0,_ZNSaISt23_Sp_counted_ptr_inplaceIN6rclcpp15QOSEventHandlerISt8functionIFvR36rmw_offered_deadline_missed_status_tEESt10shared_ptrI15rcl_publisher_tEEESaISA_ELN9__gnu_cxx12_Lock_policyE2EEEC2ISA_EERKSaIT_E
FN:152,_ZNSaIN6rclcpp9PublisherIN8std_msgs3msg7String_ISaIvEEES4_EEED2Ev
FNDA:8,_ZNSaIN6rclcpp9PublisherIN8std_msgs3msg7String_ISaIvEEES4_EEED2Ev
FN:152,_ZNSaImED2Ev
FNDA:40,_ZNSaImED2Ev
FN:152,_ZNSaIN6rclcpp4NodeEED2Ev
FNDA:16,_ZNSaIN6rclcpp4NodeEED2Ev
FN:152,_ZNSaISt23_Sp_counted_ptr_inplaceIN6rclcpp4NodeESaIS1_ELN9__gnu_cxx12_Lock_policyE2EEED2Ev
FNDA:8,_ZNSaISt23_Sp_counted_ptr_inplaceIN6rclcpp4NodeESaIS1_ELN9__gnu_cxx12_Lock_policyE2EEED2Ev
FN:152,_ZNSaIhED2Ev
FNDA:40,_ZNSaIhED2Ev
FN:152,_ZNSaIN6rclcpp9ParameterEED2Ev
FNDA:5,_ZNSaIN6rclcpp9ParameterEED2Ev
FN:152,_ZNSaISt23_Sp_counted_ptr_inplaceIN6rclcpp9PublisherIN8std_msgs3msg7String_ISaIvEEES5_EESaIS7_ELN9__gnu_cxx12_Lock_policyE2EEED2Ev
FNDA:4,_ZNSaISt23_Sp_counted_ptr_inplaceIN6rclcpp9PublisherIN8std_msgs3msg7String_ISaIvEEES5_EESaIS7_ELN9__gnu_cxx12_Lock_policyE2EEED2Ev
FN:152,_ZNSaIlED2Ev
FNDA:40,_ZNSaIlED2Ev
FN:152,_ZNSaINSt7__cxx1112basic_stringIcSt11char_traitsIcESaIcEEEED2Ev
FNDA:162,_ZNSaINSt7__cxx1112basic_stringIcSt11char_traitsIcESaIcEEEED2Ev
FN:152,_ZNSaIdED2Ev
FNDA:40,_ZNSaIdED2Ev
FN:152,_ZNSaIN8std_msgs3msg7String_ISaIvEEEED2Ev
FNDA:4,_ZNSaIN8std_msgs3msg7String_ISaIvEEEED2Ev
FN:152,_ZNSaISt23_Sp_counted_ptr_inplaceIN8std_msgs3msg7String_ISaIvEEESaIS4_ELN9__gnu_cxx12_Lock_policyE2EEED2Ev
FNDA:0,_ZNSaISt23_Sp_counted_ptr_inplaceIN8std_msgs3msg7String_ISaIvEEESaIS4_ELN9__gnu_cxx12_Lock_policyE2EEED2Ev
FN:152,_ZNSaISt19_Sp_counted_deleterIPN8std_msgs3msg7String_ISaIvEEESt14default_deleteIS4_ES3_LN9__gnu_cxx12_Lock_policyE2EEED2Ev
FNDA:0,_ZNSaISt19_Sp_counted_deleterIPN8std_msgs3msg7String_ISaIvEEESt14default_deleteIS4_ES3_LN9__gnu_cxx12_Lock_policyE2EEED2Ev
FN:152,_ZNSaISt23_Sp_counted_ptr_inplaceIN6rclcpp15QOSEventHandlerIZNS0_9PublisherIN8std_msgs3msg7String_ISaIvEEES6_EC4EPNS0_15node_interfaces17NodeBaseInterfaceERKNSt7__cxx1112basic_stringIcSt11char_traitsIcESaIcEEERKNS0_3QoSERKNS0_29PublisherOptionsWithAllocatorIS6_EEEUlR35rmw_qos_incompatible_event_status_tE_St10shared_ptrI15rcl_publisher_tEEESaISX_ELN9__gnu_cxx12_Lock_policyE2EEED2Ev
FNDA:2,_ZNSaISt23_Sp_counted_ptr_inplaceIN6rclcpp15QOSEventHandlerIZNS0_9PublisherIN8std_msgs3msg7String_ISaIvEEES6_EC4EPNS0_15node_interfaces17NodeBaseInterfaceERKNSt7__cxx1112basic_stringIcSt11char_traitsIcESaIcEEERKNS0_3QoSERKNS0_29PublisherOptionsWithAllocatorIS6_EEEUlR35rmw_qos_incompatible_event_status_tE_St10shared_ptrI15rcl_publisher_tEEESaISX_ELN9__gnu_cxx12_Lock_policyE2EEED2Ev
FN:152,_ZNSaISt23_Sp_counted_ptr_inplaceIN6rclcpp15QOSEventHandlerISt8functionIFvR35rmw_qos_incompatible_event_status_tEESt10shared_ptrI15rcl_publisher_tEEESaISA_ELN9__gnu_cxx12_Lock_policyE2EEED2Ev
FNDA:0,_ZNSaISt23_Sp_counted_ptr_inplaceIN6rclcpp15QOSEventHandlerISt8functionIFvR35rmw_qos_incompatible_event_status_tEESt10shared_ptrI15rcl_publisher_tEEESaISA_ELN9__gnu_cxx12_Lock_policyE2EEED2Ev
FN:152,_ZNSaISt23_Sp_counted_ptr_inplaceIN6rclcpp15QOSEventHandlerISt8functionIFvR28rmw_liveliness_lost_status_tEESt10shared_ptrI15rcl_publisher_tEEESaISA_ELN9__gnu_cxx12_Lock_policyE2EEED2Ev
FNDA:0,_ZNSaISt23_Sp_counted_ptr_inplaceIN6rclcpp15QOSEventHandlerISt8functionIFvR28rmw_liveliness_lost_status_tEESt10shared_ptrI15rcl_publisher_tEEESaISA_ELN9__gnu_cxx12_Lock_policyE2EEED2Ev
FN:152,_ZNSaISt23_Sp_counted_ptr_inplaceIN6rclcpp15QOSEventHandlerISt8functionIFvR36rmw_offered_deadline_missed_status_tEESt10shared_ptrI15rcl_publisher_tEEESaISA_ELN9__gnu_cxx12_Lock_policyE2EEED2Ev
FNDA:0,_ZNSaISt23_Sp_counted_ptr_inplaceIN6rclcpp15QOSEventHandlerISt8functionIFvR36rmw_offered_deadline_missed_status_tEESt10shared_ptrI15rcl_publisher_tEEESaISA_ELN9__gnu_cxx12_Lock_policyE2EEED2Ev
FN:152,_ZNSaISt23_Sp_counted_ptr_inplaceISaIvESaIS0_ELN9__gnu_cxx12_Lock_policyE2EEED2Ev
FNDA:36,_ZNSaISt23_Sp_counted_ptr_inplaceISaIvESaIS0_ELN9__gnu_cxx12_Lock_policyE2EEED2Ev
FN:152,_ZNSaISt23_Sp_counted_ptr_inplaceISaIN8std_msgs3msg7String_ISaIvEEEESaIS5_ELN9__gnu_cxx12_Lock_policyE2EEED2Ev
FNDA:4,_ZNSaISt23_Sp_counted_ptr_inplaceISaIN8std_msgs3msg7String_ISaIvEEEESaIS5_ELN9__gnu_cxx12_Lock_policyE2EEED2Ev
FN:152,_ZNSaISt19_Sp_counted_deleterIPN6rclcpp12experimental19IntraProcessManagerEZNS0_7Context15get_sub_contextIS2_JEEESt10shared_ptrIT_EDpOT0_EUlS3_E_SaIvELN9__gnu_cxx12_Lock_policyE2EEED2Ev
FNDA:0,_ZNSaISt19_Sp_counted_deleterIPN6rclcpp12experimental19IntraProcessManagerEZNS0_7Context15get_sub_contextIS2_JEEESt10shared_ptrIT_EDpOT0_EUlS3_E_SaIvELN9__gnu_cxx12_Lock_policyE2EEED2Ev
FN:152,_ZNSaIN6rclcpp15QOSEventHandlerIZNS_9PublisherIN8std_msgs3msg7String_ISaIvEEES5_EC4EPNS_15node_interfaces17NodeBaseInterfaceERKNSt7__cxx1112basic_stringIcSt11char_traitsIcESaIcEEERKNS_3QoSERKNS_29PublisherOptionsWithAllocatorIS5_EEEUlR35rmw_qos_incompatible_event_status_tE_St10shared_ptrI15rcl_publisher_tEEEED2Ev
FNDA:8,_ZNSaIN6rclcpp15QOSEventHandlerIZNS_9PublisherIN8std_msgs3msg7String_ISaIvEEES5_EC4EPNS_15node_interfaces17NodeBaseInterfaceERKNSt7__cxx1112basic_stringIcSt11char_traitsIcESaIcEEERKNS_3QoSERKNS_29PublisherOptionsWithAllocatorIS5_EEEUlR35rmw_qos_incompatible_event_status_tE_St10shared_ptrI15rcl_publisher_tEEEED2Ev
FN:152,_ZNSaIN6rclcpp15QOSEventHandlerISt8functionIFvR35rmw_qos_incompatible_event_status_tEESt10shared_ptrI15rcl_publisher_tEEEED2Ev
FNDA:0,_ZNSaIN6rclcpp15QOSEventHandlerISt8functionIFvR35rmw_qos_incompatible_event_status_tEESt10shared_ptrI15rcl_publisher_tEEEED2Ev
FN:152,_ZNSaIN6rclcpp15QOSEventHandlerISt8functionIFvR28rmw_liveliness_lost_status_tEESt10shared_ptrI15rcl_publisher_tEEEED2Ev
FNDA:0,_ZNSaIN6rclcpp15QOSEventHandlerISt8functionIFvR28rmw_liveliness_lost_status_tEESt10shared_ptrI15rcl_publisher_tEEEED2Ev
FN:152,_ZNSaIN6rclcpp15QOSEventHandlerISt8functionIFvR36rmw_offered_deadline_missed_status_tEESt10shared_ptrI15rcl_publisher_tEEEED2Ev
FNDA:0,_ZNSaIN6rclcpp15QOSEventHandlerISt8functionIFvR36rmw_offered_deadline_missed_status_tEESt10shared_ptrI15rcl_publisher_tEEEED2Ev
FN:152,_ZNSaISaIvEED2Ev
FNDA:52,_ZNSaISaIvEED2Ev
FN:152,_ZNSaISaIN8std_msgs3msg7String_ISaIvEEEEED2Ev
FNDA:8,_ZNSaISaIN8std_msgs3msg7String_ISaIvEEEEED2Ev
FN:152,_ZNSaIPNSt8__detail15_Hash_node_baseEED2Ev
FNDA:1,_ZNSaIPNSt8__detail15_Hash_node_baseEED2Ev
DA:137,0
DA:137,2
DA:137,0
DA:137,0
DA:137,0
DA:137,8
DA:137,2
DA:137,2
DA:137,4
DA:140,0
DA:141,0
DA:140,6
DA:141,6
DA:140,0
DA:141,0
DA:140,0
DA:141,0
DA:140,0
DA:141,0
DA:140,24
DA:141,24
DA:140,6
DA:141,6
DA:140,6
DA:141,6
DA:140,12
DA:141,12
DA:140,0
DA:141,0
DA:150,0
DA:150,0
DA:150,2
DA:150,0
DA:150,0
DA:150,0
DA:150,36
DA:150,4
DA:150,1
DA:150,4
DA:150,0
DA:150,4
DA:150,8
DA:152,52
DA:152,162
DA:152,40
DA:152,40
DA:152,40
DA:152,40
DA:152,5
DA:152,16
DA:152,8
DA:152,8
DA:152,4
DA:152,0
DA:152,1
DA:152,8
DA:152,0
DA:152,0
DA:152,0
DA:152,0
DA:152,8
DA:152,4
DA:152,4
DA:152,36
DA:152,0
DA:152,0
DA:152,0
DA:152,2
DA:152,0
end_of_record
SF:/opt/ros/foxy/src/gtest_vendor/include/gtest/gtest.h
FN:320,_ZNK7testing15AssertionResultcvbEv
FNDA:3,_ZNK7testing15AssertionResultcvbEv
FN:329,_ZNK7testing15AssertionResult7messageEv
FNDA:0,_ZNK7testing15AssertionResult7messageEv
FN:334,_ZNK7testing15AssertionResult15failure_messageEv
FNDA:0,_ZNK7testing15AssertionResult15failure_messageEv
FN:429,_ZN7testing4Test13SetUpTestCaseEv
FNDA:3,_ZN7testing4Test13SetUpTestCaseEv
FN:437,_ZN7testing4Test16TearDownTestCaseEv
FNDA:3,_ZN7testing4Test16TearDownTestCaseEv
FN:517,_ZN7testing4Test5SetupEv
FNDA:0,_ZN7testing4Test5SetupEv
FN:1444,_ZN7testing8internal18CmpHelperEQFailureIiiEENS_15AssertionResultEPKcS4_RKT_RKT0_
FNDA:0,_ZN7testing8internal18CmpHelperEQFailureIiiEENS_15AssertionResultEPKcS4_RKT_RKT0_
FN:1463,_ZN7testing8internal11CmpHelperEQIiiEENS_15AssertionResultEPKcS4_RKT_RKT0_
FNDA:2,_ZN7testing8internal11CmpHelperEQIiiEENS_15AssertionResultEPKcS4_RKT_RKT0_
FN:1491,_ZN7testing8internal8EqHelperILb0EE7CompareIiiEENS_15AssertionResultEPKcS6_RKT_RKT0_
FNDA:2,_ZN7testing8internal8EqHelperILb0EE7CompareIiiEENS_15AssertionResultEPKcS6_RKT_RKT0_
DA:320,3
DA:329,0
DA:330,0
DA:334,0
DA:429,3
DA:437,3
DA:517,0
DA:1444,0
DA:1451,0
DA:1463,2
DA:1467,2
DA:1468,2
DA:1471,0
DA:1491,2
DA:1495,2
end_of_record
TN:
SF:/opt/ros/foxy/include/rclcpp/experimental/subscription_intra_process.hpp
FN:118,_ZN6rclcpp12experimental24SubscriptionIntraProcessIN8nav_msgs3msg9Odometry_ISaIvEEES5_St14default_deleteIS6_ES6_E29provide_intra_process_messageESt10shared_ptrIKS6_E
FNDA:0,_ZN6rclcpp12experimental24SubscriptionIntraProcessIN8nav_msgs3msg9Odometry_ISaIvEEES5_St14default_deleteIS6_ES6_E29provide_intra_process_messageESt10shared_ptrIKS6_E
FN:125,_ZN6rclcpp12experimental24SubscriptionIntraProcessIN8nav_msgs3msg9Odometry_ISaIvEEES5_St14default_deleteIS6_ES6_E29provide_intra_process_messageESt10unique_ptrIS6_S8_E
FNDA:0,_ZN6rclcpp12experimental24SubscriptionIntraProcessIN8nav_msgs3msg9Odometry_ISaIvEEES5_St14default_deleteIS6_ES6_E29provide_intra_process_messageESt10unique_ptrIS6_S8_E
DA:118,0
DA:120,0
DA:121,0
DA:122,0
DA:125,0
DA:127,0
DA:128,0
DA:129,0
end_of_record
SF:/opt/ros/foxy/include/rclcpp/exceptions/exceptions.hpp
FN:140,_ZN6rclcpp10exceptions12RCLErrorBaseD0Ev
FNDA:0,_ZN6rclcpp10exceptions12RCLErrorBaseD0Ev
FN:140,_ZN6rclcpp10exceptions12RCLErrorBaseD2Ev
FNDA:0,_ZN6rclcpp10exceptions12RCLErrorBaseD2Ev
DA:140,0
DA:140,0
end_of_record
SF:/opt/ros/foxy/src/gtest_vendor/include/gtest/gtest.h
FN:301,_ZN7testing15AssertionResultC2IbEERKT_PNS_8internal8EnableIfIXntsrNS5_21ImplicitlyConvertibleIS2_S0_EE5valueEE4typeE
FNDA:3,_ZN7testing15AssertionResultC2IbEERKT_PNS_8internal8EnableIfIXntsrNS5_21ImplicitlyConvertibleIS2_S0_EE5valueEE4typeE
FN:320,_ZNK7testing15AssertionResultcvbEv
FNDA:0,_ZNK7testing15AssertionResultcvbEv
FN:429,_ZN7testing4Test13SetUpTestCaseEv
FNDA:0,_ZN7testing4Test13SetUpTestCaseEv
FN:437,_ZN7testing4Test16TearDownTestCaseEv
FNDA:0,_ZN7testing4Test16TearDownTestCaseEv
FN:517,_ZN7testing4Test5SetupEv
FNDA:0,_ZN7testing4Test5SetupEv
DA:301,3
DA:307,3
DA:320,0
DA:429,0
DA:437,0
DA:517,0
end_of_record
SF:/usr/include/c++/9/bits/allocator.h
FN:137,_ZNSaISt19_Sp_counted_deleterIPN8nav_msgs3msg9Odometry_ISaIvEEESt14default_deleteIS4_ES3_LN9__gnu_cxx12_Lock_policyE2EEEC2Ev
FNDA:0,_ZNSaISt19_Sp_counted_deleterIPN8nav_msgs3msg9Odometry_ISaIvEEESt14default_deleteIS4_ES3_LN9__gnu_cxx12_Lock_policyE2EEEC2Ev
FN:137,_ZNSaIN6rclcpp4NodeEEC2Ev
FNDA:0,_ZNSaIN6rclcpp4NodeEEC2Ev
FN:137,_ZNSaIN6rclcpp15QOSEventHandlerIZNS_9PublisherIN8nav_msgs3msg9Odometry_ISaIvEEES5_EC4EPNS_15node_interfaces17NodeBaseInterfaceERKNSt7__cxx1112basic_stringIcSt11char_traitsIcESaIcEEERKNS_3QoSERKNS_29PublisherOptionsWithAllocatorIS5_EEEUlR35rmw_qos_incompatible_event_status_tE_St10shared_ptrI15rcl_publisher_tEEEEC2Ev
FNDA:1,_ZNSaIN6rclcpp15QOSEventHandlerIZNS_9PublisherIN8nav_msgs3msg9Odometry_ISaIvEEES5_EC4EPNS_15node_interfaces17NodeBaseInterfaceERKNSt7__cxx1112basic_stringIcSt11char_traitsIcESaIcEEERKNS_3QoSERKNS_29PublisherOptionsWithAllocatorIS5_EEEUlR35rmw_qos_incompatible_event_status_tE_St10shared_ptrI15rcl_publisher_tEEEEC2Ev
FN:137,_ZNSaIN6rclcpp15QOSEventHandlerISt8functionIFvR35rmw_qos_incompatible_event_status_tEESt10shared_ptrI15rcl_publisher_tEEEEC2Ev
FNDA:0,_ZNSaIN6rclcpp15QOSEventHandlerISt8functionIFvR35rmw_qos_incompatible_event_status_tEESt10shared_ptrI15rcl_publisher_tEEEEC2Ev
FN:137,_ZNSaIN6rclcpp5ClockEEC2Ev
FNDA:1,_ZNSaIN6rclcpp5ClockEEC2Ev
FN:137,_ZNSaISaIN8nav_msgs3msg9Odometry_ISaIvEEEEEC2Ev
FNDA:1,_ZNSaISaIN8nav_msgs3msg9Odometry_ISaIvEEEEEC2Ev
FN:137,_ZNSaIN6rclcpp9WallTimerISt5_BindIFM14TaskNavigationFvvEP36TaskNavigation_test_search_bins_TestEELPv0EEEEC2Ev
FNDA:1,_ZNSaIN6rclcpp9WallTimerISt5_BindIFM14TaskNavigationFvvEP36TaskNavigation_test_search_bins_TestEELPv0EEEEC2Ev
FN:137,_ZNSaISaIvEEC2Ev
FNDA:0,_ZNSaISaIvEEC2Ev
FN:137,_ZNSaIN6rclcpp15QOSEventHandlerISt8functionIFvR36rmw_offered_deadline_missed_status_tEESt10shared_ptrI15rcl_publisher_tEEEEC2Ev
FNDA:0,_ZNSaIN6rclcpp15QOSEventHandlerISt8functionIFvR36rmw_offered_deadline_missed_status_tEESt10shared_ptrI15rcl_publisher_tEEEEC2Ev
FN:137,_ZNSaIN6rclcpp9PublisherIN8nav_msgs3msg9Odometry_ISaIvEEES4_EEEC2Ev
FNDA:1,_ZNSaIN6rclcpp9PublisherIN8nav_msgs3msg9Odometry_ISaIvEEES4_EEEC2Ev
FN:137,_ZNSaIN6rclcpp15QOSEventHandlerISt8functionIFvR28rmw_liveliness_lost_status_tEESt10shared_ptrI15rcl_publisher_tEEEEC2Ev
FNDA:0,_ZNSaIN6rclcpp15QOSEventHandlerISt8functionIFvR28rmw_liveliness_lost_status_tEESt10shared_ptrI15rcl_publisher_tEEEEC2Ev
FN:140,_ZNSaIN6rclcpp5ClockEEC2ERKS1_
FNDA:3,_ZNSaIN6rclcpp5ClockEEC2ERKS1_
FN:140,_ZNSaIN6rclcpp15QOSEventHandlerIZNS_9PublisherIN8nav_msgs3msg9Odometry_ISaIvEEES5_EC4EPNS_15node_interfaces17NodeBaseInterfaceERKNSt7__cxx1112basic_stringIcSt11char_traitsIcESaIcEEERKNS_3QoSERKNS_29PublisherOptionsWithAllocatorIS5_EEEUlR35rmw_qos_incompatible_event_status_tE_St10shared_ptrI15rcl_publisher_tEEEEC2ERKSX_
FNDA:3,_ZNSaIN6rclcpp15QOSEventHandlerIZNS_9PublisherIN8nav_msgs3msg9Odometry_ISaIvEEES5_EC4EPNS_15node_interfaces17NodeBaseInterfaceERKNSt7__cxx1112basic_stringIcSt11char_traitsIcESaIcEEERKNS_3QoSERKNS_29PublisherOptionsWithAllocatorIS5_EEEUlR35rmw_qos_incompatible_event_status_tE_St10shared_ptrI15rcl_publisher_tEEEEC2ERKSX_
FN:140,_ZNSaIN6rclcpp9WallTimerISt5_BindIFM14TaskNavigationFvvEP36TaskNavigation_test_search_bins_TestEELPv0EEEEC2ERKSB_
FNDA:3,_ZNSaIN6rclcpp9WallTimerISt5_BindIFM14TaskNavigationFvvEP36TaskNavigation_test_search_bins_TestEELPv0EEEEC2ERKSB_
FN:140,_ZNSaIN6rclcpp9PublisherIN8nav_msgs3msg9Odometry_ISaIvEEES4_EEEC2ERKS7_
FNDA:3,_ZNSaIN6rclcpp9PublisherIN8nav_msgs3msg9Odometry_ISaIvEEES4_EEEC2ERKS7_
FN:140,_ZNSaIN6rclcpp4NodeEEC2ERKS1_
FNDA:0,_ZNSaIN6rclcpp4NodeEEC2ERKS1_
FN:140,_ZNSaIN8nav_msgs3msg9Odometry_ISaIvEEEEC2ERKS4_
FNDA:0,_ZNSaIN8nav_msgs3msg9Odometry_ISaIvEEEEC2ERKS4_
FN:140,_ZNSaISaIN8nav_msgs3msg9Odometry_ISaIvEEEEEC2ERKS5_
FNDA:3,_ZNSaISaIN8nav_msgs3msg9Odometry_ISaIvEEEEEC2ERKS5_
FN:140,_ZNSaIN6rclcpp15QOSEventHandlerISt8functionIFvR35rmw_qos_incompatible_event_status_tEESt10shared_ptrI15rcl_publisher_tEEEEC2ERKSA_
FNDA:0,_ZNSaIN6rclcpp15QOSEventHandlerISt8functionIFvR35rmw_qos_incompatible_event_status_tEESt10shared_ptrI15rcl_publisher_tEEEEC2ERKSA_
FN:140,_ZNSaISaIvEEC2ERKS0_
FNDA:0,_ZNSaISaIvEEC2ERKS0_
FN:140,_ZNSaIN6rclcpp15QOSEventHandlerISt8functionIFvR36rmw_offered_deadline_missed_status_tEESt10shared_ptrI15rcl_publisher_tEEEEC2ERKSA_
FNDA:0,_ZNSaIN6rclcpp15QOSEventHandlerISt8functionIFvR36rmw_offered_deadline_missed_status_tEESt10shared_ptrI15rcl_publisher_tEEEEC2ERKSA_
FN:140,_ZNSaIN6rclcpp15QOSEventHandlerISt8functionIFvR28rmw_liveliness_lost_status_tEESt10shared_ptrI15rcl_publisher_tEEEEC2ERKSA_
FNDA:0,_ZNSaIN6rclcpp15QOSEventHandlerISt8functionIFvR28rmw_liveliness_lost_status_tEESt10shared_ptrI15rcl_publisher_tEEEEC2ERKSA_
FN:140,_ZNSaImEC2ERKS_
FNDA:0,_ZNSaImEC2ERKS_
FN:150,_ZNSaISt23_Sp_counted_ptr_inplaceIN8nav_msgs3msg9Odometry_ISaIvEEESaIS4_ELN9__gnu_cxx12_Lock_policyE2EEEC2IS4_EERKSaIT_E
FNDA:0,_ZNSaISt23_Sp_counted_ptr_inplaceIN8nav_msgs3msg9Odometry_ISaIvEEESaIS4_ELN9__gnu_cxx12_Lock_policyE2EEEC2IS4_EERKSaIT_E
FN:150,_ZNSaISt19_Sp_counted_deleterIPN8nav_msgs3msg9Odometry_ISaIvEEESt14default_deleteIS4_ES3_LN9__gnu_cxx12_Lock_policyE2EEEC2IvEERKSaIT_E
FNDA:0,_ZNSaISt19_Sp_counted_deleterIPN8nav_msgs3msg9Odometry_ISaIvEEESt14default_deleteIS4_ES3_LN9__gnu_cxx12_Lock_policyE2EEEC2IvEERKSaIT_E
FN:150,_ZNSaISt23_Sp_counted_ptr_inplaceIN6rclcpp9PublisherIN8nav_msgs3msg9Odometry_ISaIvEEES5_EESaIS7_ELN9__gnu_cxx12_Lock_policyE2EEEC2IS7_EERKSaIT_E
FNDA:2,_ZNSaISt23_Sp_counted_ptr_inplaceIN6rclcpp9PublisherIN8nav_msgs3msg9Odometry_ISaIvEEES5_EESaIS7_ELN9__gnu_cxx12_Lock_policyE2EEEC2IS7_EERKSaIT_E
FN:150,_ZNSaISt23_Sp_counted_ptr_inplaceIN6rclcpp15QOSEventHandlerIZNS0_9PublisherIN8nav_msgs3msg9Odometry_ISaIvEEES6_EC4EPNS0_15node_interfaces17NodeBaseInterfaceERKNSt7__cxx1112basic_stringIcSt11char_traitsIcESaIcEEERKNS0_3QoSERKNS0_29PublisherOptionsWithAllocatorIS6_EEEUlR35rmw_qos_incompatible_event_status_tE_St10shared_ptrI15rcl_publisher_tEEESaISX_ELN9__gnu_cxx12_Lock_policyE2EEEC2ISX_EERKSaIT_E
FNDA:1,_ZNSaISt23_Sp_counted_ptr_inplaceIN6rclcpp15QOSEventHandlerIZNS0_9PublisherIN8nav_msgs3msg9Odometry_ISaIvEEES6_EC4EPNS0_15node_interfaces17NodeBaseInterfaceERKNSt7__cxx1112basic_stringIcSt11char_traitsIcESaIcEEERKNS0_3QoSERKNS0_29PublisherOptionsWithAllocatorIS6_EEEUlR35rmw_qos_incompatible_event_status_tE_St10shared_ptrI15rcl_publisher_tEEESaISX_ELN9__gnu_cxx12_Lock_policyE2EEEC2ISX_EERKSaIT_E
FN:150,_ZNSaISt23_Sp_counted_ptr_inplaceIN6rclcpp9WallTimerISt5_BindIFM14TaskNavigationFvvEP36TaskNavigation_test_search_bins_TestEELPv0EEESaISB_ELN9__gnu_cxx12_Lock_policyE2EEEC2ISB_EERKSaIT_E
FNDA:2,_ZNSaISt23_Sp_counted_ptr_inplaceIN6rclcpp9WallTimerISt5_BindIFM14TaskNavigationFvvEP36TaskNavigation_test_search_bins_TestEELPv0EEESaISB_ELN9__gnu_cxx12_Lock_policyE2EEEC2ISB_EERKSaIT_E
FN:150,_ZNSaISt19_Sp_counted_deleterIPN6rclcpp12experimental19IntraProcessManagerEZNS0_7Context15get_sub_contextIS2_JEEESt10shared_ptrIT_EDpOT0_EUlS3_E_SaIvELN9__gnu_cxx12_Lock_policyE2EEEC2IvEERKSaIS7_E
FNDA:0,_ZNSaISt19_Sp_counted_deleterIPN6rclcpp12experimental19IntraProcessManagerEZNS0_7Context15get_sub_contextIS2_JEEESt10shared_ptrIT_EDpOT0_EUlS3_E_SaIvELN9__gnu_cxx12_Lock_policyE2EEEC2IvEERKSaIS7_E
FN:150,_ZNSaISt23_Sp_counted_ptr_inplaceIN6rclcpp4NodeESaIS1_ELN9__gnu_cxx12_Lock_policyE2EEEC2IS1_EERKSaIT_E
FNDA:0,_ZNSaISt23_Sp_counted_ptr_inplaceIN6rclcpp4NodeESaIS1_ELN9__gnu_cxx12_Lock_policyE2EEEC2IS1_EERKSaIT_E
FN:150,_ZNSaIN8nav_msgs3msg9Odometry_ISaIvEEEEC2IvEERKSaIT_E
FNDA:2,_ZNSaIN8nav_msgs3msg9Odometry_ISaIvEEEEC2IvEERKSaIT_E
FN:150,_ZNSaIPNSt8__detail15_Hash_node_baseEEC2INS_10_Hash_nodeISt4pairIKSt10type_indexSt10shared_ptrIvEELb0EEEEERKSaIT_E
FNDA:0,_ZNSaIPNSt8__detail15_Hash_node_baseEEC2INS_10_Hash_nodeISt4pairIKSt10type_indexSt10shared_ptrIvEELb0EEEEERKSaIT_E
FN:150,_ZNSaISt23_Sp_counted_ptr_inplaceIN6rclcpp15QOSEventHandlerISt8functionIFvR35rmw_qos_incompatible_event_status_tEESt10shared_ptrI15rcl_publisher_tEEESaISA_ELN9__gnu_cxx12_Lock_policyE2EEEC2ISA_EERKSaIT_E
FNDA:0,_ZNSaISt23_Sp_counted_ptr_inplaceIN6rclcpp15QOSEventHandlerISt8functionIFvR35rmw_qos_incompatible_event_status_tEESt10shared_ptrI15rcl_publisher_tEEESaISA_ELN9__gnu_cxx12_Lock_policyE2EEEC2ISA_EERKSaIT_E
FN:150,_ZNSaISt23_Sp_counted_ptr_inplaceIN6rclcpp15QOSEventHandlerISt8functionIFvR36rmw_offered_deadline_missed_status_tEESt10shared_ptrI15rcl_publisher_tEEESaISA_ELN9__gnu_cxx12_Lock_policyE2EEEC2ISA_EERKSaIT_E
FNDA:0,_ZNSaISt23_Sp_counted_ptr_inplaceIN6rclcpp15QOSEventHandlerISt8functionIFvR36rmw_offered_deadline_missed_status_tEESt10shared_ptrI15rcl_publisher_tEEESaISA_ELN9__gnu_cxx12_Lock_policyE2EEEC2ISA_EERKSaIT_E
FN:150,_ZNSaISt23_Sp_counted_ptr_inplaceISaIN8nav_msgs3msg9Odometry_ISaIvEEEESaIS5_ELN9__gnu_cxx12_Lock_policyE2EEEC2IS5_EERKSaIT_E
FNDA:2,_ZNSaISt23_Sp_counted_ptr_inplaceISaIN8nav_msgs3msg9Odometry_ISaIvEEEESaIS5_ELN9__gnu_cxx12_Lock_policyE2EEEC2IS5_EERKSaIT_E
FN:150,_ZNSaISt23_Sp_counted_ptr_inplaceIN6rclcpp5ClockESaIS1_ELN9__gnu_cxx12_Lock_policyE2EEEC2IS1_EERKSaIT_E
FNDA:7,_ZNSaISt23_Sp_counted_ptr_inplaceIN6rclcpp5ClockESaIS1_ELN9__gnu_cxx12_Lock_policyE2EEEC2IS1_EERKSaIT_E
FN:150,_ZNSaISt23_Sp_counted_ptr_inplaceIN6rclcpp15QOSEventHandlerISt8functionIFvR28rmw_liveliness_lost_status_tEESt10shared_ptrI15rcl_publisher_tEEESaISA_ELN9__gnu_cxx12_Lock_policyE2EEEC2ISA_EERKSaIT_E
FNDA:0,_ZNSaISt23_Sp_counted_ptr_inplaceIN6rclcpp15QOSEventHandlerISt8functionIFvR28rmw_liveliness_lost_status_tEESt10shared_ptrI15rcl_publisher_tEEESaISA_ELN9__gnu_cxx12_Lock_policyE2EEEC2ISA_EERKSaIT_E
FN:150,_ZNSaISt23_Sp_counted_ptr_inplaceISaIvESaIS0_ELN9__gnu_cxx12_Lock_policyE2EEEC2IS0_EERKSaIT_E
FNDA:0,_ZNSaISt23_Sp_counted_ptr_inplaceISaIvESaIS0_ELN9__gnu_cxx12_Lock_policyE2EEEC2IS0_EERKSaIT_E
FN:152,_ZNSaISt23_Sp_counted_ptr_inplaceIN6rclcpp4NodeESaIS1_ELN9__gnu_cxx12_Lock_policyE2EEED2Ev
FNDA:0,_ZNSaISt23_Sp_counted_ptr_inplaceIN6rclcpp4NodeESaIS1_ELN9__gnu_cxx12_Lock_policyE2EEED2Ev
FN:152,_ZNSaIdED2Ev
FNDA:0,_ZNSaIdED2Ev
FN:152,_ZNSaISt19_Sp_counted_deleterIPN8nav_msgs3msg9Odometry_ISaIvEEESt14default_deleteIS4_ES3_LN9__gnu_cxx12_Lock_policyE2EEED2Ev
FNDA:0,_ZNSaISt19_Sp_counted_deleterIPN8nav_msgs3msg9Odometry_ISaIvEEESt14default_deleteIS4_ES3_LN9__gnu_cxx12_Lock_policyE2EEED2Ev
FN:152,_ZNSaINSt7__cxx1112basic_stringIcSt11char_traitsIcESaIcEEEED2Ev
FNDA:0,_ZNSaINSt7__cxx1112basic_stringIcSt11char_traitsIcESaIcEEEED2Ev
FN:152,_ZNSaIN6rclcpp9ParameterEED2Ev
FNDA:0,_ZNSaIN6rclcpp9ParameterEED2Ev
FN:152,_ZNSaIlED2Ev
FNDA:0,_ZNSaIlED2Ev
FN:152,_ZNSaIhED2Ev
FNDA:0,_ZNSaIhED2Ev
FN:152,_ZNSaIN6rclcpp4NodeEED2Ev
FNDA:0,_ZNSaIN6rclcpp4NodeEED2Ev
FN:152,_ZNSaIPNSt8__detail15_Hash_node_baseEED2Ev
FNDA:0,_ZNSaIPNSt8__detail15_Hash_node_baseEED2Ev
FN:152,_ZNSaImED2Ev
FNDA:0,_ZNSaImED2Ev
FN:152,_ZNSaIN6rclcpp9PublisherIN8nav_msgs3msg9Odometry_ISaIvEEES4_EEED2Ev
FNDA:4,_ZNSaIN6rclcpp9PublisherIN8nav_msgs3msg9Odometry_ISaIvEEES4_EEED2Ev
FN:152,_ZNSaIN6rclcpp9WallTimerISt5_BindIFM14TaskNavigationFvvEP36TaskNavigation_test_search_bins_TestEELPv0EEEED2Ev
FNDA:4,_ZNSaIN6rclcpp9WallTimerISt5_BindIFM14TaskNavigationFvvEP36TaskNavigation_test_search_bins_TestEELPv0EEEED2Ev
FN:152,_ZNSaIN6rclcpp15QOSEventHandlerISt8functionIFvR28rmw_liveliness_lost_status_tEESt10shared_ptrI15rcl_publisher_tEEEED2Ev
FNDA:0,_ZNSaIN6rclcpp15QOSEventHandlerISt8functionIFvR28rmw_liveliness_lost_status_tEESt10shared_ptrI15rcl_publisher_tEEEED2Ev
FN:152,_ZNSaISt23_Sp_counted_ptr_inplaceIN6rclcpp15QOSEventHandlerIZNS0_9PublisherIN8nav_msgs3msg9Odometry_ISaIvEEES6_EC4EPNS0_15node_interfaces17NodeBaseInterfaceERKNSt7__cxx1112basic_stringIcSt11char_traitsIcESaIcEEERKNS0_3QoSERKNS0_29PublisherOptionsWithAllocatorIS6_EEEUlR35rmw_qos_incompatible_event_status_tE_St10shared_ptrI15rcl_publisher_tEEESaISX_ELN9__gnu_cxx12_Lock_policyE2EEED2Ev
FNDA:1,_ZNSaISt23_Sp_counted_ptr_inplaceIN6rclcpp15QOSEventHandlerIZNS0_9PublisherIN8nav_msgs3msg9Odometry_ISaIvEEES6_EC4EPNS0_15node_interfaces17NodeBaseInterfaceERKNSt7__cxx1112basic_stringIcSt11char_traitsIcESaIcEEERKNS0_3QoSERKNS0_29PublisherOptionsWithAllocatorIS6_EEEUlR35rmw_qos_incompatible_event_status_tE_St10shared_ptrI15rcl_publisher_tEEESaISX_ELN9__gnu_cxx12_Lock_policyE2EEED2Ev
FN:152,_ZNSaISt23_Sp_counted_ptr_inplaceIN6rclcpp15QOSEventHandlerISt8functionIFvR35rmw_qos_incompatible_event_status_tEESt10shared_ptrI15rcl_publisher_tEEESaISA_ELN9__gnu_cxx12_Lock_policyE2EEED2Ev
FNDA:0,_ZNSaISt23_Sp_counted_ptr_inplaceIN6rclcpp15QOSEventHandlerISt8functionIFvR35rmw_qos_incompatible_event_status_tEESt10shared_ptrI15rcl_publisher_tEEESaISA_ELN9__gnu_cxx12_Lock_policyE2EEED2Ev
FN:152,_ZNSaISt23_Sp_counted_ptr_inplaceIN6rclcpp15QOSEventHandlerISt8functionIFvR28rmw_liveliness_lost_status_tEESt10shared_ptrI15rcl_publisher_tEEESaISA_ELN9__gnu_cxx12_Lock_policyE2EEED2Ev
FNDA:0,_ZNSaISt23_Sp_counted_ptr_inplaceIN6rclcpp15QOSEventHandlerISt8functionIFvR28rmw_liveliness_lost_status_tEESt10shared_ptrI15rcl_publisher_tEEESaISA_ELN9__gnu_cxx12_Lock_policyE2EEED2Ev
FN:152,_ZNSaISt23_Sp_counted_ptr_inplaceIN6rclcpp15QOSEventHandlerISt8functionIFvR36rmw_offered_deadline_missed_status_tEESt10shared_ptrI15rcl_publisher_tEEESaISA_ELN9__gnu_cxx12_Lock_policyE2EEED2Ev
FNDA:0,_ZNSaISt23_Sp_counted_ptr_inplaceIN6rclcpp15QOSEventHandlerISt8functionIFvR36rmw_offered_deadline_missed_status_tEESt10shared_ptrI15rcl_publisher_tEEESaISA_ELN9__gnu_cxx12_Lock_policyE2EEED2Ev
FN:152,_ZNSaISt23_Sp_counted_ptr_inplaceISaIvESaIS0_ELN9__gnu_cxx12_Lock_policyE2EEED2Ev
FNDA:0,_ZNSaISt23_Sp_counted_ptr_inplaceISaIvESaIS0_ELN9__gnu_cxx12_Lock_policyE2EEED2Ev
FN:152,_ZNSaISt23_Sp_counted_ptr_inplaceISaIN8nav_msgs3msg9Odometry_ISaIvEEEESaIS5_ELN9__gnu_cxx12_Lock_policyE2EEED2Ev
FNDA:2,_ZNSaISt23_Sp_counted_ptr_inplaceISaIN8nav_msgs3msg9Odometry_ISaIvEEEESaIS5_ELN9__gnu_cxx12_Lock_policyE2EEED2Ev
FN:152,_ZNSaISt23_Sp_counted_ptr_inplaceIN6rclcpp5ClockESaIS1_ELN9__gnu_cxx12_Lock_policyE2EEED2Ev
FNDA:7,_ZNSaISt23_Sp_counted_ptr_inplaceIN6rclcpp5ClockESaIS1_ELN9__gnu_cxx12_Lock_policyE2EEED2Ev
FN:152,_ZNSaIN6rclcpp15QOSEventHandlerIZNS_9PublisherIN8nav_msgs3msg9Odometry_ISaIvEEES5_EC4EPNS_15node_interfaces17NodeBaseInterfaceERKNSt7__cxx1112basic_stringIcSt11char_traitsIcESaIcEEERKNS_3QoSERKNS_29PublisherOptionsWithAllocatorIS5_EEEUlR35rmw_qos_incompatible_event_status_tE_St10shared_ptrI15rcl_publisher_tEEEED2Ev
FNDA:4,_ZNSaIN6rclcpp15QOSEventHandlerIZNS_9PublisherIN8nav_msgs3msg9Odometry_ISaIvEEES5_EC4EPNS_15node_interfaces17NodeBaseInterfaceERKNSt7__cxx1112basic_stringIcSt11char_traitsIcESaIcEEERKNS_3QoSERKNS_29PublisherOptionsWithAllocatorIS5_EEEUlR35rmw_qos_incompatible_event_status_tE_St10shared_ptrI15rcl_publisher_tEEEED2Ev
FN:152,_ZNSaIN6rclcpp15QOSEventHandlerISt8functionIFvR35rmw_qos_incompatible_event_status_tEESt10shared_ptrI15rcl_publisher_tEEEED2Ev
FNDA:0,_ZNSaIN6rclcpp15QOSEventHandlerISt8functionIFvR35rmw_qos_incompatible_event_status_tEESt10shared_ptrI15rcl_publisher_tEEEED2Ev
FN:152,_ZNSaISt23_Sp_counted_ptr_inplaceIN8nav_msgs3msg9Odometry_ISaIvEEESaIS4_ELN9__gnu_cxx12_Lock_policyE2EEED2Ev
FNDA:0,_ZNSaISt23_Sp_counted_ptr_inplaceIN8nav_msgs3msg9Odometry_ISaIvEEESaIS4_ELN9__gnu_cxx12_Lock_policyE2EEED2Ev
FN:152,_ZNSaIN6rclcpp15QOSEventHandlerISt8functionIFvR36rmw_offered_deadline_missed_status_tEESt10shared_ptrI15rcl_publisher_tEEEED2Ev
FNDA:0,_ZNSaIN6rclcpp15QOSEventHandlerISt8functionIFvR36rmw_offered_deadline_missed_status_tEESt10shared_ptrI15rcl_publisher_tEEEED2Ev
FN:152,_ZNSaISaIvEED2Ev
FNDA:0,_ZNSaISaIvEED2Ev
FN:152,_ZNSaISaIN8nav_msgs3msg9Odometry_ISaIvEEEEED2Ev
FNDA:4,_ZNSaISaIN8nav_msgs3msg9Odometry_ISaIvEEEEED2Ev
FN:152,_ZNSaIN6rclcpp5ClockEED2Ev
FNDA:9,_ZNSaIN6rclcpp5ClockEED2Ev
FN:152,_ZNSaISt19_Sp_counted_deleterIPN6rclcpp12experimental19IntraProcessManagerEZNS0_7Context15get_sub_contextIS2_JEEESt10shared_ptrIT_EDpOT0_EUlS3_E_SaIvELN9__gnu_cxx12_Lock_policyE2EEED2Ev
FNDA:0,_ZNSaISt19_Sp_counted_deleterIPN6rclcpp12experimental19IntraProcessManagerEZNS0_7Context15get_sub_contextIS2_JEEESt10shared_ptrIT_EDpOT0_EUlS3_E_SaIvELN9__gnu_cxx12_Lock_policyE2EEED2Ev
FN:152,_ZNSaISt23_Sp_counted_ptr_inplaceIN6rclcpp9WallTimerISt5_BindIFM14TaskNavigationFvvEP36TaskNavigation_test_search_bins_TestEELPv0EEESaISB_ELN9__gnu_cxx12_Lock_policyE2EEED2Ev
FNDA:2,_ZNSaISt23_Sp_counted_ptr_inplaceIN6rclcpp9WallTimerISt5_BindIFM14TaskNavigationFvvEP36TaskNavigation_test_search_bins_TestEELPv0EEESaISB_ELN9__gnu_cxx12_Lock_policyE2EEED2Ev
FN:152,_ZNSaISt23_Sp_counted_ptr_inplaceIN6rclcpp9PublisherIN8nav_msgs3msg9Odometry_ISaIvEEES5_EESaIS7_ELN9__gnu_cxx12_Lock_policyE2EEED2Ev
FNDA:2,_ZNSaISt23_Sp_counted_ptr_inplaceIN6rclcpp9PublisherIN8nav_msgs3msg9Odometry_ISaIvEEES5_EESaIS7_ELN9__gnu_cxx12_Lock_policyE2EEED2Ev
FN:152,_ZNSaIN8nav_msgs3msg9Odometry_ISaIvEEEED2Ev
FNDA:2,_ZNSaIN8nav_msgs3msg9Odometry_ISaIvEEEED2Ev
DA:137,1
DA:137,0
DA:137,0
DA:137,0
DA:137,0
DA:137,1
DA:137,1
DA:137,0
DA:137,1
DA:137,1
DA:137,0
DA:140,3
DA:141,3
DA:140,0
DA:141,0
DA:140,0
DA:141,0
DA:140,0
DA:141,0
DA:140,0
DA:141,0
DA:140,3
DA:141,3
DA:140,3
DA:141,3
DA:140,3
DA:141,3
DA:140,3
DA:141,3
DA:140,0
DA:141,0
DA:140,0
DA:141,0
DA:140,0
DA:141,0
DA:150,0
DA:150,1
DA:150,0
DA:150,0
DA:150,0
DA:150,0
DA:150,2
DA:150,7
DA:150,0
DA:150,2
DA:150,0
DA:150,2
DA:150,2
DA:150,0
DA:150,0
DA:152,2
DA:152,0
DA:152,0
DA:152,0
DA:152,0
DA:152,0
DA:152,0
DA:152,0
DA:152,0
DA:152,4
DA:152,4
DA:152,0
DA:152,0
DA:152,0
DA:152,2
DA:152,2
DA:152,1
DA:152,0
DA:152,9
DA:152,4
DA:152,0
DA:152,0
DA:152,0
DA:152,0
DA:152,4
DA:152,7
DA:152,2
DA:152,0
DA:152,0
DA:152,0
DA:152,0
end_of_record
SF:/usr/include/c++/9/ext/alloc_traits.h
FN:97,_ZN9__gnu_cxx14__alloc_traitsISaImEmE17_S_select_on_copyERKS1_
FNDA:0,_ZN9__gnu_cxx14__alloc_traitsISaImEmE17_S_select_on_copyERKS1_
FN:97,_ZN9__gnu_cxx14__alloc_traitsISaIcEcE17_S_select_on_copyERKS1_
FNDA:0,_ZN9__gnu_cxx14__alloc_traitsISaIcEcE17_S_select_on_copyERKS1_
DA:97,0
DA:98,0
DA:97,0
DA:98,0
end_of_record
SF:/opt/ros/foxy/include/nav_msgs/msg/detail/odometry__struct.hpp
FN:43,_ZN8nav_msgs3msg9Odometry_ISaIvEEC2EN18rosidl_runtime_cpp21MessageInitializationE
FNDA:0,_ZN8nav_msgs3msg9Odometry_ISaIvEEC2EN18rosidl_runtime_cpp21MessageInitializationE
DA:43,0
DA:46,0
DA:48,0
DA:51,0
DA:53,0
end_of_record
SF:/opt/ros/foxy/include/rclcpp/create_publisher.hpp
FN:43,_ZN6rclcpp16create_publisherIN8nav_msgs3msg9Odometry_ISaIvEEES4_NS_9PublisherIS5_S4_EENS_4NodeEEESt10shared_ptrIT1_ERT2_RKNSt7__cxx1112basic_stringIcSt11char_traitsIcESaIcEEERKNS_3QoSERKNS_29PublisherOptionsWithAllocatorIT0_EE
FNDA:1,_ZN6rclcpp16create_publisherIN8nav_msgs3msg9Odometry_ISaIvEEES4_NS_9PublisherIS5_S4_EENS_4NodeEEESt10shared_ptrIT1_ERT2_RKNSt7__cxx1112basic_stringIcSt11char_traitsIcESaIcEEERKNS_3QoSERKNS_29PublisherOptionsWithAllocatorIT0_EE
DA:43,1
DA:54,2
DA:57,2
DA:64,1
DA:66,2
end_of_record
SF:/opt/ros/foxy/include/rclcpp/timer.hpp
FN:171,_ZN6rclcpp12GenericTimerISt5_BindIFM14TaskNavigationFvvEP36TaskNavigation_test_search_bins_TestEELPv0EEC2ESt10shared_ptrINS_5ClockEENSt6chrono8durationIlSt5ratioILl1ELl1000000000EEEEOS8_SB_INS_7ContextEE
FNDA:1,_ZN6rclcpp12GenericTimerISt5_BindIFM14TaskNavigationFvvEP36TaskNavigation_test_search_bins_TestEELPv0EEC2ESt10shared_ptrINS_5ClockEENSt6chrono8durationIlSt5ratioILl1ELl1000000000EEEEOS8_SB_INS_7ContextEE
FN:188,_ZN6rclcpp12GenericTimerISt5_BindIFM14TaskNavigationFvvEP36TaskNavigation_test_search_bins_TestEELPv0EED0Ev
FNDA:0,_ZN6rclcpp12GenericTimerISt5_BindIFM14TaskNavigationFvvEP36TaskNavigation_test_search_bins_TestEELPv0EED0Ev
FN:188,_ZN6rclcpp12GenericTimerISt5_BindIFM14TaskNavigationFvvEP36TaskNavigation_test_search_bins_TestEELPv0EED2Ev
FNDA:1,_ZN6rclcpp12GenericTimerISt5_BindIFM14TaskNavigationFvvEP36TaskNavigation_test_search_bins_TestEELPv0EED2Ev
FN:199,_ZN6rclcpp12GenericTimerISt5_BindIFM14TaskNavigationFvvEP36TaskNavigation_test_search_bins_TestEELPv0EE16execute_callbackEv
FNDA:0,_ZN6rclcpp12GenericTimerISt5_BindIFM14TaskNavigationFvvEP36TaskNavigation_test_search_bins_TestEELPv0EE16execute_callbackEv
FN:221,_ZN6rclcpp12GenericTimerISt5_BindIFM14TaskNavigationFvvEP36TaskNavigation_test_search_bins_TestEELPv0EE25execute_callback_delegateIS8_LS9_0EEEvv
FNDA:0,_ZN6rclcpp12GenericTimerISt5_BindIFM14TaskNavigationFvvEP36TaskNavigation_test_search_bins_TestEELPv0EE25execute_callback_delegateIS8_LS9_0EEEvv
FN:241,_ZN6rclcpp12GenericTimerISt5_BindIFM14TaskNavigationFvvEP36TaskNavigation_test_search_bins_TestEELPv0EE9is_steadyEv
FNDA:0,_ZN6rclcpp12GenericTimerISt5_BindIFM14TaskNavigationFvvEP36TaskNavigation_test_search_bins_TestEELPv0EE9is_steadyEv
FN:262,_ZN6rclcpp9WallTimerISt5_BindIFM14TaskNavigationFvvEP36TaskNavigation_test_search_bins_TestEELPv0EE11make_sharedIJRKNSt6chrono8durationIlSt5ratioILl1ELl1000000000EEEES8_St10shared_ptrINS_7ContextEEEEESJ_ISA_EDpOT_
FNDA:1,_ZN6rclcpp9WallTimerISt5_BindIFM14TaskNavigationFvvEP36TaskNavigation_test_search_bins_TestEELPv0EE11make_sharedIJRKNSt6chrono8durationIlSt5ratioILl1ELl1000000000EEEES8_St10shared_ptrINS_7ContextEEEEESJ_ISA_EDpOT_
FN:270,_ZN6rclcpp9WallTimerISt5_BindIFM14TaskNavigationFvvEP36TaskNavigation_test_search_bins_TestEELPv0EEC2ENSt6chrono8durationIlSt5ratioILl1ELl1000000000EEEEOS8_St10shared_ptrINS_7ContextEE
FNDA:1,_ZN6rclcpp9WallTimerISt5_BindIFM14TaskNavigationFvvEP36TaskNavigation_test_search_bins_TestEELPv0EEC2ENSt6chrono8durationIlSt5ratioILl1ELl1000000000EEEEOS8_St10shared_ptrINS_7ContextEE
DA:171,1
DA:175,1
DA:177,1
DA:181,1
DA:185,1
DA:188,0
DA:192,0
DA:188,1
DA:191,1
DA:192,1
DA:199,0
DA:201,0
DA:202,0
DA:203,0
DA:205,0
DA:206,0
DA:208,0
DA:209,0
DA:210,0
DA:221,0
DA:223,0
DA:224,0
DA:241,0
DA:243,0
DA:262,1
DA:270,1
DA:275,1
DA:276,1
end_of_record
SF:/opt/ros/foxy/include/rclcpp/experimental/intra_process_manager.hpp
FN:181,_ZN6rclcpp12experimental19IntraProcessManager24do_intra_process_publishIN8nav_msgs3msg9Odometry_ISaIvEEES6_St14default_deleteIS7_EEEvmSt10unique_ptrIT_T1_ESt10shared_ptrINSt16allocator_traitsIT0_E13rebind_traitsISB_E14allocator_typeEE
FNDA:0,_ZN6rclcpp12experimental19IntraProcessManager24do_intra_process_publishIN8nav_msgs3msg9Odometry_ISaIvEEES6_St14default_deleteIS7_EEEvmSt10unique_ptrIT_T1_ESt10shared_ptrINSt16allocator_traitsIT0_E13rebind_traitsISB_E14allocator_typeEE
FN:243,_ZN6rclcpp12experimental19IntraProcessManager42do_intra_process_publish_and_return_sharedIN8nav_msgs3msg9Odometry_ISaIvEEES6_St14default_deleteIS7_EEESt10shared_ptrIKT_EmSt10unique_ptrISB_T1_ESA_INSt16allocator_traitsIT0_E13rebind_traitsISB_E14allocator_typeEE
FNDA:0,_ZN6rclcpp12experimental19IntraProcessManager42do_intra_process_publish_and_return_sharedIN8nav_msgs3msg9Odometry_ISaIvEEES6_St14default_deleteIS7_EEESt10shared_ptrIKT_EmSt10unique_ptrISB_T1_ESA_INSt16allocator_traitsIT0_E13rebind_traitsISB_E14allocator_typeEE
FN:359,_ZN6rclcpp12experimental19IntraProcessManager25add_shared_msg_to_buffersIN8nav_msgs3msg9Odometry_ISaIvEEES6_St14default_deleteIS7_EEEvSt10shared_ptrIKT_ESt6vectorImSaImEE
FNDA:0,_ZN6rclcpp12experimental19IntraProcessManager25add_shared_msg_to_buffersIN8nav_msgs3msg9Odometry_ISaIvEEES6_St14default_deleteIS7_EEEvSt10shared_ptrIKT_ESt6vectorImSaImEE
FN:389,_ZN6rclcpp12experimental19IntraProcessManager24add_owned_msg_to_buffersIN8nav_msgs3msg9Odometry_ISaIvEEES6_St14default_deleteIS7_EEEvSt10unique_ptrIT_T1_ESt6vectorImSaImEESt10shared_ptrINSt16allocator_traitsIT0_E13rebind_traitsISB_E14allocator_typeEE
FNDA:0,_ZN6rclcpp12experimental19IntraProcessManager24add_owned_msg_to_buffersIN8nav_msgs3msg9Odometry_ISaIvEEES6_St14default_deleteIS7_EEEvSt10unique_ptrIT_T1_ESt6vectorImSaImEESt10shared_ptrINSt16allocator_traitsIT0_E13rebind_traitsISB_E14allocator_typeEE
DA:181,0
DA:189,0
DA:191,0
DA:192,0
DA:194,0
DA:197,0
DA:199,0
DA:201,0
DA:203,0
DA:205,0
DA:206,0
DA:207,0
DA:208,0
DA:214,0
DA:215,0
DA:216,0
DA:220,0
DA:221,0
DA:224,0
DA:225,0
DA:229,0
DA:231,0
DA:232,0
DA:233,0
DA:234,0
DA:243,0
DA:251,0
DA:253,0
DA:254,0
DA:256,0
DA:259,0
DA:261,0
DA:263,0
DA:265,0
DA:266,0
DA:267,0
DA:268,0
DA:270,0
DA:274,0
DA:276,0
DA:277,0
DA:279,0
DA:281,0
DA:282,0
DA:283,0
DA:284,0
DA:288,0
DA:359,0
DA:363,0
DA:364,0
DA:365,0
DA:366,0
DA:368,0
DA:370,0
DA:373,0
DA:378,0
DA:380,0
DA:382,0
DA:389,0
DA:397,0
DA:398,0
DA:399,0
DA:400,0
DA:402,0
DA:404,0
DA:407,0
DA:412,0
DA:415,0
DA:417,0
DA:420,0
DA:421,0
DA:422,0
DA:423,0
DA:424,0
DA:426,0
DA:429,0
end_of_record
SF:/opt/ros/foxy/include/rclcpp/node_interfaces/get_node_topics_interface.hpp
FN:53,_ZN6rclcpp15node_interfaces6detail38get_node_topics_interface_from_pointerIPNS_4NodeELi0EEESt10shared_ptrINS0_19NodeTopicsInterfaceEET_
FNDA:0,_ZN6rclcpp15node_interfaces6detail38get_node_topics_interface_from_pointerIPNS_4NodeELi0EEESt10shared_ptrINS0_19NodeTopicsInterfaceEET_
FN:87,_ZN6rclcpp15node_interfaces25get_node_topics_interfaceIRNS_4NodeELi0EEESt10shared_ptrINS0_19NodeTopicsInterfaceEEOT_
FNDA:0,_ZN6rclcpp15node_interfaces25get_node_topics_interfaceIRNS_4NodeELi0EEESt10shared_ptrINS0_19NodeTopicsInterfaceEEOT_
DA:53,0
DA:55,0
DA:56,0
DA:58,0
DA:87,0
DA:90,0
end_of_record
SF:/usr/include/c++/9/bits/stl_iterator_base_funcs.h
FN:98,_ZSt10__distanceIN9__gnu_cxx17__normal_iteratorIPKmSt6vectorImSaImEEEEENSt15iterator_traitsIT_E15difference_typeES9_S9_St26random_access_iterator_tag
FNDA:0,_ZSt10__distanceIN9__gnu_cxx17__normal_iteratorIPKmSt6vectorImSaImEEEEENSt15iterator_traitsIT_E15difference_typeES9_S9_St26random_access_iterator_tag
FN:98,_ZSt10__distanceIPcENSt15iterator_traitsIT_E15difference_typeES2_S2_St26random_access_iterator_tag
FNDA:0,_ZSt10__distanceIPcENSt15iterator_traitsIT_E15difference_typeES2_S2_St26random_access_iterator_tag
FN:98,_ZSt10__distanceIPKcENSt15iterator_traitsIT_E15difference_typeES3_S3_St26random_access_iterator_tag
FNDA:0,_ZSt10__distanceIPKcENSt15iterator_traitsIT_E15difference_typeES3_S3_St26random_access_iterator_tag
FN:138,_ZSt8distanceIN9__gnu_cxx17__normal_iteratorIPKmSt6vectorImSaImEEEEENSt15iterator_traitsIT_E15difference_typeES9_S9_
FNDA:0,_ZSt8distanceIN9__gnu_cxx17__normal_iteratorIPKmSt6vectorImSaImEEEEENSt15iterator_traitsIT_E15difference_typeES9_S9_
FN:138,_ZSt8distanceIPcENSt15iterator_traitsIT_E15difference_typeES2_S2_
FNDA:0,_ZSt8distanceIPcENSt15iterator_traitsIT_E15difference_typeES2_S2_
FN:138,_ZSt8distanceIPKcENSt15iterator_traitsIT_E15difference_typeES3_S3_
FNDA:0,_ZSt8distanceIPKcENSt15iterator_traitsIT_E15difference_typeES3_S3_
FN:174,_ZSt9__advanceIN9__gnu_cxx17__normal_iteratorIPKmSt6vectorImSaImEEEElEvRT_T0_St26random_access_iterator_tag
FNDA:0,_ZSt9__advanceIN9__gnu_cxx17__normal_iteratorIPKmSt6vectorImSaImEEEElEvRT_T0_St26random_access_iterator_tag
FN:174,_ZSt9__advanceIN9__gnu_cxx17__normal_iteratorIPmSt6vectorImSaImEEEElEvRT_T0_St26random_access_iterator_tag
FNDA:0,_ZSt9__advanceIN9__gnu_cxx17__normal_iteratorIPmSt6vectorImSaImEEEElEvRT_T0_St26random_access_iterator_tag
FN:202,_ZSt7advanceIN9__gnu_cxx17__normal_iteratorIPKmSt6vectorImSaImEEEEmEvRT_T0_
FNDA:0,_ZSt7advanceIN9__gnu_cxx17__normal_iteratorIPKmSt6vectorImSaImEEEEmEvRT_T0_
FN:202,_ZSt7advanceIN9__gnu_cxx17__normal_iteratorIPmSt6vectorImSaImEEEElEvRT_T0_
FNDA:0,_ZSt7advanceIN9__gnu_cxx17__normal_iteratorIPmSt6vectorImSaImEEEElEvRT_T0_
FN:213,_ZSt4nextIN9__gnu_cxx17__normal_iteratorIPmSt6vectorImSaImEEEEET_S7_NSt15iterator_traitsIS7_E15difference_typeE
FNDA:0,_ZSt4nextIN9__gnu_cxx17__normal_iteratorIPmSt6vectorImSaImEEEEET_S7_NSt15iterator_traitsIS7_E15difference_typeE
DA:98,0
DA:104,0
DA:98,0
DA:104,0
DA:98,0
DA:104,0
DA:138,0
DA:141,0
DA:142,0
DA:138,0
DA:141,0
DA:142,0
DA:138,0
DA:141,0
DA:142,0
DA:174,0
DA:185,0
DA:186,0
DA:174,0
DA:185,0
DA:186,0
DA:202,0
DA:205,0
DA:206,0
DA:207,0
DA:202,0
DA:205,0
DA:206,0
DA:207,0
DA:213,0
DA:218,0
DA:219,0
end_of_record
SF:/usr/include/c++/9/bits/alloc_traits.h
FN:442,_ZNSt16allocator_traitsISaIN8nav_msgs3msg9Odometry_ISaIvEEEEE8allocateERS5_m
FNDA:5,_ZNSt16allocator_traitsISaIN8nav_msgs3msg9Odometry_ISaIvEEEEE8allocateERS5_m
FN:442,_ZNSt16allocator_traitsISaISt23_Sp_counted_ptr_inplaceIN6rclcpp5ClockESaIS2_ELN9__gnu_cxx12_Lock_policyE2EEEE8allocateERS7_m
FNDA:1,_ZNSt16allocator_traitsISaISt23_Sp_counted_ptr_inplaceIN6rclcpp5ClockESaIS2_ELN9__gnu_cxx12_Lock_policyE2EEEE8allocateERS7_m
FN:442,_ZNSt16allocator_traitsISaISt10shared_ptrIN6rclcpp19QOSEventHandlerBaseEEEE8allocateERS4_m
FNDA:0,_ZNSt16allocator_traitsISaISt10shared_ptrIN6rclcpp19QOSEventHandlerBaseEEEE8allocateERS4_m
FN:442,_ZNSt16allocator_traitsISaISt23_Sp_counted_ptr_inplaceISaIN8nav_msgs3msg9Odometry_ISaIvEEEESaIS6_ELN9__gnu_cxx12_Lock_policyE2EEEE8allocateERSB_m
FNDA:1,_ZNSt16allocator_traitsISaISt23_Sp_counted_ptr_inplaceISaIN8nav_msgs3msg9Odometry_ISaIvEEEESaIS6_ELN9__gnu_cxx12_Lock_policyE2EEEE8allocateERSB_m
FN:442,_ZNSt16allocator_traitsISaIPNSt8__detail15_Hash_node_baseEEE8allocateERS3_m
FNDA:0,_ZNSt16allocator_traitsISaIPNSt8__detail15_Hash_node_baseEEE8allocateERS3_m
FN:442,_ZNSt16allocator_traitsISaISt23_Sp_counted_ptr_inplaceISaIvESaIS1_ELN9__gnu_cxx12_Lock_policyE2EEEE8allocateERS6_m
FNDA:0,_ZNSt16allocator_traitsISaISt23_Sp_counted_ptr_inplaceISaIvESaIS1_ELN9__gnu_cxx12_Lock_policyE2EEEE8allocateERS6_m
FN:442,_ZNSt16allocator_traitsISaISt19_Sp_counted_deleterIPN6rclcpp12experimental19IntraProcessManagerEZNS1_7Context15get_sub_contextIS3_JEEESt10shared_ptrIT_EDpOT0_EUlS4_E_SaIvELN9__gnu_cxx12_Lock_policyE2EEEE8allocateERSI_m
FNDA:0,_ZNSt16allocator_traitsISaISt19_Sp_counted_deleterIPN6rclcpp12experimental19IntraProcessManagerEZNS1_7Context15get_sub_contextIS3_JEEESt10shared_ptrIT_EDpOT0_EUlS4_E_SaIvELN9__gnu_cxx12_Lock_policyE2EEEE8allocateERSI_m
FN:442,_ZNSt16allocator_traitsISaISt23_Sp_counted_ptr_inplaceIN6rclcpp15QOSEventHandlerISt8functionIFvR36rmw_offered_deadline_missed_status_tEESt10shared_ptrI15rcl_publisher_tEEESaISB_ELN9__gnu_cxx12_Lock_policyE2EEEE8allocateERSG_m
FNDA:0,_ZNSt16allocator_traitsISaISt23_Sp_counted_ptr_inplaceIN6rclcpp15QOSEventHandlerISt8functionIFvR36rmw_offered_deadline_missed_status_tEESt10shared_ptrI15rcl_publisher_tEEESaISB_ELN9__gnu_cxx12_Lock_policyE2EEEE8allocateERSG_m
FN:442,_ZNSt16allocator_traitsISaISt23_Sp_counted_ptr_inplaceIN6rclcpp9WallTimerISt5_BindIFM14TaskNavigationFvvEP36TaskNavigation_test_search_bins_TestEELPv0EEESaISC_ELN9__gnu_cxx12_Lock_policyE2EEEE8allocateERSH_m
FNDA:1,_ZNSt16allocator_traitsISaISt23_Sp_counted_ptr_inplaceIN6rclcpp9WallTimerISt5_BindIFM14TaskNavigationFvvEP36TaskNavigation_test_search_bins_TestEELPv0EEESaISC_ELN9__gnu_cxx12_Lock_policyE2EEEE8allocateERSH_m
FN:442,_ZNSt16allocator_traitsISaISt23_Sp_counted_ptr_inplaceIN6rclcpp15QOSEventHandlerISt8functionIFvR28rmw_liveliness_lost_status_tEESt10shared_ptrI15rcl_publisher_tEEESaISB_ELN9__gnu_cxx12_Lock_policyE2EEEE8allocateERSG_m
FNDA:0,_ZNSt16allocator_traitsISaISt23_Sp_counted_ptr_inplaceIN6rclcpp15QOSEventHandlerISt8functionIFvR28rmw_liveliness_lost_status_tEESt10shared_ptrI15rcl_publisher_tEEESaISB_ELN9__gnu_cxx12_Lock_policyE2EEEE8allocateERSG_m
FN:442,_ZNSt16allocator_traitsISaISt23_Sp_counted_ptr_inplaceIN6rclcpp9PublisherIN8nav_msgs3msg9Odometry_ISaIvEEES6_EESaIS8_ELN9__gnu_cxx12_Lock_policyE2EEEE8allocateERSD_m
FNDA:1,_ZNSt16allocator_traitsISaISt23_Sp_counted_ptr_inplaceIN6rclcpp9PublisherIN8nav_msgs3msg9Odometry_ISaIvEEES6_EESaIS8_ELN9__gnu_cxx12_Lock_policyE2EEEE8allocateERSD_m
FN:442,_ZNSt16allocator_traitsISaISt23_Sp_counted_ptr_inplaceIN6rclcpp15QOSEventHandlerISt8functionIFvR35rmw_qos_incompatible_event_status_tEESt10shared_ptrI15rcl_publisher_tEEESaISB_ELN9__gnu_cxx12_Lock_policyE2EEEE8allocateERSG_m
FNDA:0,_ZNSt16allocator_traitsISaISt23_Sp_counted_ptr_inplaceIN6rclcpp15QOSEventHandlerISt8functionIFvR35rmw_qos_incompatible_event_status_tEESt10shared_ptrI15rcl_publisher_tEEESaISB_ELN9__gnu_cxx12_Lock_policyE2EEEE8allocateERSG_m
FN:442,_ZNSt16allocator_traitsISaISt23_Sp_counted_ptr_inplaceIN8nav_msgs3msg9Odometry_ISaIvEEESaIS5_ELN9__gnu_cxx12_Lock_policyE2EEEE8allocateERSA_m
FNDA:0,_ZNSt16allocator_traitsISaISt23_Sp_counted_ptr_inplaceIN8nav_msgs3msg9Odometry_ISaIvEEESaIS5_ELN9__gnu_cxx12_Lock_policyE2EEEE8allocateERSA_m
FN:442,_ZNSt16allocator_traitsISaISt23_Sp_counted_ptr_inplaceIN6rclcpp15QOSEventHandlerIZNS1_9PublisherIN8nav_msgs3msg9Odometry_ISaIvEEES7_EC4EPNS1_15node_interfaces17NodeBaseInterfaceERKNSt7__cxx1112basic_stringIcSt11char_traitsIcESaIcEEERKNS1_3QoSERKNS1_29PublisherOptionsWithAllocatorIS7_EEEUlR35rmw_qos_incompatible_event_status_tE_St10shared_ptrI15rcl_publisher_tEEESaISY_ELN9__gnu_cxx12_Lock_policyE2EEEE8allocateERS13_m
FNDA:1,_ZNSt16allocator_traitsISaISt23_Sp_counted_ptr_inplaceIN6rclcpp15QOSEventHandlerIZNS1_9PublisherIN8nav_msgs3msg9Odometry_ISaIvEEES7_EC4EPNS1_15node_interfaces17NodeBaseInterfaceERKNSt7__cxx1112basic_stringIcSt11char_traitsIcESaIcEEERKNS1_3QoSERKNS1_29PublisherOptionsWithAllocatorIS7_EEEUlR35rmw_qos_incompatible_event_status_tE_St10shared_ptrI15rcl_publisher_tEEESaISY_ELN9__gnu_cxx12_Lock_policyE2EEEE8allocateERS13_m
FN:442,_ZNSt16allocator_traitsISaINSt8__detail10_Hash_nodeISt4pairIKSt10type_indexSt10shared_ptrIvEELb0EEEEE8allocateERS9_m
FNDA:0,_ZNSt16allocator_traitsISaINSt8__detail10_Hash_nodeISt4pairIKSt10type_indexSt10shared_ptrIvEELb0EEEEE8allocateERS9_m
FN:442,_ZNSt16allocator_traitsISaISt23_Sp_counted_ptr_inplaceIN6rclcpp4NodeESaIS2_ELN9__gnu_cxx12_Lock_policyE2EEEE8allocateERS7_m
FNDA:0,_ZNSt16allocator_traitsISaISt23_Sp_counted_ptr_inplaceIN6rclcpp4NodeESaIS2_ELN9__gnu_cxx12_Lock_policyE2EEEE8allocateERS7_m
FN:442,_ZNSt16allocator_traitsISaISt19_Sp_counted_deleterIPN8nav_msgs3msg9Odometry_ISaIvEEESt14default_deleteIS5_ES4_LN9__gnu_cxx12_Lock_policyE2EEEE8allocateERSC_m
FNDA:0,_ZNSt16allocator_traitsISaISt19_Sp_counted_deleterIPN8nav_msgs3msg9Odometry_ISaIvEEESt14default_deleteIS5_ES4_LN9__gnu_cxx12_Lock_policyE2EEEE8allocateERSC_m
FN:442,_ZNSt16allocator_traitsISaImEE8allocateERS0_m
FNDA:0,_ZNSt16allocator_traitsISaImEE8allocateERS0_m
FN:468,_ZNSt16allocator_traitsISaIN8nav_msgs3msg9Odometry_ISaIvEEEEE10deallocateERS5_PS4_m
FNDA:5,_ZNSt16allocator_traitsISaIN8nav_msgs3msg9Odometry_ISaIvEEEEE10deallocateERS5_PS4_m
FN:468,_ZNSt16allocator_traitsISaINSt8__detail10_Hash_nodeISt4pairIKSt10type_indexSt10shared_ptrIvEELb0EEEEE10deallocateERS9_PS8_m
FNDA:0,_ZNSt16allocator_traitsISaINSt8__detail10_Hash_nodeISt4pairIKSt10type_indexSt10shared_ptrIvEELb0EEEEE10deallocateERS9_PS8_m
FN:468,_ZNSt16allocator_traitsISaISt10shared_ptrIN6rclcpp19QOSEventHandlerBaseEEEE10deallocateERS4_PS3_m
FNDA:0,_ZNSt16allocator_traitsISaISt10shared_ptrIN6rclcpp19QOSEventHandlerBaseEEEE10deallocateERS4_PS3_m
FN:468,_ZNSt16allocator_traitsISaINSt7__cxx1112basic_stringIcSt11char_traitsIcESaIcEEEEE10deallocateERS6_PS5_m
FNDA:0,_ZNSt16allocator_traitsISaINSt7__cxx1112basic_stringIcSt11char_traitsIcESaIcEEEEE10deallocateERS6_PS5_m
FN:468,_ZNSt16allocator_traitsISaImEE10deallocateERS0_Pmm
FNDA:0,_ZNSt16allocator_traitsISaImEE10deallocateERS0_Pmm
FN:468,_ZNSt16allocator_traitsISaISt19_Sp_counted_deleterIPN8nav_msgs3msg9Odometry_ISaIvEEESt14default_deleteIS5_ES4_LN9__gnu_cxx12_Lock_policyE2EEEE10deallocateERSC_PSB_m
FNDA:0,_ZNSt16allocator_traitsISaISt19_Sp_counted_deleterIPN8nav_msgs3msg9Odometry_ISaIvEEESt14default_deleteIS5_ES4_LN9__gnu_cxx12_Lock_policyE2EEEE10deallocateERSC_PSB_m
FN:468,_ZNSt16allocator_traitsISaIhEE10deallocateERS0_Phm
FNDA:0,_ZNSt16allocator_traitsISaIhEE10deallocateERS0_Phm
FN:468,_ZNSt16allocator_traitsISaIlEE10deallocateERS0_Plm
FNDA:0,_ZNSt16allocator_traitsISaIlEE10deallocateERS0_Plm
FN:468,_ZNSt16allocator_traitsISaISt19_Sp_counted_deleterIPN6rclcpp12experimental19IntraProcessManagerEZNS1_7Context15get_sub_contextIS3_JEEESt10shared_ptrIT_EDpOT0_EUlS4_E_SaIvELN9__gnu_cxx12_Lock_policyE2EEEE10deallocateERSI_PSH_m
FNDA:0,_ZNSt16allocator_traitsISaISt19_Sp_counted_deleterIPN6rclcpp12experimental19IntraProcessManagerEZNS1_7Context15get_sub_contextIS3_JEEESt10shared_ptrIT_EDpOT0_EUlS4_E_SaIvELN9__gnu_cxx12_Lock_policyE2EEEE10deallocateERSI_PSH_m
FN:468,_ZNSt16allocator_traitsISaIdEE10deallocateERS0_Pdm
FNDA:0,_ZNSt16allocator_traitsISaIdEE10deallocateERS0_Pdm
FN:468,_ZNSt16allocator_traitsISaIN6rclcpp9ParameterEEE10deallocateERS2_PS1_m
FNDA:0,_ZNSt16allocator_traitsISaIN6rclcpp9ParameterEEE10deallocateERS2_PS1_m
FN:468,_ZNSt16allocator_traitsISaISt23_Sp_counted_ptr_inplaceIN6rclcpp9WallTimerISt5_BindIFM14TaskNavigationFvvEP36TaskNavigation_test_search_bins_TestEELPv0EEESaISC_ELN9__gnu_cxx12_Lock_policyE2EEEE10deallocateERSH_PSG_m
FNDA:1,_ZNSt16allocator_traitsISaISt23_Sp_counted_ptr_inplaceIN6rclcpp9WallTimerISt5_BindIFM14TaskNavigationFvvEP36TaskNavigation_test_search_bins_TestEELPv0EEESaISC_ELN9__gnu_cxx12_Lock_policyE2EEEE10deallocateERSH_PSG_m
FN:468,_ZNSt16allocator_traitsISaIPNSt8__detail15_Hash_node_baseEEE10deallocateERS3_PS2_m
FNDA:0,_ZNSt16allocator_traitsISaIPNSt8__detail15_Hash_node_baseEEE10deallocateERS3_PS2_m
FN:468,_ZNSt16allocator_traitsISaISt23_Sp_counted_ptr_inplaceIN6rclcpp9PublisherIN8nav_msgs3msg9Odometry_ISaIvEEES6_EESaIS8_ELN9__gnu_cxx12_Lock_policyE2EEEE10deallocateERSD_PSC_m
FNDA:1,_ZNSt16allocator_traitsISaISt23_Sp_counted_ptr_inplaceIN6rclcpp9PublisherIN8nav_msgs3msg9Odometry_ISaIvEEES6_EESaIS8_ELN9__gnu_cxx12_Lock_policyE2EEEE10deallocateERSD_PSC_m
FN:468,_ZNSt16allocator_traitsISaISt23_Sp_counted_ptr_inplaceIN8nav_msgs3msg9Odometry_ISaIvEEESaIS5_ELN9__gnu_cxx12_Lock_policyE2EEEE10deallocateERSA_PS9_m
FNDA:0,_ZNSt16allocator_traitsISaISt23_Sp_counted_ptr_inplaceIN8nav_msgs3msg9Odometry_ISaIvEEESaIS5_ELN9__gnu_cxx12_Lock_policyE2EEEE10deallocateERSA_PS9_m
FN:468,_ZNSt16allocator_traitsISaISt23_Sp_counted_ptr_inplaceIN6rclcpp4NodeESaIS2_ELN9__gnu_cxx12_Lock_policyE2EEEE10deallocateERS7_PS6_m
FNDA:0,_ZNSt16allocator_traitsISaISt23_Sp_counted_ptr_inplaceIN6rclcpp4NodeESaIS2_ELN9__gnu_cxx12_Lock_policyE2EEEE10deallocateERS7_PS6_m
FN:468,_ZNSt16allocator_traitsISaISt23_Sp_counted_ptr_inplaceIN6rclcpp5ClockESaIS2_ELN9__gnu_cxx12_Lock_policyE2EEEE10deallocateERS7_PS6_m
FNDA:6,_ZNSt16allocator_traitsISaISt23_Sp_counted_ptr_inplaceIN6rclcpp5ClockESaIS2_ELN9__gnu_cxx12_Lock_policyE2EEEE10deallocateERS7_PS6_m
FN:468,_ZNSt16allocator_traitsISaISt23_Sp_counted_ptr_inplaceIN6rclcpp15QOSEventHandlerIZNS1_9PublisherIN8nav_msgs3msg9Odometry_ISaIvEEES7_EC4EPNS1_15node_interfaces17NodeBaseInterfaceERKNSt7__cxx1112basic_stringIcSt11char_traitsIcESaIcEEERKNS1_3QoSERKNS1_29PublisherOptionsWithAllocatorIS7_EEEUlR35rmw_qos_incompatible_event_status_tE_St10shared_ptrI15rcl_publisher_tEEESaISY_ELN9__gnu_cxx12_Lock_policyE2EEEE10deallocateERS13_PS12_m
FNDA:1,_ZNSt16allocator_traitsISaISt23_Sp_counted_ptr_inplaceIN6rclcpp15QOSEventHandlerIZNS1_9PublisherIN8nav_msgs3msg9Odometry_ISaIvEEES7_EC4EPNS1_15node_interfaces17NodeBaseInterfaceERKNSt7__cxx1112basic_stringIcSt11char_traitsIcESaIcEEERKNS1_3QoSERKNS1_29PublisherOptionsWithAllocatorIS7_EEEUlR35rmw_qos_incompatible_event_status_tE_St10shared_ptrI15rcl_publisher_tEEESaISY_ELN9__gnu_cxx12_Lock_policyE2EEEE10deallocateERS13_PS12_m
FN:468,_ZNSt16allocator_traitsISaISt23_Sp_counted_ptr_inplaceIN6rclcpp15QOSEventHandlerISt8functionIFvR35rmw_qos_incompatible_event_status_tEESt10shared_ptrI15rcl_publisher_tEEESaISB_ELN9__gnu_cxx12_Lock_policyE2EEEE10deallocateERSG_PSF_m
FNDA:0,_ZNSt16allocator_traitsISaISt23_Sp_counted_ptr_inplaceIN6rclcpp15QOSEventHandlerISt8functionIFvR35rmw_qos_incompatible_event_status_tEESt10shared_ptrI15rcl_publisher_tEEESaISB_ELN9__gnu_cxx12_Lock_policyE2EEEE10deallocateERSG_PSF_m
FN:468,_ZNSt16allocator_traitsISaISt23_Sp_counted_ptr_inplaceIN6rclcpp15QOSEventHandlerISt8functionIFvR28rmw_liveliness_lost_status_tEESt10shared_ptrI15rcl_publisher_tEEESaISB_ELN9__gnu_cxx12_Lock_policyE2EEEE10deallocateERSG_PSF_m
FNDA:0,_ZNSt16allocator_traitsISaISt23_Sp_counted_ptr_inplaceIN6rclcpp15QOSEventHandlerISt8functionIFvR28rmw_liveliness_lost_status_tEESt10shared_ptrI15rcl_publisher_tEEESaISB_ELN9__gnu_cxx12_Lock_policyE2EEEE10deallocateERSG_PSF_m
FN:468,_ZNSt16allocator_traitsISaISt23_Sp_counted_ptr_inplaceIN6rclcpp15QOSEventHandlerISt8functionIFvR36rmw_offered_deadline_missed_status_tEESt10shared_ptrI15rcl_publisher_tEEESaISB_ELN9__gnu_cxx12_Lock_policyE2EEEE10deallocateERSG_PSF_m
FNDA:0,_ZNSt16allocator_traitsISaISt23_Sp_counted_ptr_inplaceIN6rclcpp15QOSEventHandlerISt8functionIFvR36rmw_offered_deadline_missed_status_tEESt10shared_ptrI15rcl_publisher_tEEESaISB_ELN9__gnu_cxx12_Lock_policyE2EEEE10deallocateERSG_PSF_m
FN:468,_ZNSt16allocator_traitsISaISt23_Sp_counted_ptr_inplaceISaIvESaIS1_ELN9__gnu_cxx12_Lock_policyE2EEEE10deallocateERS6_PS5_m
FNDA:0,_ZNSt16allocator_traitsISaISt23_Sp_counted_ptr_inplaceISaIvESaIS1_ELN9__gnu_cxx12_Lock_policyE2EEEE10deallocateERS6_PS5_m
FN:468,_ZNSt16allocator_traitsISaISt23_Sp_counted_ptr_inplaceISaIN8nav_msgs3msg9Odometry_ISaIvEEEESaIS6_ELN9__gnu_cxx12_Lock_policyE2EEEE10deallocateERSB_PSA_m
FNDA:1,_ZNSt16allocator_traitsISaISt23_Sp_counted_ptr_inplaceISaIN8nav_msgs3msg9Odometry_ISaIvEEEESaIS6_ELN9__gnu_cxx12_Lock_policyE2EEEE10deallocateERSB_PSA_m
FN:481,_ZNSt16allocator_traitsISaISt10shared_ptrIN6rclcpp19QOSEventHandlerBaseEEEE9constructIS3_JRS0_INS1_15QOSEventHandlerISt8functionIFvR28rmw_liveliness_lost_status_tEES0_I15rcl_publisher_tEEEEEEEvRS4_PT_DpOT0_
FNDA:0,_ZNSt16allocator_traitsISaISt10shared_ptrIN6rclcpp19QOSEventHandlerBaseEEEE9constructIS3_JRS0_INS1_15QOSEventHandlerISt8functionIFvR28rmw_liveliness_lost_status_tEES0_I15rcl_publisher_tEEEEEEEvRS4_PT_DpOT0_
FN:481,_ZNSt16allocator_traitsISaIN8nav_msgs3msg9Odometry_ISaIvEEEEE9constructIS4_JRKS4_EEEvRS5_PT_DpOT0_
FNDA:0,_ZNSt16allocator_traitsISaIN8nav_msgs3msg9Odometry_ISaIvEEEEE9constructIS4_JRKS4_EEEvRS5_PT_DpOT0_
FN:481,_ZNSt16allocator_traitsISaIN8nav_msgs3msg9Odometry_ISaIvEEEEE9constructIS4_JRS4_EEEvRS5_PT_DpOT0_
FNDA:0,_ZNSt16allocator_traitsISaIN8nav_msgs3msg9Odometry_ISaIvEEEEE9constructIS4_JRS4_EEEvRS5_PT_DpOT0_
FN:481,_ZNSt16allocator_traitsISaISt19_Sp_counted_deleterIPN8nav_msgs3msg9Odometry_ISaIvEEESt14default_deleteIS5_ES4_LN9__gnu_cxx12_Lock_policyE2EEEE9constructISB_JS6_RS8_EEEvRSC_PT_DpOT0_
FNDA:0,_ZNSt16allocator_traitsISaISt19_Sp_counted_deleterIPN8nav_msgs3msg9Odometry_ISaIvEEESt14default_deleteIS5_ES4_LN9__gnu_cxx12_Lock_policyE2EEEE9constructISB_JS6_RS8_EEEvRSC_PT_DpOT0_
FN:481,_ZNSt16allocator_traitsISaISt10shared_ptrIN6rclcpp19QOSEventHandlerBaseEEEE9constructIS3_JS3_EEEvRS4_PT_DpOT0_
FNDA:0,_ZNSt16allocator_traitsISaISt10shared_ptrIN6rclcpp19QOSEventHandlerBaseEEEE9constructIS3_JS3_EEEvRS4_PT_DpOT0_
FN:481,_ZNSt16allocator_traitsISaIN6rclcpp4NodeEEE9constructIS1_JRA16_KcEEEvRS2_PT_DpOT0_
FNDA:1,_ZNSt16allocator_traitsISaIN6rclcpp4NodeEEE9constructIS1_JRA16_KcEEEvRS2_PT_DpOT0_
FN:481,_ZNSt16allocator_traitsISaIN6rclcpp15QOSEventHandlerIZNS0_9PublisherIN8nav_msgs3msg9Odometry_ISaIvEEES6_EC4EPNS0_15node_interfaces17NodeBaseInterfaceERKNSt7__cxx1112basic_stringIcSt11char_traitsIcESaIcEEERKNS0_3QoSERKNS0_29PublisherOptionsWithAllocatorIS6_EEEUlR35rmw_qos_incompatible_event_status_tE_St10shared_ptrI15rcl_publisher_tEEEEE9constructISX_JRKST_RFiP11rcl_event_tPKSV_26rcl_publisher_event_type_tERSW_RKS17_EEEvRSY_PT_DpOT0_
FNDA:1,_ZNSt16allocator_traitsISaIN6rclcpp15QOSEventHandlerIZNS0_9PublisherIN8nav_msgs3msg9Odometry_ISaIvEEES6_EC4EPNS0_15node_interfaces17NodeBaseInterfaceERKNSt7__cxx1112basic_stringIcSt11char_traitsIcESaIcEEERKNS0_3QoSERKNS0_29PublisherOptionsWithAllocatorIS6_EEEUlR35rmw_qos_incompatible_event_status_tE_St10shared_ptrI15rcl_publisher_tEEEEE9constructISX_JRKST_RFiP11rcl_event_tPKSV_26rcl_publisher_event_type_tERSW_RKS17_EEEvRSY_PT_DpOT0_
FN:481,_ZNSt16allocator_traitsISaINSt8__detail10_Hash_nodeISt4pairIKSt10type_indexSt10shared_ptrIvEELb0EEEEE9constructIS7_JRKSt21piecewise_construct_tSt5tupleIJRS4_EESF_IJEEEEEvRS9_PT_DpOT0_
FNDA:0,_ZNSt16allocator_traitsISaINSt8__detail10_Hash_nodeISt4pairIKSt10type_indexSt10shared_ptrIvEELb0EEEEE9constructIS7_JRKSt21piecewise_construct_tSt5tupleIJRS4_EESF_IJEEEEEvRS9_PT_DpOT0_
FN:481,_ZNSt16allocator_traitsISaIN6rclcpp15QOSEventHandlerISt8functionIFvR35rmw_qos_incompatible_event_status_tEESt10shared_ptrI15rcl_publisher_tEEEEE9constructISA_JRKS6_RFiP11rcl_event_tPKS8_26rcl_publisher_event_type_tERS9_RKSK_EEEvRSB_PT_DpOT0_
FNDA:0,_ZNSt16allocator_traitsISaIN6rclcpp15QOSEventHandlerISt8functionIFvR35rmw_qos_incompatible_event_status_tEESt10shared_ptrI15rcl_publisher_tEEEEE9constructISA_JRKS6_RFiP11rcl_event_tPKS8_26rcl_publisher_event_type_tERS9_RKSK_EEEvRSB_PT_DpOT0_
FN:481,_ZNSt16allocator_traitsISaIN6rclcpp5ClockEEE9constructIS1_J16rcl_clock_type_tEEEvRS2_PT_DpOT0_
FNDA:1,_ZNSt16allocator_traitsISaIN6rclcpp5ClockEEE9constructIS1_J16rcl_clock_type_tEEEvRS2_PT_DpOT0_
FN:481,_ZNSt16allocator_traitsISaIN6rclcpp15QOSEventHandlerISt8functionIFvR28rmw_liveliness_lost_status_tEESt10shared_ptrI15rcl_publisher_tEEEEE9constructISA_JRKS6_RFiP11rcl_event_tPKS8_26rcl_publisher_event_type_tERS9_RKSK_EEEvRSB_PT_DpOT0_
FNDA:0,_ZNSt16allocator_traitsISaIN6rclcpp15QOSEventHandlerISt8functionIFvR28rmw_liveliness_lost_status_tEESt10shared_ptrI15rcl_publisher_tEEEEE9constructISA_JRKS6_RFiP11rcl_event_tPKS8_26rcl_publisher_event_type_tERS9_RKSK_EEEvRSB_PT_DpOT0_
FN:481,_ZNSt16allocator_traitsISaIN6rclcpp9PublisherIN8nav_msgs3msg9Odometry_ISaIvEEES5_EEEE9constructIS7_JRPNS0_15node_interfaces17NodeBaseInterfaceERKNSt7__cxx1112basic_stringIcSt11char_traitsIcESaIcEEERKNS0_3QoSERKNS0_29PublisherOptionsWithAllocatorIS5_EEEEEvRS8_PT_DpOT0_
FNDA:1,_ZNSt16allocator_traitsISaIN6rclcpp9PublisherIN8nav_msgs3msg9Odometry_ISaIvEEES5_EEEE9constructIS7_JRPNS0_15node_interfaces17NodeBaseInterfaceERKNSt7__cxx1112basic_stringIcSt11char_traitsIcESaIcEEERKNS0_3QoSERKNS0_29PublisherOptionsWithAllocatorIS5_EEEEEvRS8_PT_DpOT0_
FN:481,_ZNSt16allocator_traitsISaISt10shared_ptrIN6rclcpp19QOSEventHandlerBaseEEEE9constructIS3_JRS0_INS1_15QOSEventHandlerISt8functionIFvR35rmw_qos_incompatible_event_status_tEES0_I15rcl_publisher_tEEEEEEEvRS4_PT_DpOT0_
FNDA:0,_ZNSt16allocator_traitsISaISt10shared_ptrIN6rclcpp19QOSEventHandlerBaseEEEE9constructIS3_JRS0_INS1_15QOSEventHandlerISt8functionIFvR35rmw_qos_incompatible_event_status_tEES0_I15rcl_publisher_tEEEEEEEvRS4_PT_DpOT0_
FN:481,_ZNSt16allocator_traitsISaIN6rclcpp15QOSEventHandlerISt8functionIFvR36rmw_offered_deadline_missed_status_tEESt10shared_ptrI15rcl_publisher_tEEEEE9constructISA_JRKS6_RFiP11rcl_event_tPKS8_26rcl_publisher_event_type_tERS9_RKSK_EEEvRSB_PT_DpOT0_
FNDA:0,_ZNSt16allocator_traitsISaIN6rclcpp15QOSEventHandlerISt8functionIFvR36rmw_offered_deadline_missed_status_tEESt10shared_ptrI15rcl_publisher_tEEEEE9constructISA_JRKS6_RFiP11rcl_event_tPKS8_26rcl_publisher_event_type_tERS9_RKSK_EEEvRSB_PT_DpOT0_
FN:481,_ZNSt16allocator_traitsISaIN6rclcpp9WallTimerISt5_BindIFM14TaskNavigationFvvEP36TaskNavigation_test_search_bins_TestEELPv0EEEEE9constructISB_JRKNSt6chrono8durationIlSt5ratioILl1ELl1000000000EEEES9_St10shared_ptrINS0_7ContextEEEEEvRSC_PT_DpOT0_
FNDA:1,_ZNSt16allocator_traitsISaIN6rclcpp9WallTimerISt5_BindIFM14TaskNavigationFvvEP36TaskNavigation_test_search_bins_TestEELPv0EEEEE9constructISB_JRKNSt6chrono8durationIlSt5ratioILl1ELl1000000000EEEES9_St10shared_ptrINS0_7ContextEEEEEvRSC_PT_DpOT0_
FN:481,_ZNSt16allocator_traitsISaISaIvEEE9constructIS0_JEEEvRS1_PT_DpOT0_
FNDA:0,_ZNSt16allocator_traitsISaISaIvEEE9constructIS0_JEEEvRS1_PT_DpOT0_
FN:481,_ZNSt16allocator_traitsISaISt10shared_ptrIN6rclcpp19QOSEventHandlerBaseEEEE9constructIS3_JRS0_INS1_15QOSEventHandlerIZNS1_9PublisherIN8nav_msgs3msg9Odometry_ISaIvEEESC_EC4EPNS1_15node_interfaces17NodeBaseInterfaceERKNSt7__cxx1112basic_stringIcSt11char_traitsIcESaIcEEERKNS1_3QoSERKNS1_29PublisherOptionsWithAllocatorISC_EEEUlR35rmw_qos_incompatible_event_status_tE_S0_I15rcl_publisher_tEEEEEEEvRS4_PT_DpOT0_
FNDA:0,_ZNSt16allocator_traitsISaISt10shared_ptrIN6rclcpp19QOSEventHandlerBaseEEEE9constructIS3_JRS0_INS1_15QOSEventHandlerIZNS1_9PublisherIN8nav_msgs3msg9Odometry_ISaIvEEESC_EC4EPNS1_15node_interfaces17NodeBaseInterfaceERKNSt7__cxx1112basic_stringIcSt11char_traitsIcESaIcEEERKNS1_3QoSERKNS1_29PublisherOptionsWithAllocatorISC_EEEUlR35rmw_qos_incompatible_event_status_tE_S0_I15rcl_publisher_tEEEEEEEvRS4_PT_DpOT0_
FN:481,_ZNSt16allocator_traitsISaISaIN8nav_msgs3msg9Odometry_ISaIvEEEEEE9constructIS5_JRS3_EEEvRS6_PT_DpOT0_
FNDA:1,_ZNSt16allocator_traitsISaISaIN8nav_msgs3msg9Odometry_ISaIvEEEEEE9constructIS5_JRS3_EEEvRS6_PT_DpOT0_
FN:481,_ZNSt16allocator_traitsISaISt10shared_ptrIN6rclcpp19QOSEventHandlerBaseEEEE9constructIS3_JRS0_INS1_15QOSEventHandlerISt8functionIFvR36rmw_offered_deadline_missed_status_tEES0_I15rcl_publisher_tEEEEEEEvRS4_PT_DpOT0_
FNDA:0,_ZNSt16allocator_traitsISaISt10shared_ptrIN6rclcpp19QOSEventHandlerBaseEEEE9constructIS3_JRS0_INS1_15QOSEventHandlerISt8functionIFvR36rmw_offered_deadline_missed_status_tEES0_I15rcl_publisher_tEEEEEEEvRS4_PT_DpOT0_
FN:494,_ZNSt16allocator_traitsISaIN6rclcpp4NodeEEE7destroyIS1_EEvRS2_PT_
FNDA:0,_ZNSt16allocator_traitsISaIN6rclcpp4NodeEEE7destroyIS1_EEvRS2_PT_
FN:494,_ZNSt16allocator_traitsISaISt10shared_ptrIN6rclcpp19QOSEventHandlerBaseEEEE7destroyIS3_EEvRS4_PT_
FNDA:0,_ZNSt16allocator_traitsISaISt10shared_ptrIN6rclcpp19QOSEventHandlerBaseEEEE7destroyIS3_EEvRS4_PT_
FN:494,_ZNSt16allocator_traitsISaIN8nav_msgs3msg9Odometry_ISaIvEEEEE7destroyIS4_EEvRS5_PT_
FNDA:0,_ZNSt16allocator_traitsISaIN8nav_msgs3msg9Odometry_ISaIvEEEEE7destroyIS4_EEvRS5_PT_
FN:494,_ZNSt16allocator_traitsISaIN6rclcpp9PublisherIN8nav_msgs3msg9Odometry_ISaIvEEES5_EEEE7destroyIS7_EEvRS8_PT_
FNDA:1,_ZNSt16allocator_traitsISaIN6rclcpp9PublisherIN8nav_msgs3msg9Odometry_ISaIvEEES5_EEEE7destroyIS7_EEvRS8_PT_
FN:494,_ZNSt16allocator_traitsISaIN6rclcpp9WallTimerISt5_BindIFM14TaskNavigationFvvEP36TaskNavigation_test_search_bins_TestEELPv0EEEEE7destroyISB_EEvRSC_PT_
FNDA:1,_ZNSt16allocator_traitsISaIN6rclcpp9WallTimerISt5_BindIFM14TaskNavigationFvvEP36TaskNavigation_test_search_bins_TestEELPv0EEEEE7destroyISB_EEvRSC_PT_
FN:494,_ZNSt16allocator_traitsISaIN6rclcpp5ClockEEE7destroyIS1_EEvRS2_PT_
FNDA:6,_ZNSt16allocator_traitsISaIN6rclcpp5ClockEEE7destroyIS1_EEvRS2_PT_
FN:494,_ZNSt16allocator_traitsISaISaIN8nav_msgs3msg9Odometry_ISaIvEEEEEE7destroyIS5_EEvRS6_PT_
FNDA:1,_ZNSt16allocator_traitsISaISaIN8nav_msgs3msg9Odometry_ISaIvEEEEEE7destroyIS5_EEvRS6_PT_
FN:494,_ZNSt16allocator_traitsISaISaIvEEE7destroyIS0_EEvRS1_PT_
FNDA:0,_ZNSt16allocator_traitsISaISaIvEEE7destroyIS0_EEvRS1_PT_
FN:494,_ZNSt16allocator_traitsISaIN6rclcpp15QOSEventHandlerISt8functionIFvR36rmw_offered_deadline_missed_status_tEESt10shared_ptrI15rcl_publisher_tEEEEE7destroyISA_EEvRSB_PT_
FNDA:0,_ZNSt16allocator_traitsISaIN6rclcpp15QOSEventHandlerISt8functionIFvR36rmw_offered_deadline_missed_status_tEESt10shared_ptrI15rcl_publisher_tEEEEE7destroyISA_EEvRSB_PT_
FN:494,_ZNSt16allocator_traitsISaIN6rclcpp15QOSEventHandlerISt8functionIFvR28rmw_liveliness_lost_status_tEESt10shared_ptrI15rcl_publisher_tEEEEE7destroyISA_EEvRSB_PT_
FNDA:0,_ZNSt16allocator_traitsISaIN6rclcpp15QOSEventHandlerISt8functionIFvR28rmw_liveliness_lost_status_tEESt10shared_ptrI15rcl_publisher_tEEEEE7destroyISA_EEvRSB_PT_
FN:494,_ZNSt16allocator_traitsISaIN6rclcpp15QOSEventHandlerISt8functionIFvR35rmw_qos_incompatible_event_status_tEESt10shared_ptrI15rcl_publisher_tEEEEE7destroyISA_EEvRSB_PT_
FNDA:0,_ZNSt16allocator_traitsISaIN6rclcpp15QOSEventHandlerISt8functionIFvR35rmw_qos_incompatible_event_status_tEESt10shared_ptrI15rcl_publisher_tEEEEE7destroyISA_EEvRSB_PT_
FN:494,_ZNSt16allocator_traitsISaIN6rclcpp15QOSEventHandlerIZNS0_9PublisherIN8nav_msgs3msg9Odometry_ISaIvEEES6_EC4EPNS0_15node_interfaces17NodeBaseInterfaceERKNSt7__cxx1112basic_stringIcSt11char_traitsIcESaIcEEERKNS0_3QoSERKNS0_29PublisherOptionsWithAllocatorIS6_EEEUlR35rmw_qos_incompatible_event_status_tE_St10shared_ptrI15rcl_publisher_tEEEEE7destroyISX_EEvRSY_PT_
FNDA:0,_ZNSt16allocator_traitsISaIN6rclcpp15QOSEventHandlerIZNS0_9PublisherIN8nav_msgs3msg9Odometry_ISaIvEEES6_EC4EPNS0_15node_interfaces17NodeBaseInterfaceERKNSt7__cxx1112basic_stringIcSt11char_traitsIcESaIcEEERKNS0_3QoSERKNS0_29PublisherOptionsWithAllocatorIS6_EEEUlR35rmw_qos_incompatible_event_status_tE_St10shared_ptrI15rcl_publisher_tEEEEE7destroyISX_EEvRSY_PT_
FN:494,_ZNSt16allocator_traitsISaINSt8__detail10_Hash_nodeISt4pairIKSt10type_indexSt10shared_ptrIvEELb0EEEEE7destroyIS7_EEvRS9_PT_
FNDA:0,_ZNSt16allocator_traitsISaINSt8__detail10_Hash_nodeISt4pairIKSt10type_indexSt10shared_ptrIvEELb0EEEEE7destroyIS7_EEvRS9_PT_
FN:504,_ZNSt16allocator_traitsISaImEE8max_sizeERKS0_
FNDA:0,_ZNSt16allocator_traitsISaImEE8max_sizeERKS0_
FN:504,_ZNSt16allocator_traitsISaISt10shared_ptrIN6rclcpp19QOSEventHandlerBaseEEEE8max_sizeERKS4_
FNDA:0,_ZNSt16allocator_traitsISaISt10shared_ptrIN6rclcpp19QOSEventHandlerBaseEEEE8max_sizeERKS4_
FN:513,_ZNSt16allocator_traitsISaImEE37select_on_container_copy_constructionERKS0_
FNDA:0,_ZNSt16allocator_traitsISaImEE37select_on_container_copy_constructionERKS0_
FN:513,_ZNSt16allocator_traitsISaIcEE37select_on_container_copy_constructionERKS0_
FNDA:0,_ZNSt16allocator_traitsISaIcEE37select_on_container_copy_constructionERKS0_
DA:442,0
DA:443,0
DA:442,5
DA:443,5
DA:442,0
DA:443,0
DA:442,0
DA:443,0
DA:442,0
DA:443,0
DA:442,0
DA:443,0
DA:442,0
DA:443,0
DA:442,1
DA:443,1
DA:442,1
DA:443,1
DA:442,1
DA:443,1
DA:442,0
DA:443,0
DA:442,0
DA:443,0
DA:442,1
DA:443,1
DA:442,1
DA:443,1
DA:442,0
DA:443,0
DA:442,0
DA:443,0
DA:442,0
DA:443,0
DA:442,0
DA:443,0
DA:468,1
DA:469,1
DA:468,0
DA:469,0
DA:468,0
DA:469,0
DA:468,0
DA:469,0
DA:468,0
DA:469,0
DA:468,0
DA:469,0
DA:468,0
DA:469,0
DA:468,0
DA:469,0
DA:468,0
DA:469,0
DA:468,0
DA:469,0
DA:468,0
DA:469,0
DA:468,1
DA:469,1
DA:468,0
DA:469,0
DA:468,0
DA:469,0
DA:468,5
DA:469,5
DA:468,0
DA:469,0
DA:468,6
DA:469,6
DA:468,1
DA:469,1
DA:468,0
DA:469,0
DA:468,0
DA:469,0
DA:468,0
DA:469,0
DA:468,0
DA:469,0
DA:468,1
DA:469,1
DA:481,0
DA:483,0
DA:481,0
DA:483,0
DA:481,0
DA:483,0
DA:481,0
DA:483,0
DA:481,1
DA:483,1
DA:481,0
DA:483,0
DA:481,1
DA:483,1
DA:481,1
DA:483,1
DA:481,0
DA:483,0
DA:481,0
DA:483,0
DA:481,0
DA:483,0
DA:481,0
DA:483,0
DA:481,1
DA:483,1
DA:481,1
DA:483,1
DA:481,0
DA:483,0
DA:481,0
DA:483,0
DA:481,0
DA:483,0
DA:481,0
DA:483,0
DA:481,1
DA:483,1
DA:494,0
DA:496,0
DA:494,0
DA:496,0
DA:494,1
DA:496,1
DA:494,1
DA:496,1
DA:494,6
DA:496,6
DA:494,1
DA:496,1
DA:494,0
DA:496,0
DA:494,0
DA:496,0
DA:494,0
DA:496,0
DA:494,0
DA:496,0
DA:494,0
DA:496,0
DA:494,0
DA:496,0
DA:494,0
DA:496,0
DA:504,0
DA:505,0
DA:504,0
DA:505,0
DA:513,0
DA:514,0
DA:513,0
DA:514,0
end_of_record
SF:/opt/ros/foxy/include/geometry_msgs/msg/detail/quaternion__struct.hpp
FN:35,_ZN13geometry_msgs3msg11Quaternion_ISaIvEEC2EN18rosidl_runtime_cpp21MessageInitializationE
FNDA:1,_ZN13geometry_msgs3msg11Quaternion_ISaIvEEC2EN18rosidl_runtime_cpp21MessageInitializationE
DA:35,1
DA:37,1
DA:40,1
DA:41,1
DA:42,1
DA:43,1
DA:44,0
DA:45,0
DA:46,0
DA:47,0
DA:48,0
DA:50,1
end_of_record
SF:/usr/include/c++/9/bits/shared_ptr.h
FN:103,_ZNSt10shared_ptrI15rcl_publisher_tEaSERKS1_
FNDA:0,_ZNSt10shared_ptrI15rcl_publisher_tEaSERKS1_
FN:127,_ZNSt10shared_ptrI15rcl_publisher_tEC2Ev
FNDA:0,_ZNSt10shared_ptrI15rcl_publisher_tEC2Ev
FN:127,_ZNSt10shared_ptrIN6rclcpp12experimental24SubscriptionIntraProcessIN8nav_msgs3msg9Odometry_ISaIvEEES6_St14default_deleteIS7_ES7_EEEC2Ev
FNDA:0,_ZNSt10shared_ptrIN6rclcpp12experimental24SubscriptionIntraProcessIN8nav_msgs3msg9Odometry_ISaIvEEES6_St14default_deleteIS7_ES7_EEEC2Ev
FN:127,_ZNSt10shared_ptrIKN8nav_msgs3msg9Odometry_ISaIvEEEEC2Ev
FNDA:0,_ZNSt10shared_ptrIKN8nav_msgs3msg9Odometry_ISaIvEEEEC2Ev
FN:127,_ZNSt10shared_ptrISaIvEEC2Ev
FNDA:0,_ZNSt10shared_ptrISaIvEEC2Ev
FN:127,_ZNSt10shared_ptrIN6rclcpp9PublisherIN13geometry_msgs3msg12PoseStamped_ISaIvEEES5_EEEC2Ev
FNDA:2,_ZNSt10shared_ptrIN6rclcpp9PublisherIN13geometry_msgs3msg12PoseStamped_ISaIvEEES5_EEEC2Ev
FN:127,_ZNSt10shared_ptrIN6rclcpp9PublisherIN8nav_msgs3msg9Odometry_ISaIvEEES5_EEEC2Ev
FNDA:1,_ZNSt10shared_ptrIN6rclcpp9PublisherIN8nav_msgs3msg9Odometry_ISaIvEEES5_EEEC2Ev
FN:127,_ZNSt10shared_ptrIN6rclcpp9TimerBaseEEC2Ev
FNDA:2,_ZNSt10shared_ptrIN6rclcpp9TimerBaseEEC2Ev
FN:127,_ZNSt10shared_ptrIN6rclcpp4NodeEEC2Ev
FNDA:0,_ZNSt10shared_ptrIN6rclcpp4NodeEEC2Ev
FN:127,_ZNSt10shared_ptrIvEC2Ev
FNDA:0,_ZNSt10shared_ptrIvEC2Ev
FN:127,_ZNSt10shared_ptrIN6rclcpp6detail41RMWImplementationSpecificPublisherPayloadEEC2Ev
FNDA:0,_ZNSt10shared_ptrIN6rclcpp6detail41RMWImplementationSpecificPublisherPayloadEEC2Ev
FN:127,_ZNSt10shared_ptrIN6rclcpp13CallbackGroupEEC2Ev
FNDA:0,_ZNSt10shared_ptrIN6rclcpp13CallbackGroupEEC2Ev
FN:129,_ZNSt10shared_ptrIN6rclcpp13CallbackGroupEEC2ERKS2_
FNDA:0,_ZNSt10shared_ptrIN6rclcpp13CallbackGroupEEC2ERKS2_
FN:129,_ZNSt10shared_ptrIN6rclcpp13PublisherBaseEEC2ERKS2_
FNDA:0,_ZNSt10shared_ptrIN6rclcpp13PublisherBaseEEC2ERKS2_
FN:129,_ZNSt10shared_ptrISaIN8nav_msgs3msg9Odometry_ISaIvEEEEEC2ERKS6_
FNDA:0,_ZNSt10shared_ptrISaIN8nav_msgs3msg9Odometry_ISaIvEEEEEC2ERKS6_
FN:129,_ZNSt10shared_ptrIN6rclcpp6detail41RMWImplementationSpecificPublisherPayloadEEC2ERKS3_
FNDA:0,_ZNSt10shared_ptrIN6rclcpp6detail41RMWImplementationSpecificPublisherPayloadEEC2ERKS3_
FN:129,_ZNSt10shared_ptrISaIvEEC2ERKS1_
FNDA:0,_ZNSt10shared_ptrISaIvEEC2ERKS1_
FN:129,_ZNSt10shared_ptrIN6rclcpp12experimental19IntraProcessManagerEEC2ERKS3_
FNDA:0,_ZNSt10shared_ptrIN6rclcpp12experimental19IntraProcessManagerEEC2ERKS3_
FN:129,_ZNSt10shared_ptrIN6rclcpp12experimental28SubscriptionIntraProcessBaseEEC2ERKS3_
FNDA:0,_ZNSt10shared_ptrIN6rclcpp12experimental28SubscriptionIntraProcessBaseEEC2ERKS3_
FN:129,_ZNSt10shared_ptrIKN8nav_msgs3msg9Odometry_ISaIvEEEEC2ERKS6_
FNDA:0,_ZNSt10shared_ptrIKN8nav_msgs3msg9Odometry_ISaIvEEEEC2ERKS6_
FN:129,_ZNSt10shared_ptrIN6rclcpp4NodeEEC2ERKS2_
FNDA:2,_ZNSt10shared_ptrIN6rclcpp4NodeEEC2ERKS2_
FN:129,_ZNSt10shared_ptrIN6rclcpp7ContextEEC2ERKS2_
FNDA:2,_ZNSt10shared_ptrIN6rclcpp7ContextEEC2ERKS2_
FN:129,_ZNSt10shared_ptrIN6rclcpp5ClockEEC2ERKS2_
FNDA:1,_ZNSt10shared_ptrIN6rclcpp5ClockEEC2ERKS2_
FN:129,_ZNSt10shared_ptrI15rcl_publisher_tEC2ERKS1_
FNDA:0,_ZNSt10shared_ptrI15rcl_publisher_tEC2ERKS1_
FN:139,_ZNSt10shared_ptrISaIN8nav_msgs3msg9Odometry_ISaIvEEEEEC2IS5_vEEPT_
FNDA:1,_ZNSt10shared_ptrISaIN8nav_msgs3msg9Odometry_ISaIvEEEEEC2IS5_vEEPT_
FN:156,_ZNSt10shared_ptrIN6rclcpp12experimental19IntraProcessManagerEEC2IS2_ZNS0_7Context15get_sub_contextIS2_JEEES_IT_EDpOT0_EUlPS2_E_vEEPS7_T0_
FNDA:0,_ZNSt10shared_ptrIN6rclcpp12experimental19IntraProcessManagerEEC2IS2_ZNS0_7Context15get_sub_contextIS2_JEEES_IT_EDpOT0_EUlPS2_E_vEEPS7_T0_
FN:234,_ZNSt10shared_ptrIN6rclcpp9PublisherIN8nav_msgs3msg9Odometry_ISaIvEEES5_EEEC2INS0_13PublisherBaseEEERKS_IT_EPS7_
FNDA:1,_ZNSt10shared_ptrIN6rclcpp9PublisherIN8nav_msgs3msg9Odometry_ISaIvEEES5_EEEC2INS0_13PublisherBaseEEERKS_IT_EPS7_
FN:234,_ZNSt10shared_ptrIN6rclcpp12experimental24SubscriptionIntraProcessIN8nav_msgs3msg9Odometry_ISaIvEEES6_St14default_deleteIS7_ES7_EEEC2INS1_28SubscriptionIntraProcessBaseEEERKS_IT_EPSA_
FNDA:0,_ZNSt10shared_ptrIN6rclcpp12experimental24SubscriptionIntraProcessIN8nav_msgs3msg9Odometry_ISaIvEEES6_St14default_deleteIS7_ES7_EEEC2INS1_28SubscriptionIntraProcessBaseEEERKS_IT_EPSA_
FN:234,_ZNSt10shared_ptrIN6rclcpp12experimental19IntraProcessManagerEEC2IvEERKS_IT_EPS2_
FNDA:0,_ZNSt10shared_ptrIN6rclcpp12experimental19IntraProcessManagerEEC2IvEERKS_IT_EPS2_
FN:246,_ZNSt10shared_ptrIKN8nav_msgs3msg9Odometry_ISaIvEEEEC2IS4_vEERKS_IT_E
FNDA:0,_ZNSt10shared_ptrIKN8nav_msgs3msg9Odometry_ISaIvEEEEC2IS4_vEERKS_IT_E
FN:246,_ZNSt10shared_ptrIN6rclcpp19QOSEventHandlerBaseEEC2INS0_15QOSEventHandlerIZNS0_9PublisherIN8nav_msgs3msg9Odometry_ISaIvEEES9_EC4EPNS0_15node_interfaces17NodeBaseInterfaceERKNSt7__cxx1112basic_stringIcSt11char_traitsIcESaIcEEERKNS0_3QoSERKNS0_29PublisherOptionsWithAllocatorIS9_EEEUlR35rmw_qos_incompatible_event_status_tE_S_I15rcl_publisher_tEEEvEERKS_IT_E
FNDA:0,_ZNSt10shared_ptrIN6rclcpp19QOSEventHandlerBaseEEC2INS0_15QOSEventHandlerIZNS0_9PublisherIN8nav_msgs3msg9Odometry_ISaIvEEES9_EC4EPNS0_15node_interfaces17NodeBaseInterfaceERKNSt7__cxx1112basic_stringIcSt11char_traitsIcESaIcEEERKNS0_3QoSERKNS0_29PublisherOptionsWithAllocatorIS9_EEEUlR35rmw_qos_incompatible_event_status_tE_S_I15rcl_publisher_tEEEvEERKS_IT_E
FN:246,_ZNSt10shared_ptrIN6rclcpp19QOSEventHandlerBaseEEC2INS0_15QOSEventHandlerISt8functionIFvR35rmw_qos_incompatible_event_status_tEES_I15rcl_publisher_tEEEvEERKS_IT_E
FNDA:0,_ZNSt10shared_ptrIN6rclcpp19QOSEventHandlerBaseEEC2INS0_15QOSEventHandlerISt8functionIFvR35rmw_qos_incompatible_event_status_tEES_I15rcl_publisher_tEEEvEERKS_IT_E
FN:246,_ZNSt10shared_ptrIN6rclcpp9TimerBaseEEC2INS0_9WallTimerISt5_BindIFM14TaskNavigationFvvEP36TaskNavigation_test_search_bins_TestEELPv0EEEvEERKS_IT_E
FNDA:1,_ZNSt10shared_ptrIN6rclcpp9TimerBaseEEC2INS0_9WallTimerISt5_BindIFM14TaskNavigationFvvEP36TaskNavigation_test_search_bins_TestEELPv0EEEvEERKS_IT_E
FN:246,_ZNSt10shared_ptrIN6rclcpp19QOSEventHandlerBaseEEC2INS0_15QOSEventHandlerISt8functionIFvR28rmw_liveliness_lost_status_tEES_I15rcl_publisher_tEEEvEERKS_IT_E
FNDA:0,_ZNSt10shared_ptrIN6rclcpp19QOSEventHandlerBaseEEC2INS0_15QOSEventHandlerISt8functionIFvR28rmw_liveliness_lost_status_tEES_I15rcl_publisher_tEEEvEERKS_IT_E
FN:246,_ZNSt10shared_ptrIN6rclcpp19QOSEventHandlerBaseEEC2INS0_15QOSEventHandlerISt8functionIFvR36rmw_offered_deadline_missed_status_tEES_I15rcl_publisher_tEEEvEERKS_IT_E
FNDA:0,_ZNSt10shared_ptrIN6rclcpp19QOSEventHandlerBaseEEC2INS0_15QOSEventHandlerISt8functionIFvR36rmw_offered_deadline_missed_status_tEES_I15rcl_publisher_tEEEvEERKS_IT_E
FN:254,_ZNSt10shared_ptrIN6rclcpp19QOSEventHandlerBaseEEC2EOS2_
FNDA:0,_ZNSt10shared_ptrIN6rclcpp19QOSEventHandlerBaseEEC2EOS2_
FN:254,_ZNSt10shared_ptrIN6rclcpp9PublisherIN8nav_msgs3msg9Odometry_ISaIvEEES5_EEEC2EOS8_
FNDA:1,_ZNSt10shared_ptrIN6rclcpp9PublisherIN8nav_msgs3msg9Odometry_ISaIvEEES5_EEEC2EOS8_
FN:254,_ZNSt10shared_ptrIKN8nav_msgs3msg9Odometry_ISaIvEEEEC2EOS6_
FNDA:0,_ZNSt10shared_ptrIKN8nav_msgs3msg9Odometry_ISaIvEEEEC2EOS6_
FN:254,_ZNSt10shared_ptrIN6rclcpp7ContextEEC2EOS2_
FNDA:1,_ZNSt10shared_ptrIN6rclcpp7ContextEEC2EOS2_
FN:263,_ZNSt10shared_ptrIKN8nav_msgs3msg9Odometry_ISaIvEEEEC2IS4_vEEOS_IT_E
FNDA:0,_ZNSt10shared_ptrIKN8nav_msgs3msg9Odometry_ISaIvEEEEC2IS4_vEEOS_IT_E
FN:263,_ZNSt10shared_ptrIN6rclcpp9TimerBaseEEC2INS0_9WallTimerISt5_BindIFM14TaskNavigationFvvEP36TaskNavigation_test_search_bins_TestEELPv0EEEvEEOS_IT_E
FNDA:1,_ZNSt10shared_ptrIN6rclcpp9TimerBaseEEC2INS0_9WallTimerISt5_BindIFM14TaskNavigationFvvEP36TaskNavigation_test_search_bins_TestEELPv0EEEvEEOS_IT_E
FN:263,_ZNSt10shared_ptrIN6rclcpp13PublisherBaseEEC2INS0_9PublisherIN8nav_msgs3msg9Odometry_ISaIvEEES8_EEvEEOS_IT_E
FNDA:1,_ZNSt10shared_ptrIN6rclcpp13PublisherBaseEEC2INS0_9PublisherIN8nav_msgs3msg9Odometry_ISaIvEEES8_EEvEEOS_IT_E
FN:275,_ZNSt10shared_ptrIN6rclcpp13PublisherBaseEEC2IS1_vEERKSt8weak_ptrIT_E
FNDA:0,_ZNSt10shared_ptrIN6rclcpp13PublisherBaseEEC2IS1_vEERKSt8weak_ptrIT_E
FN:290,_ZNSt10shared_ptrIN8nav_msgs3msg9Odometry_ISaIvEEEEC2IS4_St14default_deleteIS4_EvEEOSt10unique_ptrIT_T0_E
FNDA:0,_ZNSt10shared_ptrIN8nav_msgs3msg9Odometry_ISaIvEEEEC2IS4_St14default_deleteIS4_EvEEOSt10unique_ptrIT_T0_E
FN:307,_ZNSt10shared_ptrIN6rclcpp13CallbackGroupEEC2EDn
FNDA:1,_ZNSt10shared_ptrIN6rclcpp13CallbackGroupEEC2EDn
FN:307,_ZNSt10shared_ptrIKN8nav_msgs3msg9Odometry_ISaIvEEEEC2EDn
FNDA:0,_ZNSt10shared_ptrIKN8nav_msgs3msg9Odometry_ISaIvEEEEC2EDn
FN:307,_ZNSt10shared_ptrISaIvEEC2EDn
FNDA:0,_ZNSt10shared_ptrISaIvEEC2EDn
FN:307,_ZNSt10shared_ptrIN6rclcpp6detail41RMWImplementationSpecificPublisherPayloadEEC2EDn
FNDA:0,_ZNSt10shared_ptrIN6rclcpp6detail41RMWImplementationSpecificPublisherPayloadEEC2EDn
FN:313,_ZNSt10shared_ptrIvEaSIN6rclcpp12experimental19IntraProcessManagerEEENSt9enable_ifIXsrSt13is_assignableIRSt12__shared_ptrIvLN9__gnu_cxx12_Lock_policyE2EERKS_IT_EE5valueERS0_E4typeESF_
FNDA:0,_ZNSt10shared_ptrIvEaSIN6rclcpp12experimental19IntraProcessManagerEEENSt9enable_ifIXsrSt13is_assignableIRSt12__shared_ptrIvLN9__gnu_cxx12_Lock_policyE2EERKS_IT_EE5valueERS0_E4typeESF_
FN:333,_ZNSt10shared_ptrIN6rclcpp12experimental19IntraProcessManagerEEaSEOS3_
FNDA:0,_ZNSt10shared_ptrIN6rclcpp12experimental19IntraProcessManagerEEaSEOS3_
FN:333,_ZNSt10shared_ptrIN6rclcpp4NodeEEaSEOS2_
FNDA:0,_ZNSt10shared_ptrIN6rclcpp4NodeEEaSEOS2_
FN:358,_ZNSt10shared_ptrISaIvEEC2ISaIS0_EJEEESt20_Sp_alloc_shared_tagIT_EDpOT0_
FNDA:0,_ZNSt10shared_ptrISaIvEEC2ISaIS0_EJEEESt20_Sp_alloc_shared_tagIT_EDpOT0_
FN:358,_ZNSt10shared_ptrIN6rclcpp15QOSEventHandlerISt8functionIFvR36rmw_offered_deadline_missed_status_tEES_I15rcl_publisher_tEEEEC2ISaIS9_EJRKS6_RFiP11rcl_event_tPKS7_26rcl_publisher_event_type_tERS8_RKSJ_EEESt20_Sp_alloc_shared_tagIT_EDpOT0_
FNDA:0,_ZNSt10shared_ptrIN6rclcpp15QOSEventHandlerISt8functionIFvR36rmw_offered_deadline_missed_status_tEES_I15rcl_publisher_tEEEEC2ISaIS9_EJRKS6_RFiP11rcl_event_tPKS7_26rcl_publisher_event_type_tERS8_RKSJ_EEESt20_Sp_alloc_shared_tagIT_EDpOT0_
FN:358,_ZNSt10shared_ptrIN6rclcpp5ClockEEC2ISaIS1_EJ16rcl_clock_type_tEEESt20_Sp_alloc_shared_tagIT_EDpOT0_
FNDA:1,_ZNSt10shared_ptrIN6rclcpp5ClockEEC2ISaIS1_EJ16rcl_clock_type_tEEESt20_Sp_alloc_shared_tagIT_EDpOT0_
FN:358,_ZNSt10shared_ptrIN6rclcpp4NodeEEC2ISaIS1_EJRA16_KcEEESt20_Sp_alloc_shared_tagIT_EDpOT0_
FNDA:1,_ZNSt10shared_ptrIN6rclcpp4NodeEEC2ISaIS1_EJRA16_KcEEESt20_Sp_alloc_shared_tagIT_EDpOT0_
FN:358,_ZNSt10shared_ptrIN6rclcpp15QOSEventHandlerISt8functionIFvR28rmw_liveliness_lost_status_tEES_I15rcl_publisher_tEEEEC2ISaIS9_EJRKS6_RFiP11rcl_event_tPKS7_26rcl_publisher_event_type_tERS8_RKSJ_EEESt20_Sp_alloc_shared_tagIT_EDpOT0_
FNDA:0,_ZNSt10shared_ptrIN6rclcpp15QOSEventHandlerISt8functionIFvR28rmw_liveliness_lost_status_tEES_I15rcl_publisher_tEEEEC2ISaIS9_EJRKS6_RFiP11rcl_event_tPKS7_26rcl_publisher_event_type_tERS8_RKSJ_EEESt20_Sp_alloc_shared_tagIT_EDpOT0_
FN:358,_ZNSt10shared_ptrISaIN8nav_msgs3msg9Odometry_ISaIvEEEEEC2ISaIS5_EJRS3_EEESt20_Sp_alloc_shared_tagIT_EDpOT0_
FNDA:1,_ZNSt10shared_ptrISaIN8nav_msgs3msg9Odometry_ISaIvEEEEEC2ISaIS5_EJRS3_EEESt20_Sp_alloc_shared_tagIT_EDpOT0_
FN:358,_ZNSt10shared_ptrIN6rclcpp15QOSEventHandlerISt8functionIFvR35rmw_qos_incompatible_event_status_tEES_I15rcl_publisher_tEEEEC2ISaIS9_EJRKS6_RFiP11rcl_event_tPKS7_26rcl_publisher_event_type_tERS8_RKSJ_EEESt20_Sp_alloc_shared_tagIT_EDpOT0_
FNDA:0,_ZNSt10shared_ptrIN6rclcpp15QOSEventHandlerISt8functionIFvR35rmw_qos_incompatible_event_status_tEES_I15rcl_publisher_tEEEEC2ISaIS9_EJRKS6_RFiP11rcl_event_tPKS7_26rcl_publisher_event_type_tERS8_RKSJ_EEESt20_Sp_alloc_shared_tagIT_EDpOT0_
FN:358,_ZNSt10shared_ptrIN6rclcpp15QOSEventHandlerIZNS0_9PublisherIN8nav_msgs3msg9Odometry_ISaIvEEES6_EC4EPNS0_15node_interfaces17NodeBaseInterfaceERKNSt7__cxx1112basic_stringIcSt11char_traitsIcESaIcEEERKNS0_3QoSERKNS0_29PublisherOptionsWithAllocatorIS6_EEEUlR35rmw_qos_incompatible_event_status_tE_S_I15rcl_publisher_tEEEEC2ISaISW_EJRKST_RFiP11rcl_event_tPKSU_26rcl_publisher_event_type_tERSV_RKS16_EEESt20_Sp_alloc_shared_tagIT_EDpOT0_
FNDA:1,_ZNSt10shared_ptrIN6rclcpp15QOSEventHandlerIZNS0_9PublisherIN8nav_msgs3msg9Odometry_ISaIvEEES6_EC4EPNS0_15node_interfaces17NodeBaseInterfaceERKNSt7__cxx1112basic_stringIcSt11char_traitsIcESaIcEEERKNS0_3QoSERKNS0_29PublisherOptionsWithAllocatorIS6_EEEUlR35rmw_qos_incompatible_event_status_tE_S_I15rcl_publisher_tEEEEC2ISaISW_EJRKST_RFiP11rcl_event_tPKSU_26rcl_publisher_event_type_tERSV_RKS16_EEESt20_Sp_alloc_shared_tagIT_EDpOT0_
FN:358,_ZNSt10shared_ptrIN8nav_msgs3msg9Odometry_ISaIvEEEEC2ISaIS4_EJRS4_EEESt20_Sp_alloc_shared_tagIT_EDpOT0_
FNDA:0,_ZNSt10shared_ptrIN8nav_msgs3msg9Odometry_ISaIvEEEEC2ISaIS4_EJRS4_EEESt20_Sp_alloc_shared_tagIT_EDpOT0_
FN:358,_ZNSt10shared_ptrIN6rclcpp9PublisherIN8nav_msgs3msg9Odometry_ISaIvEEES5_EEEC2ISaIS7_EJRPNS0_15node_interfaces17NodeBaseInterfaceERKNSt7__cxx1112basic_stringIcSt11char_traitsIcESaIcEEERKNS0_3QoSERKNS0_29PublisherOptionsWithAllocatorIS5_EEEEESt20_Sp_alloc_shared_tagIT_EDpOT0_
FNDA:1,_ZNSt10shared_ptrIN6rclcpp9PublisherIN8nav_msgs3msg9Odometry_ISaIvEEES5_EEEC2ISaIS7_EJRPNS0_15node_interfaces17NodeBaseInterfaceERKNSt7__cxx1112basic_stringIcSt11char_traitsIcESaIcEEERKNS0_3QoSERKNS0_29PublisherOptionsWithAllocatorIS5_EEEEESt20_Sp_alloc_shared_tagIT_EDpOT0_
FN:358,_ZNSt10shared_ptrIN6rclcpp9WallTimerISt5_BindIFM14TaskNavigationFvvEP36TaskNavigation_test_search_bins_TestEELPv0EEEEC2ISaISB_EJRKNSt6chrono8durationIlSt5ratioILl1ELl1000000000EEEES9_S_INS0_7ContextEEEEESt20_Sp_alloc_shared_tagIT_EDpOT0_
FNDA:1,_ZNSt10shared_ptrIN6rclcpp9WallTimerISt5_BindIFM14TaskNavigationFvvEP36TaskNavigation_test_search_bins_TestEELPv0EEEEC2ISaISB_EJRKNSt6chrono8durationIlSt5ratioILl1ELl1000000000EEEES9_S_INS0_7ContextEEEEESt20_Sp_alloc_shared_tagIT_EDpOT0_
FN:367,_ZNSt10shared_ptrIN6rclcpp12experimental19IntraProcessManagerEEC2ERKSt8weak_ptrIS2_ESt9nothrow_t
FNDA:0,_ZNSt10shared_ptrIN6rclcpp12experimental19IntraProcessManagerEEC2ERKSt8weak_ptrIS2_ESt9nothrow_t
FN:393,_ZSteqIN6rclcpp12experimental24SubscriptionIntraProcessIN8nav_msgs3msg9Odometry_ISaIvEEES6_St14default_deleteIS7_ES7_EEEbDnRKSt10shared_ptrIT_E
FNDA:0,_ZSteqIN6rclcpp12experimental24SubscriptionIntraProcessIN8nav_msgs3msg9Odometry_ISaIvEEES6_St14default_deleteIS7_ES7_EEEbDnRKSt10shared_ptrIT_E
FN:491,_ZSt19static_pointer_castIN6rclcpp12experimental19IntraProcessManagerEvESt10shared_ptrIT_ERKS3_IT0_E
FNDA:0,_ZSt19static_pointer_castIN6rclcpp12experimental19IntraProcessManagerEvESt10shared_ptrIT_ERKS3_IT0_E
FN:507,_ZSt20dynamic_pointer_castIN6rclcpp12experimental24SubscriptionIntraProcessIN8nav_msgs3msg9Odometry_ISaIvEEES6_St14default_deleteIS7_ES7_EENS1_28SubscriptionIntraProcessBaseEESt10shared_ptrIT_ERKSC_IT0_E
FNDA:0,_ZSt20dynamic_pointer_castIN6rclcpp12experimental24SubscriptionIntraProcessIN8nav_msgs3msg9Odometry_ISaIvEEES6_St14default_deleteIS7_ES7_EENS1_28SubscriptionIntraProcessBaseEESt10shared_ptrIT_ERKSC_IT0_E
FN:507,_ZSt20dynamic_pointer_castIN6rclcpp9PublisherIN8nav_msgs3msg9Odometry_ISaIvEEES5_EENS0_13PublisherBaseEESt10shared_ptrIT_ERKS9_IT0_E
FNDA:1,_ZSt20dynamic_pointer_castIN6rclcpp9PublisherIN8nav_msgs3msg9Odometry_ISaIvEEES5_EENS0_13PublisherBaseEESt10shared_ptrIT_ERKS9_IT0_E
FN:594,_ZNKSt8weak_ptrIN6rclcpp12experimental19IntraProcessManagerEE4lockEv
FNDA:0,_ZNKSt8weak_ptrIN6rclcpp12experimental19IntraProcessManagerEE4lockEv
FN:650,_ZNSt23enable_shared_from_thisIN6rclcpp13PublisherBaseEE16shared_from_thisEv
FNDA:0,_ZNSt23enable_shared_from_thisIN6rclcpp13PublisherBaseEE16shared_from_thisEv
FN:671,_ZNKSt23enable_shared_from_thisIN6rclcpp4NodeEE14_M_weak_assignIS1_EEvPT_RKSt14__shared_countILN9__gnu_cxx12_Lock_policyE2EE
FNDA:0,_ZNKSt23enable_shared_from_thisIN6rclcpp4NodeEE14_M_weak_assignIS1_EEvPT_RKSt14__shared_countILN9__gnu_cxx12_Lock_policyE2EE
FN:671,_ZNKSt23enable_shared_from_thisIN6rclcpp13PublisherBaseEE14_M_weak_assignINS0_9PublisherIN8nav_msgs3msg9Odometry_ISaIvEEES8_EEEEvPT_RKSt14__shared_countILN9__gnu_cxx12_Lock_policyE2EE
FNDA:1,_ZNKSt23enable_shared_from_thisIN6rclcpp13PublisherBaseEE14_M_weak_assignINS0_9PublisherIN8nav_msgs3msg9Odometry_ISaIvEEES8_EEEEvPT_RKSt14__shared_countILN9__gnu_cxx12_Lock_policyE2EE
FN:676,_ZSt30__enable_shared_from_this_baseRKSt14__shared_countILN9__gnu_cxx12_Lock_policyE2EEPKSt23enable_shared_from_thisIN6rclcpp13PublisherBaseEE
FNDA:0,_ZSt30__enable_shared_from_this_baseRKSt14__shared_countILN9__gnu_cxx12_Lock_policyE2EEPKSt23enable_shared_from_thisIN6rclcpp13PublisherBaseEE
FN:676,_ZSt30__enable_shared_from_this_baseRKSt14__shared_countILN9__gnu_cxx12_Lock_policyE2EEPKSt23enable_shared_from_thisIN6rclcpp4NodeEE
FNDA:0,_ZSt30__enable_shared_from_this_baseRKSt14__shared_countILN9__gnu_cxx12_Lock_policyE2EEPKSt23enable_shared_from_thisIN6rclcpp4NodeEE
FN:699,_ZSt15allocate_sharedIN6rclcpp4NodeESaIS1_EJRA16_KcEESt10shared_ptrIT_ERKT0_DpOT1_
FNDA:1,_ZSt15allocate_sharedIN6rclcpp4NodeESaIS1_EJRA16_KcEESt10shared_ptrIT_ERKT0_DpOT1_
FN:699,_ZSt15allocate_sharedIN6rclcpp15QOSEventHandlerISt8functionIFvR36rmw_offered_deadline_missed_status_tEESt10shared_ptrI15rcl_publisher_tEEESaISA_EJRKS6_RFiP11rcl_event_tPKS8_26rcl_publisher_event_type_tERS9_RKSI_EES7_IT_ERKT0_DpOT1_
FNDA:0,_ZSt15allocate_sharedIN6rclcpp15QOSEventHandlerISt8functionIFvR36rmw_offered_deadline_missed_status_tEESt10shared_ptrI15rcl_publisher_tEEESaISA_EJRKS6_RFiP11rcl_event_tPKS8_26rcl_publisher_event_type_tERS9_RKSI_EES7_IT_ERKT0_DpOT1_
FN:699,_ZSt15allocate_sharedIN6rclcpp15QOSEventHandlerIZNS0_9PublisherIN8nav_msgs3msg9Odometry_ISaIvEEES6_EC4EPNS0_15node_interfaces17NodeBaseInterfaceERKNSt7__cxx1112basic_stringIcSt11char_traitsIcESaIcEEERKNS0_3QoSERKNS0_29PublisherOptionsWithAllocatorIS6_EEEUlR35rmw_qos_incompatible_event_status_tE_St10shared_ptrI15rcl_publisher_tEEESaISX_EJRKST_RFiP11rcl_event_tPKSV_26rcl_publisher_event_type_tERSW_RKS15_EESU_IT_ERKT0_DpOT1_
FNDA:1,_ZSt15allocate_sharedIN6rclcpp15QOSEventHandlerIZNS0_9PublisherIN8nav_msgs3msg9Odometry_ISaIvEEES6_EC4EPNS0_15node_interfaces17NodeBaseInterfaceERKNSt7__cxx1112basic_stringIcSt11char_traitsIcESaIcEEERKNS0_3QoSERKNS0_29PublisherOptionsWithAllocatorIS6_EEEUlR35rmw_qos_incompatible_event_status_tE_St10shared_ptrI15rcl_publisher_tEEESaISX_EJRKST_RFiP11rcl_event_tPKSV_26rcl_publisher_event_type_tERSW_RKS15_EESU_IT_ERKT0_DpOT1_
FN:699,_ZSt15allocate_sharedIN6rclcpp15QOSEventHandlerISt8functionIFvR35rmw_qos_incompatible_event_status_tEESt10shared_ptrI15rcl_publisher_tEEESaISA_EJRKS6_RFiP11rcl_event_tPKS8_26rcl_publisher_event_type_tERS9_RKSI_EES7_IT_ERKT0_DpOT1_
FNDA:0,_ZSt15allocate_sharedIN6rclcpp15QOSEventHandlerISt8functionIFvR35rmw_qos_incompatible_event_status_tEESt10shared_ptrI15rcl_publisher_tEEESaISA_EJRKS6_RFiP11rcl_event_tPKS8_26rcl_publisher_event_type_tERS9_RKSI_EES7_IT_ERKT0_DpOT1_
FN:699,_ZSt15allocate_sharedIN6rclcpp15QOSEventHandlerISt8functionIFvR28rmw_liveliness_lost_status_tEESt10shared_ptrI15rcl_publisher_tEEESaISA_EJRKS6_RFiP11rcl_event_tPKS8_26rcl_publisher_event_type_tERS9_RKSI_EES7_IT_ERKT0_DpOT1_
FNDA:0,_ZSt15allocate_sharedIN6rclcpp15QOSEventHandlerISt8functionIFvR28rmw_liveliness_lost_status_tEESt10shared_ptrI15rcl_publisher_tEEESaISA_EJRKS6_RFiP11rcl_event_tPKS8_26rcl_publisher_event_type_tERS9_RKSI_EES7_IT_ERKT0_DpOT1_
FN:699,_ZSt15allocate_sharedISaIvESaIS0_EJEESt10shared_ptrIT_ERKT0_DpOT1_
FNDA:0,_ZSt15allocate_sharedISaIvESaIS0_EJEESt10shared_ptrIT_ERKT0_DpOT1_
FN:699,_ZSt15allocate_sharedIN8nav_msgs3msg9Odometry_ISaIvEEESaIS4_EJRS4_EESt10shared_ptrIT_ERKT0_DpOT1_
FNDA:0,_ZSt15allocate_sharedIN8nav_msgs3msg9Odometry_ISaIvEEESaIS4_EJRS4_EESt10shared_ptrIT_ERKT0_DpOT1_
FN:699,_ZSt15allocate_sharedIN6rclcpp9PublisherIN8nav_msgs3msg9Odometry_ISaIvEEES5_EESaIS7_EJRPNS0_15node_interfaces17NodeBaseInterfaceERKNSt7__cxx1112basic_stringIcSt11char_traitsIcESaIcEEERKNS0_3QoSERKNS0_29PublisherOptionsWithAllocatorIS5_EEEESt10shared_ptrIT_ERKT0_DpOT1_
FNDA:1,_ZSt15allocate_sharedIN6rclcpp9PublisherIN8nav_msgs3msg9Odometry_ISaIvEEES5_EESaIS7_EJRPNS0_15node_interfaces17NodeBaseInterfaceERKNSt7__cxx1112basic_stringIcSt11char_traitsIcESaIcEEERKNS0_3QoSERKNS0_29PublisherOptionsWithAllocatorIS5_EEEESt10shared_ptrIT_ERKT0_DpOT1_
FN:699,_ZSt15allocate_sharedIN6rclcpp9WallTimerISt5_BindIFM14TaskNavigationFvvEP36TaskNavigation_test_search_bins_TestEELPv0EEESaISB_EJRKNSt6chrono8durationIlSt5ratioILl1ELl1000000000EEEES9_St10shared_ptrINS0_7ContextEEEESK_IT_ERKT0_DpOT1_
FNDA:1,_ZSt15allocate_sharedIN6rclcpp9WallTimerISt5_BindIFM14TaskNavigationFvvEP36TaskNavigation_test_search_bins_TestEELPv0EEESaISB_EJRKNSt6chrono8durationIlSt5ratioILl1ELl1000000000EEEES9_St10shared_ptrINS0_7ContextEEEESK_IT_ERKT0_DpOT1_
FN:699,_ZSt15allocate_sharedISaIN8nav_msgs3msg9Odometry_ISaIvEEEESaIS5_EJRS3_EESt10shared_ptrIT_ERKT0_DpOT1_
FNDA:1,_ZSt15allocate_sharedISaIN8nav_msgs3msg9Odometry_ISaIvEEEESaIS5_EJRS3_EESt10shared_ptrIT_ERKT0_DpOT1_
FN:699,_ZSt15allocate_sharedIN6rclcpp5ClockESaIS1_EJ16rcl_clock_type_tEESt10shared_ptrIT_ERKT0_DpOT1_
FNDA:1,_ZSt15allocate_sharedIN6rclcpp5ClockESaIS1_EJ16rcl_clock_type_tEESt10shared_ptrIT_ERKT0_DpOT1_
FN:714,_ZSt11make_sharedIN6rclcpp15QOSEventHandlerISt8functionIFvR28rmw_liveliness_lost_status_tEESt10shared_ptrI15rcl_publisher_tEEEJRKS6_RFiP11rcl_event_tPKS8_26rcl_publisher_event_type_tERS9_RKSH_EES7_IT_EDpOT0_
FNDA:0,_ZSt11make_sharedIN6rclcpp15QOSEventHandlerISt8functionIFvR28rmw_liveliness_lost_status_tEESt10shared_ptrI15rcl_publisher_tEEEJRKS6_RFiP11rcl_event_tPKS8_26rcl_publisher_event_type_tERS9_RKSH_EES7_IT_EDpOT0_
FN:714,_ZSt11make_sharedIN6rclcpp15QOSEventHandlerISt8functionIFvR36rmw_offered_deadline_missed_status_tEESt10shared_ptrI15rcl_publisher_tEEEJRKS6_RFiP11rcl_event_tPKS8_26rcl_publisher_event_type_tERS9_RKSH_EES7_IT_EDpOT0_
FNDA:0,_ZSt11make_sharedIN6rclcpp15QOSEventHandlerISt8functionIFvR36rmw_offered_deadline_missed_status_tEESt10shared_ptrI15rcl_publisher_tEEEJRKS6_RFiP11rcl_event_tPKS8_26rcl_publisher_event_type_tERS9_RKSH_EES7_IT_EDpOT0_
FN:714,_ZSt11make_sharedISaIvEJEESt10shared_ptrIT_EDpOT0_
FNDA:0,_ZSt11make_sharedISaIvEJEESt10shared_ptrIT_EDpOT0_
FN:714,_ZSt11make_sharedISaIN8nav_msgs3msg9Odometry_ISaIvEEEEJRS3_EESt10shared_ptrIT_EDpOT0_
FNDA:1,_ZSt11make_sharedISaIN8nav_msgs3msg9Odometry_ISaIvEEEEJRS3_EESt10shared_ptrIT_EDpOT0_
FN:714,_ZSt11make_sharedIN6rclcpp15QOSEventHandlerIZNS0_9PublisherIN8nav_msgs3msg9Odometry_ISaIvEEES6_EC4EPNS0_15node_interfaces17NodeBaseInterfaceERKNSt7__cxx1112basic_stringIcSt11char_traitsIcESaIcEEERKNS0_3QoSERKNS0_29PublisherOptionsWithAllocatorIS6_EEEUlR35rmw_qos_incompatible_event_status_tE_St10shared_ptrI15rcl_publisher_tEEEJRKST_RFiP11rcl_event_tPKSV_26rcl_publisher_event_type_tERSW_RKS14_EESU_IT_EDpOT0_
FNDA:1,_ZSt11make_sharedIN6rclcpp15QOSEventHandlerIZNS0_9PublisherIN8nav_msgs3msg9Odometry_ISaIvEEES6_EC4EPNS0_15node_interfaces17NodeBaseInterfaceERKNSt7__cxx1112basic_stringIcSt11char_traitsIcESaIcEEERKNS0_3QoSERKNS0_29PublisherOptionsWithAllocatorIS6_EEEUlR35rmw_qos_incompatible_event_status_tE_St10shared_ptrI15rcl_publisher_tEEEJRKST_RFiP11rcl_event_tPKSV_26rcl_publisher_event_type_tERSW_RKS14_EESU_IT_EDpOT0_
FN:714,_ZSt11make_sharedIN6rclcpp5ClockEJ16rcl_clock_type_tEESt10shared_ptrIT_EDpOT0_
FNDA:1,_ZSt11make_sharedIN6rclcpp5ClockEJ16rcl_clock_type_tEESt10shared_ptrIT_EDpOT0_
FN:714,_ZSt11make_sharedIN6rclcpp15QOSEventHandlerISt8functionIFvR35rmw_qos_incompatible_event_status_tEESt10shared_ptrI15rcl_publisher_tEEEJRKS6_RFiP11rcl_event_tPKS8_26rcl_publisher_event_type_tERS9_RKSH_EES7_IT_EDpOT0_
FNDA:0,_ZSt11make_sharedIN6rclcpp15QOSEventHandlerISt8functionIFvR35rmw_qos_incompatible_event_status_tEESt10shared_ptrI15rcl_publisher_tEEEJRKS6_RFiP11rcl_event_tPKS8_26rcl_publisher_event_type_tERS9_RKSH_EES7_IT_EDpOT0_
FN:714,_ZSt11make_sharedIN6rclcpp4NodeEJRA16_KcEESt10shared_ptrIT_EDpOT0_
FNDA:1,_ZSt11make_sharedIN6rclcpp4NodeEJRA16_KcEESt10shared_ptrIT_EDpOT0_
FN:714,_ZSt11make_sharedIN6rclcpp9WallTimerISt5_BindIFM14TaskNavigationFvvEP36TaskNavigation_test_search_bins_TestEELPv0EEEJRKNSt6chrono8durationIlSt5ratioILl1ELl1000000000EEEES9_St10shared_ptrINS0_7ContextEEEESJ_IT_EDpOT0_
FNDA:1,_ZSt11make_sharedIN6rclcpp9WallTimerISt5_BindIFM14TaskNavigationFvvEP36TaskNavigation_test_search_bins_TestEELPv0EEEJRKNSt6chrono8durationIlSt5ratioILl1ELl1000000000EEEES9_St10shared_ptrINS0_7ContextEEEESJ_IT_EDpOT0_
FN:714,_ZSt11make_sharedIN6rclcpp9PublisherIN8nav_msgs3msg9Odometry_ISaIvEEES5_EEJRPNS0_15node_interfaces17NodeBaseInterfaceERKNSt7__cxx1112basic_stringIcSt11char_traitsIcESaIcEEERKNS0_3QoSERKNS0_29PublisherOptionsWithAllocatorIS5_EEEESt10shared_ptrIT_EDpOT0_
FNDA:1,_ZSt11make_sharedIN6rclcpp9PublisherIN8nav_msgs3msg9Odometry_ISaIvEEES5_EEJRPNS0_15node_interfaces17NodeBaseInterfaceERKNSt7__cxx1112basic_stringIcSt11char_traitsIcESaIcEEERKNS0_3QoSERKNS0_29PublisherOptionsWithAllocatorIS5_EEEESt10shared_ptrIT_EDpOT0_
DA:103,0
DA:127,0
DA:127,0
DA:127,0
DA:127,0
DA:127,2
DA:127,1
DA:127,2
DA:127,0
DA:127,0
DA:127,0
DA:127,0
DA:129,0
DA:129,1
DA:129,2
DA:129,0
DA:129,0
DA:129,0
DA:129,0
DA:129,0
DA:129,0
DA:129,0
DA:129,0
DA:129,2
DA:139,1
DA:156,0
DA:157,0
DA:234,0
DA:235,0
DA:234,0
DA:235,0
DA:234,1
DA:235,1
DA:246,0
DA:247,0
DA:246,0
DA:247,0
DA:246,0
DA:247,0
DA:246,0
DA:247,0
DA:246,0
DA:247,0
DA:246,1
DA:247,1
DA:254,0
DA:255,0
DA:254,1
DA:255,1
DA:254,0
DA:255,0
DA:254,1
DA:255,1
DA:263,1
DA:264,1
DA:263,0
DA:264,0
DA:263,1
DA:264,1
DA:275,0
DA:276,0
DA:290,0
DA:291,0
DA:307,0
DA:307,0
DA:307,0
DA:307,1
DA:313,0
DA:315,0
DA:316,0
DA:333,0
DA:335,0
DA:336,0
DA:333,0
DA:335,0
DA:336,0
DA:358,1
DA:359,1
DA:360,0
DA:358,0
DA:359,0
DA:360,0
DA:358,0
DA:359,0
DA:360,0
DA:358,0
DA:359,0
DA:360,0
DA:358,0
DA:359,0
DA:360,0
DA:358,1
DA:359,1
DA:360,1
DA:358,1
DA:359,1
DA:360,1
DA:358,1
DA:359,1
DA:360,1
DA:358,1
DA:359,1
DA:360,1
DA:358,0
DA:359,0
DA:360,0
DA:358,1
DA:359,1
DA:360,1
DA:367,0
DA:368,0
DA:393,0
DA:394,0
DA:491,0
DA:494,0
DA:507,0
DA:510,0
DA:511,0
DA:512,0
DA:507,1
DA:510,1
DA:511,1
DA:512,0
DA:594,0
DA:595,0
DA:650,0
DA:651,0
DA:671,1
DA:672,1
DA:671,0
DA:672,0
DA:676,0
DA:678,0
DA:676,0
DA:678,0
DA:699,1
DA:702,1
DA:699,0
DA:702,0
DA:699,0
DA:702,0
DA:699,0
DA:702,0
DA:699,0
DA:702,0
DA:699,1
DA:702,1
DA:699,1
DA:702,1
DA:699,1
DA:702,1
DA:699,1
DA:702,1
DA:699,0
DA:702,0
DA:699,1
DA:702,1
DA:714,1
DA:718,1
DA:714,0
DA:718,0
DA:714,0
DA:718,0
DA:714,0
DA:718,0
DA:714,0
DA:718,0
DA:714,1
DA:718,1
DA:714,1
DA:718,1
DA:714,1
DA:718,1
DA:714,1
DA:718,1
DA:714,1
DA:718,1
end_of_record
SF:/usr/include/c++/9/bits/functional_hash.h
FN:168,_ZNKSt4hashImEclEm
FNDA:0,_ZNKSt4hashImEclEm
DA:168,0
end_of_record
SF:/usr/include/c++/9/bits/stl_iterator.h
FN:803,_ZN9__gnu_cxx17__normal_iteratorIPmSt6vectorImSaImEEEC2ERKS1_
FNDA:0,_ZN9__gnu_cxx17__normal_iteratorIPmSt6vectorImSaImEEEC2ERKS1_
FN:803,_ZN9__gnu_cxx17__normal_iteratorIPKmSt6vectorImSaImEEEC2ERKS2_
FNDA:0,_ZN9__gnu_cxx17__normal_iteratorIPKmSt6vectorImSaImEEEC2ERKS2_
FN:803,_ZN9__gnu_cxx17__normal_iteratorIPSt10shared_ptrIN6rclcpp19QOSEventHandlerBaseEESt6vectorIS4_SaIS4_EEEC2ERKS5_
